 ex_DLModel_28_sfun

 Timestamp is 69fa0181 (Tue May  5 17:41:05 2026)

 Preferred load address is 0000000180000000

 Start         Length     Name                   Class
 0001:00000000 00000100H .text$di                CODE
 0001:00000100 001a5d40H .text$mn                CODE
 0001:001a5e40 00000040H .text$mn$00             CODE
 0001:001a5e80 00009530H .text$x                 CODE
 0001:001af3b0 000000d8H .text$yd                CODE
 0002:00000000 00000c68H .idata$5                DATA
 0002:00000c68 00000028H .00cfg                  DATA
 0002:00000c90 00000008H .CRT$XCA                DATA
 0002:00000c98 00000008H .CRT$XCB                DATA
 0002:00000ca0 00000008H .CRT$XCD                DATA
 0002:00000ca8 00000028H .CRT$XCT                DATA
 0002:00000cd0 00000068H .CRT$XCU                DATA
 0002:00000d38 00000008H .CRT$XCZ                DATA
 0002:00000d40 00000008H .CRT$XIA                DATA
 0002:00000d48 00000008H .CRT$XIC                DATA
 0002:00000d50 00000008H .CRT$XIZ                DATA
 0002:00000d58 00000008H .CRT$XLA                DATA
 0002:00000d60 00000008H .CRT$XLZ                DATA
 0002:00000d68 00000008H .CRT$XPA                DATA
 0002:00000d70 00000008H .CRT$XPZ                DATA
 0002:00000d78 00000008H .CRT$XTA                DATA
 0002:00000d80 00000010H .CRT$XTZ                DATA
 0002:00000d88 00000000H .gehcont$y              DATA
 0002:00000d88 00000000H .gfids$y                DATA
 0002:00000d90 0005b170H .rdata                  DATA
 0002:0005bf00 00000008H .rdata$CastGuardVftablesA DATA
 0002:0005bf08 00000008H .rdata$CastGuardVftablesC DATA
 0002:0005bf10 00000028H .rdata$T                DATA
 0002:0005bf38 0000ac34H .rdata$r                DATA
 0002:00066b6c 00001148H .rdata$voltmd           DATA
 0002:00067cb4 00000484H .rdata$zzzdbg           DATA
 0002:00068138 00000008H .rtc$IAA                DATA
 0002:00068140 00000008H .rtc$IZZ                DATA
 0002:00068148 00000008H .rtc$TAA                DATA
 0002:00068150 00000eb0H .rtc$TZZ                DATA
 0002:00069000 00001000H .tls                    DATA
 0002:0006a000 00001004H .tls$                   DATA
 0002:0006b004 00000004H .tls$ZZZ                DATA
 0002:0006b008 00016f00H .xdata                  DATA
 0002:00081f08 00000188H .xdata$x                DATA
 0002:00082090 00000434H .edata                  DATA
 0002:000824c4 00000190H .idata$2                DATA
 0002:00082654 00000014H .idata$3                DATA
 0002:00082668 00000c68H .idata$4                DATA
 0002:000832d0 0000242aH .idata$6                DATA
 0003:00000000 0000d3b8H .data                   DATA
 0003:0000d3b8 000000e8H .data$r                 DATA
 0003:0000d4a0 000054c0H .data$rs                DATA
 0003:00012960 00007c90H .bss                    DATA
 0004:00000000 000140b8H .pdata                  DATA
 0005:00000000 00000210H __nv_module_id          DATA
 0006:00000000 0031efb0H .nv_fatbin              DATA
 0007:00000000 00000090H .nvFatBinSegment        DATA
 0008:00000000 0000125aH .nvHRKI                 DATA
 0009:00000000 00000798H .nvHRKE                 DATA
 000a:00000000 00000001H .nvHRDI                 DATA
 000b:00000000 00000001H .nvHRDE                 DATA
 000c:00000000 00000001H .nvHRCI                 DATA
 000d:00000000 00000001H .nvHRCE                 DATA
 000e:00000000 0046fd20H __nv_relfatbin          DATA

  Address         Publics by Value              Rva+Base               Lib:Object

 0000:00000000       __arm64x_native_entrypoint 0000000000000000     <absolute>
 0000:00000000       ___safe_se_handler_count   0000000000000000     <absolute>
 0000:00000000       __arm64x_redirection_metadata 0000000000000000     <absolute>
 0000:00000000       __dynamic_value_reloc_table 0000000000000000     <absolute>
 0000:00000000       __arm64x_extra_rfe_table   0000000000000000     <absolute>
 0000:00000000       __guard_fids_count         0000000000000000     <absolute>
 0000:00000000       __guard_iat_table          0000000000000000     <absolute>
 0000:00000000       __x64_code_ranges_to_entry_points_count 0000000000000000     <absolute>
 0000:00000000       __x64_code_ranges_to_entry_points 0000000000000000     <absolute>
 0000:00000000       ___safe_se_handler_table   0000000000000000     <absolute>
 0000:00000000       __guard_eh_cont_count      0000000000000000     <absolute>
 0000:00000000       __guard_iat_count          0000000000000000     <absolute>
 0000:00000000       __guard_check_icall_a64n_fptr 0000000000000000     <absolute>
 0000:00000000       __guard_eh_cont_table      0000000000000000     <absolute>
 0000:00000000       __hybrid_code_map_count    0000000000000000     <absolute>
 0000:00000000       __hybrid_auxiliary_iat     0000000000000000     <absolute>
 0000:00000000       __arm64x_extra_rfe_table_size 0000000000000000     <absolute>
 0000:00000000       __guard_longjmp_count      0000000000000000     <absolute>
 0000:00000000       __arm64x_redirection_metadata_count 0000000000000000     <absolute>
 0000:00000000       __hybrid_auxiliary_iat_copy 0000000000000000     <absolute>
 0000:00000000       __guard_fids_table         0000000000000000     <absolute>
 0000:00000000       __guard_longjmp_table      0000000000000000     <absolute>
 0000:00000000       __hybrid_code_map          0000000000000000     <absolute>
 0000:00000000       __enclave_config           0000000000000000     <absolute>
 0000:00000000       __AbsoluteZero             0000000000000000     <absolute>
 0000:00000100       __guard_flags              0000000000000100     <absolute>
 0000:00000000       __ImageBase                0000000180000000     <linker-defined>
 0001:00000220       __cudaRegisterLinkedBinary_9a372ebe_21_ex_DLModel_28_sfun_cu_b33c2762_32544 0000000180001220 f   tmpxft_00008610_00000000-11_ex_DLModel_28_sfun_dlink.obj
 0001:00000280       __cudaRegisterLinkedBinary_df8fde5c_30_ex_DLModel_28_sfun_registry_cu_baf3c205 0000000180001280 f   tmpxft_00008610_00000000-11_ex_DLModel_28_sfun_dlink.obj
 0001:000002e0       __cudaRegisterLinkedBinary_89f31e68_19_c1_ex_DLModel_28_cu_8e750da6_37496 00000001800012e0 f   tmpxft_00008610_00000000-11_ex_DLModel_28_sfun_dlink.obj
 0001:00000340       __cudaRegisterLinkedBinary_6375c30a_19_c2_ex_DLModel_28_cu_9b88432c_16852 0000000180001340 f   tmpxft_00008610_00000000-11_ex_DLModel_28_sfun_dlink.obj
 0001:000003a0       __cudaRegisterLinkedBinary_825bc96e_19_c5_ex_DLModel_28_cu_d572d810_26348 00000001800013a0 f   tmpxft_00008610_00000000-11_ex_DLModel_28_sfun_dlink.obj
 0001:00000440       ?ex_DLModel_28_initializer@@YAXXZ 0000000180001440 f   ex_DLModel_28_sfun.obj
 0001:00000450       ?ex_DLModel_28_terminator@@YAXXZ 0000000180001450 f   ex_DLModel_28_sfun.obj
 0001:00000460       ?load_ex_DLModel_28_optimization_info@@YAPEAUmxArray_tag@@EEE@Z 0000000180001460 f   ex_DLModel_28_sfun.obj
 0001:00000510       ?unload_ex_DLModel_28_optimization_info@@YAXXZ 0000000180001510 f   ex_DLModel_28_sfun.obj
 0001:000006a0       ?sf_ex_DLModel_28_method_dispatcher@@YAIPEAUSimStruct_tag@@IPEBDHPEAX@Z 00000001800016a0 f   ex_DLModel_28_sfun.obj
 0001:00000730       ?sf_ex_DLModel_28_process_check_sum_call@@YAIHQEAPEAUmxArray_tag@@HQEAPEBU1@@Z 0000000180001730 f   ex_DLModel_28_sfun.obj
 0001:00000c50       ?sf_ex_DLModel_28_get_eml_resolved_functions_info@@YAIHQEAPEAUmxArray_tag@@HQEAPEBU1@@Z 0000000180001c50 f   ex_DLModel_28_sfun.obj
 0001:00000ee0       ?sf_ex_DLModel_28_third_party_uses_info@@YAIHQEAPEAUmxArray_tag@@HQEAPEBU1@@Z 0000000180001ee0 f   ex_DLModel_28_sfun.obj
 0001:00001120       ?sf_ex_DLModel_28_jit_fallback_info@@YAIHQEAPEAUmxArray_tag@@HQEAPEBU1@@Z 0000000180002120 f   ex_DLModel_28_sfun.obj
 0001:00001360       ?sf_ex_DLModel_28_get_post_codegen_info@@YAIHQEAPEAUmxArray_tag@@HQEAPEBU1@@Z 0000000180002360 f   ex_DLModel_28_sfun.obj
 0001:000015d0       ?sf_ex_DLModel_28_updateBuildInfo_args_info@@YAIHQEAPEAUmxArray_tag@@HQEAPEBU1@@Z 00000001800025d0 f   ex_DLModel_28_sfun.obj
 0001:0000f550       ??$DeviceMergeSortBlockSortKernel@$00UPolicy600@?$DeviceMergeSortPolicy@PEAM@CUB_200200_890_NS@cub@@PEAMPEANPEAMPEANHU?$customGreater@M@@MN@CUB_200200_890_NS@cub@@YAX_NPEAMPEAN12H12U?$customGreater@M@@PEAD@Z 0000000180010550 f i ex_DLModel_28_sfun.obj
 0001:0000f5e0       ??$DeviceMergeSortBlockSortKernel@$00UPolicy600@?$DeviceMergeSortPolicy@PEAM@CUB_200200_890_NS@cub@@PEAMPEANPEAMPEANHU?$customLesser@M@@MN@CUB_200200_890_NS@cub@@YAX_NPEAMPEAN12H12U?$customLesser@M@@PEAD@Z 00000001800105e0 f i ex_DLModel_28_sfun.obj
 0001:0000f670       ??$DeviceMergeSortBlockSortKernel@$00UPolicy600@?$DeviceMergeSortPolicy@PEAM@CUB_200200_890_NS@cub@@PEAMV?$zip_iterator@V?$tuple@PEAHPEANUnull_type@thrust@@U12@U12@U12@U12@U12@U12@U12@@thrust@@@thrust@@PEAMV56@HU?$customGreater@M@@MV?$tuple@HNUnull_type@thrust@@U12@U12@U12@U12@U12@U12@U12@@6@@CUB_200200_890_NS@cub@@YAX_NPEAMV?$zip_iterator@V?$tuple@PEAHPEANUnull_type@thrust@@U12@U12@U12@U12@U12@U12@U12@@thrust@@@thrust@@12H1PEAV?$tuple@HNUnull_type@thrust@@U12@U12@U12@U12@U12@U12@U12@@3@U?$customGreater@M@@PEAD@Z 0000000180010670 f i ex_DLModel_28_sfun.obj
 0001:0000f700       ??$DeviceMergeSortBlockSortKernel@$00UPolicy600@?$DeviceMergeSortPolicy@PEAM@CUB_200200_890_NS@cub@@PEAMV?$zip_iterator@V?$tuple@PEAHPEANUnull_type@thrust@@U12@U12@U12@U12@U12@U12@U12@@thrust@@@thrust@@PEAMV56@HU?$customLesser@M@@MV?$tuple@HNUnull_type@thrust@@U12@U12@U12@U12@U12@U12@U12@@6@@CUB_200200_890_NS@cub@@YAX_NPEAMV?$zip_iterator@V?$tuple@PEAHPEANUnull_type@thrust@@U12@U12@U12@U12@U12@U12@U12@@thrust@@@thrust@@12H1PEAV?$tuple@HNUnull_type@thrust@@U12@U12@U12@U12@U12@U12@U12@@3@U?$customLesser@M@@PEAD@Z 0000000180010700 f i ex_DLModel_28_sfun.obj
 0001:0000f790       ??$DeviceMergeSortBlockSortKernel@$00UPolicy600@?$DeviceMergeSortPolicy@PEAN@CUB_200200_890_NS@cub@@PEANV?$zip_iterator@V?$tuple@PEAHPEANUnull_type@thrust@@U12@U12@U12@U12@U12@U12@U12@@thrust@@@thrust@@PEANV56@HU?$customGreater@N@@NV?$tuple@HNUnull_type@thrust@@U12@U12@U12@U12@U12@U12@U12@@6@@CUB_200200_890_NS@cub@@YAX_NPEANV?$zip_iterator@V?$tuple@PEAHPEANUnull_type@thrust@@U12@U12@U12@U12@U12@U12@U12@@thrust@@@thrust@@12H1PEAV?$tuple@HNUnull_type@thrust@@U12@U12@U12@U12@U12@U12@U12@@3@U?$customGreater@N@@PEAD@Z 0000000180010790 f i ex_DLModel_28_sfun.obj
 0001:0000f820       ??$DeviceMergeSortBlockSortKernel@$00UPolicy600@?$DeviceMergeSortPolicy@PEAN@CUB_200200_890_NS@cub@@PEANV?$zip_iterator@V?$tuple@PEAHPEANUnull_type@thrust@@U12@U12@U12@U12@U12@U12@U12@@thrust@@@thrust@@PEANV56@HU?$customLesser@N@@NV?$tuple@HNUnull_type@thrust@@U12@U12@U12@U12@U12@U12@U12@@6@@CUB_200200_890_NS@cub@@YAX_NPEANV?$zip_iterator@V?$tuple@PEAHPEANUnull_type@thrust@@U12@U12@U12@U12@U12@U12@U12@@thrust@@@thrust@@12H1PEAV?$tuple@HNUnull_type@thrust@@U12@U12@U12@U12@U12@U12@U12@@3@U?$customLesser@N@@PEAD@Z 0000000180010820 f i ex_DLModel_28_sfun.obj
 0001:0000f8b0       ??$DeviceMergeSortBlockSortKernel@$0A@UPolicy600@?$DeviceMergeSortPolicy@PEAM@CUB_200200_890_NS@cub@@PEAMPEANPEAMPEANHU?$customGreater@M@@MN@CUB_200200_890_NS@cub@@YAX_NPEAMPEAN12H12U?$customGreater@M@@PEAD@Z 00000001800108b0 f i ex_DLModel_28_sfun.obj
 0001:0000f940       ??$DeviceMergeSortBlockSortKernel@$0A@UPolicy600@?$DeviceMergeSortPolicy@PEAM@CUB_200200_890_NS@cub@@PEAMPEANPEAMPEANHU?$customLesser@M@@MN@CUB_200200_890_NS@cub@@YAX_NPEAMPEAN12H12U?$customLesser@M@@PEAD@Z 0000000180010940 f i ex_DLModel_28_sfun.obj
 0001:0000f9d0       ??$DeviceMergeSortBlockSortKernel@$0A@UPolicy600@?$DeviceMergeSortPolicy@PEAM@CUB_200200_890_NS@cub@@PEAMV?$zip_iterator@V?$tuple@PEAHPEANUnull_type@thrust@@U12@U12@U12@U12@U12@U12@U12@@thrust@@@thrust@@PEAMV56@HU?$customGreater@M@@MV?$tuple@HNUnull_type@thrust@@U12@U12@U12@U12@U12@U12@U12@@6@@CUB_200200_890_NS@cub@@YAX_NPEAMV?$zip_iterator@V?$tuple@PEAHPEANUnull_type@thrust@@U12@U12@U12@U12@U12@U12@U12@@thrust@@@thrust@@12H1PEAV?$tuple@HNUnull_type@thrust@@U12@U12@U12@U12@U12@U12@U12@@3@U?$customGreater@M@@PEAD@Z 00000001800109d0 f i ex_DLModel_28_sfun.obj
 0001:0000fa60       ??$DeviceMergeSortBlockSortKernel@$0A@UPolicy600@?$DeviceMergeSortPolicy@PEAM@CUB_200200_890_NS@cub@@PEAMV?$zip_iterator@V?$tuple@PEAHPEANUnull_type@thrust@@U12@U12@U12@U12@U12@U12@U12@@thrust@@@thrust@@PEAMV56@HU?$customLesser@M@@MV?$tuple@HNUnull_type@thrust@@U12@U12@U12@U12@U12@U12@U12@@6@@CUB_200200_890_NS@cub@@YAX_NPEAMV?$zip_iterator@V?$tuple@PEAHPEANUnull_type@thrust@@U12@U12@U12@U12@U12@U12@U12@@thrust@@@thrust@@12H1PEAV?$tuple@HNUnull_type@thrust@@U12@U12@U12@U12@U12@U12@U12@@3@U?$customLesser@M@@PEAD@Z 0000000180010a60 f i ex_DLModel_28_sfun.obj
 0001:0000faf0       ??$DeviceMergeSortBlockSortKernel@$0A@UPolicy600@?$DeviceMergeSortPolicy@PEAN@CUB_200200_890_NS@cub@@PEANPEANPEANPEANHU?$customGreater@N@@NN@CUB_200200_890_NS@cub@@YAX_NPEAN111H11U?$customGreater@N@@PEAD@Z 0000000180010af0 f i ex_DLModel_28_sfun.obj
 0001:0000fb80       ??$DeviceMergeSortBlockSortKernel@$0A@UPolicy600@?$DeviceMergeSortPolicy@PEAN@CUB_200200_890_NS@cub@@PEANPEANPEANPEANHU?$customLesser@N@@NN@CUB_200200_890_NS@cub@@YAX_NPEAN111H11U?$customLesser@N@@PEAD@Z 0000000180010b80 f i ex_DLModel_28_sfun.obj
 0001:0000fc10       ??$DeviceMergeSortBlockSortKernel@$0A@UPolicy600@?$DeviceMergeSortPolicy@PEAN@CUB_200200_890_NS@cub@@PEANV?$zip_iterator@V?$tuple@PEAHPEANUnull_type@thrust@@U12@U12@U12@U12@U12@U12@U12@@thrust@@@thrust@@PEANV56@HU?$customGreater@N@@NV?$tuple@HNUnull_type@thrust@@U12@U12@U12@U12@U12@U12@U12@@6@@CUB_200200_890_NS@cub@@YAX_NPEANV?$zip_iterator@V?$tuple@PEAHPEANUnull_type@thrust@@U12@U12@U12@U12@U12@U12@U12@@thrust@@@thrust@@12H1PEAV?$tuple@HNUnull_type@thrust@@U12@U12@U12@U12@U12@U12@U12@@3@U?$customGreater@N@@PEAD@Z 0000000180010c10 f i ex_DLModel_28_sfun.obj
 0001:0000fca0       ??$DeviceMergeSortBlockSortKernel@$0A@UPolicy600@?$DeviceMergeSortPolicy@PEAN@CUB_200200_890_NS@cub@@PEANV?$zip_iterator@V?$tuple@PEAHPEANUnull_type@thrust@@U12@U12@U12@U12@U12@U12@U12@@thrust@@@thrust@@PEANV56@HU?$customLesser@N@@NV?$tuple@HNUnull_type@thrust@@U12@U12@U12@U12@U12@U12@U12@@6@@CUB_200200_890_NS@cub@@YAX_NPEANV?$zip_iterator@V?$tuple@PEAHPEANUnull_type@thrust@@U12@U12@U12@U12@U12@U12@U12@@thrust@@@thrust@@12H1PEAV?$tuple@HNUnull_type@thrust@@U12@U12@U12@U12@U12@U12@U12@@3@U?$customLesser@N@@PEAD@Z 0000000180010ca0 f i ex_DLModel_28_sfun.obj
 0001:0000fd30       ??$DeviceMergeSortMergeKernel@$00UPolicy600@?$DeviceMergeSortPolicy@PEAM@CUB_200200_890_NS@cub@@PEAMPEANHU?$customGreater@M@@MN@CUB_200200_890_NS@cub@@YAX_NPEAMPEANH12U?$customGreater@M@@PEAHHPEAD@Z 0000000180010d30 f i ex_DLModel_28_sfun.obj
 0001:0000fdc0       ??$DeviceMergeSortMergeKernel@$00UPolicy600@?$DeviceMergeSortPolicy@PEAM@CUB_200200_890_NS@cub@@PEAMPEANHU?$customLesser@M@@MN@CUB_200200_890_NS@cub@@YAX_NPEAMPEANH12U?$customLesser@M@@PEAHHPEAD@Z 0000000180010dc0 f i ex_DLModel_28_sfun.obj
 0001:0000fe50       ??$DeviceMergeSortMergeKernel@$00UPolicy600@?$DeviceMergeSortPolicy@PEAM@CUB_200200_890_NS@cub@@PEAMV?$zip_iterator@V?$tuple@PEAHPEANUnull_type@thrust@@U12@U12@U12@U12@U12@U12@U12@@thrust@@@thrust@@HU?$customGreater@M@@MV?$tuple@HNUnull_type@thrust@@U12@U12@U12@U12@U12@U12@U12@@6@@CUB_200200_890_NS@cub@@YAX_NPEAMV?$zip_iterator@V?$tuple@PEAHPEANUnull_type@thrust@@U12@U12@U12@U12@U12@U12@U12@@thrust@@@thrust@@H1PEAV?$tuple@HNUnull_type@thrust@@U12@U12@U12@U12@U12@U12@U12@@3@U?$customGreater@M@@PEAHHPEAD@Z 0000000180010e50 f i ex_DLModel_28_sfun.obj
 0001:0000fee0       ??$DeviceMergeSortMergeKernel@$00UPolicy600@?$DeviceMergeSortPolicy@PEAM@CUB_200200_890_NS@cub@@PEAMV?$zip_iterator@V?$tuple@PEAHPEANUnull_type@thrust@@U12@U12@U12@U12@U12@U12@U12@@thrust@@@thrust@@HU?$customLesser@M@@MV?$tuple@HNUnull_type@thrust@@U12@U12@U12@U12@U12@U12@U12@@6@@CUB_200200_890_NS@cub@@YAX_NPEAMV?$zip_iterator@V?$tuple@PEAHPEANUnull_type@thrust@@U12@U12@U12@U12@U12@U12@U12@@thrust@@@thrust@@H1PEAV?$tuple@HNUnull_type@thrust@@U12@U12@U12@U12@U12@U12@U12@@3@U?$customLesser@M@@PEAHHPEAD@Z 0000000180010ee0 f i ex_DLModel_28_sfun.obj
 0001:0000ff70       ??$DeviceMergeSortMergeKernel@$00UPolicy600@?$DeviceMergeSortPolicy@PEAN@CUB_200200_890_NS@cub@@PEANV?$zip_iterator@V?$tuple@PEAHPEANUnull_type@thrust@@U12@U12@U12@U12@U12@U12@U12@@thrust@@@thrust@@HU?$customGreater@N@@NV?$tuple@HNUnull_type@thrust@@U12@U12@U12@U12@U12@U12@U12@@6@@CUB_200200_890_NS@cub@@YAX_NPEANV?$zip_iterator@V?$tuple@PEAHPEANUnull_type@thrust@@U12@U12@U12@U12@U12@U12@U12@@thrust@@@thrust@@H1PEAV?$tuple@HNUnull_type@thrust@@U12@U12@U12@U12@U12@U12@U12@@3@U?$customGreater@N@@PEAHHPEAD@Z 0000000180010f70 f i ex_DLModel_28_sfun.obj
 0001:00010000       ??$DeviceMergeSortMergeKernel@$00UPolicy600@?$DeviceMergeSortPolicy@PEAN@CUB_200200_890_NS@cub@@PEANV?$zip_iterator@V?$tuple@PEAHPEANUnull_type@thrust@@U12@U12@U12@U12@U12@U12@U12@@thrust@@@thrust@@HU?$customLesser@N@@NV?$tuple@HNUnull_type@thrust@@U12@U12@U12@U12@U12@U12@U12@@6@@CUB_200200_890_NS@cub@@YAX_NPEANV?$zip_iterator@V?$tuple@PEAHPEANUnull_type@thrust@@U12@U12@U12@U12@U12@U12@U12@@thrust@@@thrust@@H1PEAV?$tuple@HNUnull_type@thrust@@U12@U12@U12@U12@U12@U12@U12@@3@U?$customLesser@N@@PEAHHPEAD@Z 0000000180011000 f i ex_DLModel_28_sfun.obj
 0001:00010090       ??$DeviceMergeSortMergeKernel@$0A@UPolicy600@?$DeviceMergeSortPolicy@PEAM@CUB_200200_890_NS@cub@@PEAMPEANHU?$customGreater@M@@MN@CUB_200200_890_NS@cub@@YAX_NPEAMPEANH12U?$customGreater@M@@PEAHHPEAD@Z 0000000180011090 f i ex_DLModel_28_sfun.obj
 0001:00010120       ??$DeviceMergeSortMergeKernel@$0A@UPolicy600@?$DeviceMergeSortPolicy@PEAM@CUB_200200_890_NS@cub@@PEAMPEANHU?$customLesser@M@@MN@CUB_200200_890_NS@cub@@YAX_NPEAMPEANH12U?$customLesser@M@@PEAHHPEAD@Z 0000000180011120 f i ex_DLModel_28_sfun.obj
 0001:000101b0       ??$DeviceMergeSortMergeKernel@$0A@UPolicy600@?$DeviceMergeSortPolicy@PEAM@CUB_200200_890_NS@cub@@PEAMV?$zip_iterator@V?$tuple@PEAHPEANUnull_type@thrust@@U12@U12@U12@U12@U12@U12@U12@@thrust@@@thrust@@HU?$customGreater@M@@MV?$tuple@HNUnull_type@thrust@@U12@U12@U12@U12@U12@U12@U12@@6@@CUB_200200_890_NS@cub@@YAX_NPEAMV?$zip_iterator@V?$tuple@PEAHPEANUnull_type@thrust@@U12@U12@U12@U12@U12@U12@U12@@thrust@@@thrust@@H1PEAV?$tuple@HNUnull_type@thrust@@U12@U12@U12@U12@U12@U12@U12@@3@U?$customGreater@M@@PEAHHPEAD@Z 00000001800111b0 f i ex_DLModel_28_sfun.obj
 0001:00010240       ??$DeviceMergeSortMergeKernel@$0A@UPolicy600@?$DeviceMergeSortPolicy@PEAM@CUB_200200_890_NS@cub@@PEAMV?$zip_iterator@V?$tuple@PEAHPEANUnull_type@thrust@@U12@U12@U12@U12@U12@U12@U12@@thrust@@@thrust@@HU?$customLesser@M@@MV?$tuple@HNUnull_type@thrust@@U12@U12@U12@U12@U12@U12@U12@@6@@CUB_200200_890_NS@cub@@YAX_NPEAMV?$zip_iterator@V?$tuple@PEAHPEANUnull_type@thrust@@U12@U12@U12@U12@U12@U12@U12@@thrust@@@thrust@@H1PEAV?$tuple@HNUnull_type@thrust@@U12@U12@U12@U12@U12@U12@U12@@3@U?$customLesser@M@@PEAHHPEAD@Z 0000000180011240 f i ex_DLModel_28_sfun.obj
 0001:000102d0       ??$DeviceMergeSortMergeKernel@$0A@UPolicy600@?$DeviceMergeSortPolicy@PEAN@CUB_200200_890_NS@cub@@PEANPEANHU?$customGreater@N@@NN@CUB_200200_890_NS@cub@@YAX_NPEAN1H11U?$customGreater@N@@PEAHHPEAD@Z 00000001800112d0 f i ex_DLModel_28_sfun.obj
 0001:00010360       ??$DeviceMergeSortMergeKernel@$0A@UPolicy600@?$DeviceMergeSortPolicy@PEAN@CUB_200200_890_NS@cub@@PEANPEANHU?$customLesser@N@@NN@CUB_200200_890_NS@cub@@YAX_NPEAN1H11U?$customLesser@N@@PEAHHPEAD@Z 0000000180011360 f i ex_DLModel_28_sfun.obj
 0001:000103f0       ??$DeviceMergeSortMergeKernel@$0A@UPolicy600@?$DeviceMergeSortPolicy@PEAN@CUB_200200_890_NS@cub@@PEANV?$zip_iterator@V?$tuple@PEAHPEANUnull_type@thrust@@U12@U12@U12@U12@U12@U12@U12@@thrust@@@thrust@@HU?$customGreater@N@@NV?$tuple@HNUnull_type@thrust@@U12@U12@U12@U12@U12@U12@U12@@6@@CUB_200200_890_NS@cub@@YAX_NPEANV?$zip_iterator@V?$tuple@PEAHPEANUnull_type@thrust@@U12@U12@U12@U12@U12@U12@U12@@thrust@@@thrust@@H1PEAV?$tuple@HNUnull_type@thrust@@U12@U12@U12@U12@U12@U12@U12@@3@U?$customGreater@N@@PEAHHPEAD@Z 00000001800113f0 f i ex_DLModel_28_sfun.obj
 0001:00010480       ??$DeviceMergeSortMergeKernel@$0A@UPolicy600@?$DeviceMergeSortPolicy@PEAN@CUB_200200_890_NS@cub@@PEANV?$zip_iterator@V?$tuple@PEAHPEANUnull_type@thrust@@U12@U12@U12@U12@U12@U12@U12@@thrust@@@thrust@@HU?$customLesser@N@@NV?$tuple@HNUnull_type@thrust@@U12@U12@U12@U12@U12@U12@U12@@6@@CUB_200200_890_NS@cub@@YAX_NPEANV?$zip_iterator@V?$tuple@PEAHPEANUnull_type@thrust@@U12@U12@U12@U12@U12@U12@U12@@thrust@@@thrust@@H1PEAV?$tuple@HNUnull_type@thrust@@U12@U12@U12@U12@U12@U12@U12@@3@U?$customLesser@N@@PEAHHPEAD@Z 0000000180011480 f i ex_DLModel_28_sfun.obj
 0001:00010510       ??$DeviceMergeSortPartitionKernel@PEAMHU?$customGreater@M@@M@CUB_200200_890_NS@cub@@YAX_NPEAM1HHPEAHU?$customGreater@M@@HH@Z 0000000180011510 f i ex_DLModel_28_sfun.obj
 0001:00010590       ??$DeviceMergeSortPartitionKernel@PEAMHU?$customLesser@M@@M@CUB_200200_890_NS@cub@@YAX_NPEAM1HHPEAHU?$customLesser@M@@HH@Z 0000000180011590 f i ex_DLModel_28_sfun.obj
 0001:00010610       ??$DeviceMergeSortPartitionKernel@PEANHU?$customGreater@N@@N@CUB_200200_890_NS@cub@@YAX_NPEAN1HHPEAHU?$customGreater@N@@HH@Z 0000000180011610 f i ex_DLModel_28_sfun.obj
 0001:00010690       ??$DeviceMergeSortPartitionKernel@PEANHU?$customLesser@N@@N@CUB_200200_890_NS@cub@@YAX_NPEAN1HHPEAHU?$customLesser@N@@HH@Z 0000000180011690 f i ex_DLModel_28_sfun.obj
 0001:00010710       ??$DeviceRadixSortDownsweepKernel@UPolicy900@?$DeviceRadixSortPolicy@HU?$ValueIndexPair@M@@I@CUB_200200_890_NS@cub@@$00$0A@HU?$ValueIndexPair@M@@IUidentity_decomposer_t@detail@34@@CUB_200200_890_NS@cub@@YAXPEBHPEAHPEBU?$ValueIndexPair@M@@PEAU2@PEAIIHHU?$GridEvenShare@I@01@Uidentity_decomposer_t@detail@01@@Z 0000000180011710 f i ex_DLModel_28_sfun.obj
 0001:000107a0       ??$DeviceRadixSortDownsweepKernel@UPolicy900@?$DeviceRadixSortPolicy@HU?$ValueIndexPair@M@@I@CUB_200200_890_NS@cub@@$0A@$0A@HU?$ValueIndexPair@M@@IUidentity_decomposer_t@detail@34@@CUB_200200_890_NS@cub@@YAXPEBHPEAHPEBU?$ValueIndexPair@M@@PEAU2@PEAIIHHU?$GridEvenShare@I@01@Uidentity_decomposer_t@detail@01@@Z 00000001800117a0 f i ex_DLModel_28_sfun.obj
 0001:00010830       ??$DeviceRadixSortDownsweepKernel@UPolicy900@?$DeviceRadixSortPolicy@HU?$ValueIndexPair@N@@I@CUB_200200_890_NS@cub@@$00$0A@HU?$ValueIndexPair@N@@IUidentity_decomposer_t@detail@34@@CUB_200200_890_NS@cub@@YAXPEBHPEAHPEBU?$ValueIndexPair@N@@PEAU2@PEAIIHHU?$GridEvenShare@I@01@Uidentity_decomposer_t@detail@01@@Z 0000000180011830 f i ex_DLModel_28_sfun.obj
 0001:000108c0       ??$DeviceRadixSortDownsweepKernel@UPolicy900@?$DeviceRadixSortPolicy@HU?$ValueIndexPair@N@@I@CUB_200200_890_NS@cub@@$0A@$0A@HU?$ValueIndexPair@N@@IUidentity_decomposer_t@detail@34@@CUB_200200_890_NS@cub@@YAXPEBHPEAHPEBU?$ValueIndexPair@N@@PEAU2@PEAIIHHU?$GridEvenShare@I@01@Uidentity_decomposer_t@detail@01@@Z 00000001800118c0 f i ex_DLModel_28_sfun.obj
 0001:00010950       ??$DeviceRadixSortExclusiveSumKernel@UPolicy900@?$DeviceRadixSortPolicy@HU?$ValueIndexPair@M@@I@CUB_200200_890_NS@cub@@I@CUB_200200_890_NS@cub@@YAXPEAI@Z 0000000180011950 f i ex_DLModel_28_sfun.obj
 0001:00010970       ??$DeviceRadixSortExclusiveSumKernel@UPolicy900@?$DeviceRadixSortPolicy@HU?$ValueIndexPair@N@@I@CUB_200200_890_NS@cub@@I@CUB_200200_890_NS@cub@@YAXPEAI@Z 0000000180011970 f i ex_DLModel_28_sfun.obj
 0001:00010990       ??$DeviceRadixSortHistogramKernel@UPolicy900@?$DeviceRadixSortPolicy@HU?$ValueIndexPair@M@@I@CUB_200200_890_NS@cub@@$0A@HIUidentity_decomposer_t@detail@34@@CUB_200200_890_NS@cub@@YAXPEAIPEBHIHHUidentity_decomposer_t@detail@01@@Z 0000000180011990 f i ex_DLModel_28_sfun.obj
 0001:000109e0       ??$DeviceRadixSortHistogramKernel@UPolicy900@?$DeviceRadixSortPolicy@HU?$ValueIndexPair@N@@I@CUB_200200_890_NS@cub@@$0A@HIUidentity_decomposer_t@detail@34@@CUB_200200_890_NS@cub@@YAXPEAIPEBHIHHUidentity_decomposer_t@detail@01@@Z 00000001800119e0 f i ex_DLModel_28_sfun.obj
 0001:00010a30       ??$DeviceRadixSortOnesweepKernel@UPolicy900@?$DeviceRadixSortPolicy@HU?$ValueIndexPair@M@@I@CUB_200200_890_NS@cub@@$0A@HU?$ValueIndexPair@M@@IHHUidentity_decomposer_t@detail@34@@CUB_200200_890_NS@cub@@YAXPEAH0PEAIPEBI0PEBHPEAU?$ValueIndexPair@M@@PEBU2@HHHUidentity_decomposer_t@detail@01@@Z 0000000180011a30 f i ex_DLModel_28_sfun.obj
 0001:00010ae0       ??$DeviceRadixSortOnesweepKernel@UPolicy900@?$DeviceRadixSortPolicy@HU?$ValueIndexPair@N@@I@CUB_200200_890_NS@cub@@$0A@HU?$ValueIndexPair@N@@IHHUidentity_decomposer_t@detail@34@@CUB_200200_890_NS@cub@@YAXPEAH0PEAIPEBI0PEBHPEAU?$ValueIndexPair@N@@PEBU2@HHHUidentity_decomposer_t@detail@01@@Z 0000000180011ae0 f i ex_DLModel_28_sfun.obj
 0001:00010b90       ??$DeviceRadixSortSingleTileKernel@UPolicy900@?$DeviceRadixSortPolicy@HU?$ValueIndexPair@M@@I@CUB_200200_890_NS@cub@@$0A@HU?$ValueIndexPair@M@@IUidentity_decomposer_t@detail@34@@CUB_200200_890_NS@cub@@YAXPEBHPEAHPEBU?$ValueIndexPair@M@@PEAU2@IHHUidentity_decomposer_t@detail@01@@Z 0000000180011b90 f i ex_DLModel_28_sfun.obj
 0001:00010c00       ??$DeviceRadixSortSingleTileKernel@UPolicy900@?$DeviceRadixSortPolicy@HU?$ValueIndexPair@N@@I@CUB_200200_890_NS@cub@@$0A@HU?$ValueIndexPair@N@@IUidentity_decomposer_t@detail@34@@CUB_200200_890_NS@cub@@YAXPEBHPEAHPEBU?$ValueIndexPair@N@@PEAU2@IHHUidentity_decomposer_t@detail@01@@Z 0000000180011c00 f i ex_DLModel_28_sfun.obj
 0001:00010c70       ??$DeviceRadixSortUpsweepKernel@UPolicy900@?$DeviceRadixSortPolicy@HU?$ValueIndexPair@M@@I@CUB_200200_890_NS@cub@@$00$0A@HIUidentity_decomposer_t@detail@34@@CUB_200200_890_NS@cub@@YAXPEBHPEAIIHHU?$GridEvenShare@I@01@Uidentity_decomposer_t@detail@01@@Z 0000000180011c70 f i ex_DLModel_28_sfun.obj
 0001:00010cd0       ??$DeviceRadixSortUpsweepKernel@UPolicy900@?$DeviceRadixSortPolicy@HU?$ValueIndexPair@M@@I@CUB_200200_890_NS@cub@@$0A@$0A@HIUidentity_decomposer_t@detail@34@@CUB_200200_890_NS@cub@@YAXPEBHPEAIIHHU?$GridEvenShare@I@01@Uidentity_decomposer_t@detail@01@@Z 0000000180011cd0 f i ex_DLModel_28_sfun.obj
 0001:00010d30       ??$DeviceRadixSortUpsweepKernel@UPolicy900@?$DeviceRadixSortPolicy@HU?$ValueIndexPair@N@@I@CUB_200200_890_NS@cub@@$00$0A@HIUidentity_decomposer_t@detail@34@@CUB_200200_890_NS@cub@@YAXPEBHPEAIIHHU?$GridEvenShare@I@01@Uidentity_decomposer_t@detail@01@@Z 0000000180011d30 f i ex_DLModel_28_sfun.obj
 0001:00010d90       ??$DeviceRadixSortUpsweepKernel@UPolicy900@?$DeviceRadixSortPolicy@HU?$ValueIndexPair@N@@I@CUB_200200_890_NS@cub@@$0A@$0A@HIUidentity_decomposer_t@detail@34@@CUB_200200_890_NS@cub@@YAXPEBHPEAIIHHU?$GridEvenShare@I@01@Uidentity_decomposer_t@detail@01@@Z 0000000180011d90 f i ex_DLModel_28_sfun.obj
 0001:00010df0       ??$EmptyKernel@X@CUB_200200_890_NS@cub@@YAXXZ 0000000180011df0 f i ex_DLModel_28_sfun.obj
 0001:00010e00       ??$RadixSortScanBinsKernel@UPolicy900@?$DeviceRadixSortPolicy@HU?$ValueIndexPair@M@@I@CUB_200200_890_NS@cub@@I@CUB_200200_890_NS@cub@@YAXPEAIH@Z 0000000180011e00 f i ex_DLModel_28_sfun.obj
 0001:00010e30       ??$RadixSortScanBinsKernel@UPolicy900@?$DeviceRadixSortPolicy@HU?$ValueIndexPair@N@@I@CUB_200200_890_NS@cub@@I@CUB_200200_890_NS@cub@@YAXPEAIH@Z 0000000180011e30 f i ex_DLModel_28_sfun.obj
 0001:00010e60       ??$_kernel_agent@U?$ParallelForAgent@U?$functor@PEANU?$compute_sequence_value@HX@detail@generic@2system@thrust@@_J@__tabulate@cuda_cub@thrust@@_J@__parallel_for@cuda_cub@thrust@@U?$functor@PEANU?$compute_sequence_value@HX@detail@generic@2system@thrust@@_J@__tabulate@34@_J@core@cuda_cub@thrust@@YAXU?$functor@PEANU?$compute_sequence_value@HX@detail@generic@2system@thrust@@_J@__tabulate@12@_J@Z 0000000180011e60 f i ex_DLModel_28_sfun.obj
 0001:00010e90       ??$createValueIndexPairArray@M@@YAXPEAMPEANPEAU?$ValueIndexPair@M@@H@Z 0000000180011e90 f i ex_DLModel_28_sfun.obj
 0001:00010ed0       ??$createValueIndexPairArray@N@@YAXPEAN0PEAU?$ValueIndexPair@N@@H@Z 0000000180011ed0 f i ex_DLModel_28_sfun.obj
 0001:00010f10       ??$decomposeValueIndexPairArray@M@@YAXPEAU?$ValueIndexPair@M@@PEAMPEANH@Z 0000000180011f10 f i ex_DLModel_28_sfun.obj
 0001:00010f50       ??$decomposeValueIndexPairArray@N@@YAXPEAU?$ValueIndexPair@N@@PEAN1H@Z 0000000180011f50 f i ex_DLModel_28_sfun.obj
 0001:00010f90       ??0dim3@@QEAA@III@Z        0000000180011f90 f i ex_DLModel_28_sfun.obj
 0001:00010fd0       ??_H@YAXPEAX_K1P6APEAX0@Z@Z 0000000180011fd0 f i ex_DLModel_28_sfun.obj
 0001:00011030       ?abs@@YAJJ@Z               0000000180012030 f i ex_DLModel_28_sfun.obj
 0001:00011050       ?abs@@YAMM@Z               0000000180012050 f i ex_DLModel_28_sfun.obj
 0001:00011070       ?abs@@YANN@Z               0000000180012070 f i ex_DLModel_28_sfun.obj
 0001:00011090       ?abs@@YA_J_J@Z             0000000180012090 f i ex_DLModel_28_sfun.obj
 0001:000110b0       ?acos@@YAMM@Z              00000001800120b0 f i ex_DLModel_28_sfun.obj
 0001:000110d0       ?acosh@@YAMM@Z             00000001800120d0 f i ex_DLModel_28_sfun.obj
 0001:000110f0       ?asin@@YAMM@Z              00000001800120f0 f i ex_DLModel_28_sfun.obj
 0001:00011110       ?asinh@@YAMM@Z             0000000180012110 f i ex_DLModel_28_sfun.obj
 0001:00011130       ?atan2@@YAMMM@Z            0000000180012130 f i ex_DLModel_28_sfun.obj
 0001:00011160       ?atan@@YAMM@Z              0000000180012160 f i ex_DLModel_28_sfun.obj
 0001:00011180       ?atanh@@YAMM@Z             0000000180012180 f i ex_DLModel_28_sfun.obj
 0001:000111a0       ?cbrt@@YAMM@Z              00000001800121a0 f i ex_DLModel_28_sfun.obj
 0001:000111c0       ?ceil@@YAMM@Z              00000001800121c0 f i ex_DLModel_28_sfun.obj
 0001:000111e0       ?copysign@@YAMMM@Z         00000001800121e0 f i ex_DLModel_28_sfun.obj
 0001:00011210       ?cos@@YAMM@Z               0000000180012210 f i ex_DLModel_28_sfun.obj
 0001:00011230       ?cosh@@YAMM@Z              0000000180012230 f i ex_DLModel_28_sfun.obj
 0001:00011250       ?erf@@YAMM@Z               0000000180012250 f i ex_DLModel_28_sfun.obj
 0001:00011270       ?erfc@@YAMM@Z              0000000180012270 f i ex_DLModel_28_sfun.obj
 0001:00011290       ?exp2@@YAMM@Z              0000000180012290 f i ex_DLModel_28_sfun.obj
 0001:000112b0       ?exp@@YAMM@Z               00000001800122b0 f i ex_DLModel_28_sfun.obj
 0001:000112d0       ?expm1@@YAMM@Z             00000001800122d0 f i ex_DLModel_28_sfun.obj
 0001:000112f0       ?fabs@@YAMM@Z              00000001800122f0 f i ex_DLModel_28_sfun.obj
 0001:00011310       ?fdim@@YAMMM@Z             0000000180012310 f i ex_DLModel_28_sfun.obj
 0001:00011340       ?floor@@YAMM@Z             0000000180012340 f i ex_DLModel_28_sfun.obj
 0001:00011360       ?fma@@YAMMMM@Z             0000000180012360 f i ex_DLModel_28_sfun.obj
 0001:000113a0       ?fmax@@YAMMM@Z             00000001800123a0 f i ex_DLModel_28_sfun.obj
 0001:000113d0       ?fmin@@YAMMM@Z             00000001800123d0 f i ex_DLModel_28_sfun.obj
 0001:00011400       ?fmod@@YAMMM@Z             0000000180012400 f i ex_DLModel_28_sfun.obj
 0001:00011430       ?frexp@@YAMMPEAH@Z         0000000180012430 f i ex_DLModel_28_sfun.obj
 0001:00011460       ?hypot@@YAMMM@Z            0000000180012460 f i ex_DLModel_28_sfun.obj
 0001:00011490       ?ilogb@@YAHM@Z             0000000180012490 f i ex_DLModel_28_sfun.obj
 0001:000114b0       ?ldexp@@YAMMH@Z            00000001800124b0 f i ex_DLModel_28_sfun.obj
 0001:000114e0       ?lgamma@@YAMM@Z            00000001800124e0 f i ex_DLModel_28_sfun.obj
 0001:00011500       ?llrint@@YA_JM@Z           0000000180012500 f i ex_DLModel_28_sfun.obj
 0001:00011520       ?llround@@YA_JM@Z          0000000180012520 f i ex_DLModel_28_sfun.obj
 0001:00011540       ?log10@@YAMM@Z             0000000180012540 f i ex_DLModel_28_sfun.obj
 0001:00011560       ?log1p@@YAMM@Z             0000000180012560 f i ex_DLModel_28_sfun.obj
 0001:00011580       ?log2@@YAMM@Z              0000000180012580 f i ex_DLModel_28_sfun.obj
 0001:000115a0       ?log@@YAMM@Z               00000001800125a0 f i ex_DLModel_28_sfun.obj
 0001:000115c0       ?logb@@YAMM@Z              00000001800125c0 f i ex_DLModel_28_sfun.obj
 0001:000115e0       ?lrint@@YAJM@Z             00000001800125e0 f i ex_DLModel_28_sfun.obj
 0001:00011600       ?lround@@YAJM@Z            0000000180012600 f i ex_DLModel_28_sfun.obj
 0001:00011620       ?modf@@YAMMPEAM@Z          0000000180012620 f i ex_DLModel_28_sfun.obj
 0001:00011650       ?nearbyint@@YAMM@Z         0000000180012650 f i ex_DLModel_28_sfun.obj
 0001:00011670       ?nextafter@@YAMMM@Z        0000000180012670 f i ex_DLModel_28_sfun.obj
 0001:000116a0       ?pow@@YAMMM@Z              00000001800126a0 f i ex_DLModel_28_sfun.obj
 0001:000116d0       ?remainder@@YAMMM@Z        00000001800126d0 f i ex_DLModel_28_sfun.obj
 0001:00011700       ?remquo@@YAMMMPEAH@Z       0000000180012700 f i ex_DLModel_28_sfun.obj
 0001:00011740       ?rint@@YAMM@Z              0000000180012740 f i ex_DLModel_28_sfun.obj
 0001:00011760       ?round@@YAMM@Z             0000000180012760 f i ex_DLModel_28_sfun.obj
 0001:00011780       ?scalbln@@YAMMJ@Z          0000000180012780 f i ex_DLModel_28_sfun.obj
 0001:000117b0       ?signbit@@YA_NM@Z          00000001800127b0 f i ex_DLModel_28_sfun.obj
 0001:000117f0       ?signbit@@YA_NN@Z          00000001800127f0 f i ex_DLModel_28_sfun.obj
 0001:00011830       ?signbit@@YA_NO@Z          0000000180012830 f i ex_DLModel_28_sfun.obj
 0001:00011870       ?sin@@YAMM@Z               0000000180012870 f i ex_DLModel_28_sfun.obj
 0001:00011890       ?sinh@@YAMM@Z              0000000180012890 f i ex_DLModel_28_sfun.obj
 0001:000118b0       ?sqrt@@YAMM@Z              00000001800128b0 f i ex_DLModel_28_sfun.obj
 0001:000118d0       ?tan@@YAMM@Z               00000001800128d0 f i ex_DLModel_28_sfun.obj
 0001:000118f0       ?tanh@@YAMM@Z              00000001800128f0 f i ex_DLModel_28_sfun.obj
 0001:00011910       ?tgamma@@YAMM@Z            0000000180012910 f i ex_DLModel_28_sfun.obj
 0001:00011930       ?trunc@@YAMM@Z             0000000180012930 f i ex_DLModel_28_sfun.obj
 0001:00011950       fabsf                      0000000180012950 f i ex_DLModel_28_sfun.obj
 0001:00011970       frexpf                     0000000180012970 f i ex_DLModel_28_sfun.obj
 0001:000119a0       ldexpf                     00000001800129a0 f i ex_DLModel_28_sfun.obj
 0001:00011a20       mexFunction                0000000180012a20 f   ex_DLModel_28_sfun_registry.obj
 0001:00014390       _ssSetInputPortDirectFeedThroughFcn 0000000180015390 f   ex_DLModel_28_sfun_registry.obj
 0001:00014510       _ssSetRWorkValueFcn        0000000180015510 f   ex_DLModel_28_sfun_registry.obj
 0001:00014590       _ssGetRWorkValueFcn        0000000180015590 f   ex_DLModel_28_sfun_registry.obj
 0001:00014600       _ssSetIWorkValueFcn        0000000180015600 f   ex_DLModel_28_sfun_registry.obj
 0001:00014680       _ssGetIWorkValueFcn        0000000180015680 f   ex_DLModel_28_sfun_registry.obj
 0001:000146f0       _ssSetPWorkValueFcn        00000001800156f0 f   ex_DLModel_28_sfun_registry.obj
 0001:00014770       _ssGetPWorkValueFcn        0000000180015770 f   ex_DLModel_28_sfun_registry.obj
 0001:000147e0       _ssGetInputPortSignalFcn   00000001800157e0 f   ex_DLModel_28_sfun_registry.obj
 0001:00014b90       _ssGetInputPortBufferDstPortFcn 0000000180015b90 f   ex_DLModel_28_sfun_registry.obj
 0001:00014c10       _ssGetInputPortSignalPtrsFcn 0000000180015c10 f   ex_DLModel_28_sfun_registry.obj
 0001:00014fc0       ssGetParameterTuningCompliance 0000000180015fc0 f   ex_DLModel_28_sfun_registry.obj
 0001:00015030       _ssReadInputStringFcn      0000000180016030 f   ex_DLModel_28_sfun_registry.obj
 0001:000150a0       ssGetDTypeIdFromMxArray    00000001800160a0 f   ex_DLModel_28_sfun_registry.obj
 0001:000151c0       ssWriteRTWMx2dMatParam     00000001800161c0 f   ex_DLModel_28_sfun_registry.obj
 0001:00015250       ssWriteRTWMxVectParam      0000000180016250 f   ex_DLModel_28_sfun_registry.obj
 0001:000152d0       ssWriteRTWParameters       00000001800162d0 f   ex_DLModel_28_sfun_registry.obj
 0001:00015dd0       ssWriteRTWParamSettings    0000000180016dd0 f   ex_DLModel_28_sfun_registry.obj
 0001:00016b10       ssWriteRTWStr              0000000180017b10 f   ex_DLModel_28_sfun_registry.obj
 0001:00016b70       ssWriteRTWWorkVect         0000000180017b70 f   ex_DLModel_28_sfun_registry.obj
 0001:00017180       ssWarning                  0000000180018180 f   ex_DLModel_28_sfun_registry.obj
 0001:000172c0       ssGetRootSS                00000001800182c0 f   ex_DLModel_28_sfun_registry.obj
 0001:00017380       ssGetParentSS              0000000180018380 f   ex_DLModel_28_sfun_registry.obj
 0001:00017440       ssWriteRTWNameValuePair    0000000180018440 f   ex_DLModel_28_sfun_registry.obj
 0001:00017bc0       _ssSetInputPortMatrixDimensions 0000000180018bc0 f   ex_DLModel_28_sfun_registry.obj
 0001:00017d10       _ssSetOutputPortMatrixDimensions 0000000180018d10 f   ex_DLModel_28_sfun_registry.obj
 0001:00017e60       _ssSetInputPortVectorDimension 0000000180018e60 f   ex_DLModel_28_sfun_registry.obj
 0001:00017f10       _ssSetOutputPortVectorDimension 0000000180018f10 f   ex_DLModel_28_sfun_registry.obj
 0001:00017fc0       ssIsRunTimeParamTunable    0000000180018fc0 f   ex_DLModel_28_sfun_registry.obj
 0001:00018030       ssGetSFuncBlockHandle      0000000180019030 f   ex_DLModel_28_sfun_registry.obj
 0001:000180a0       _ssGetCallSystemNumFcnCallDestinations 00000001800190a0 f   ex_DLModel_28_sfun_registry.obj
 0001:00018110       _ssGetCurrentInputPortWidth 0000000180019110 f   ex_DLModel_28_sfun_registry.obj
 0001:00018250       _ssGetCurrentOutputPortWidth 0000000180019250 f   ex_DLModel_28_sfun_registry.obj
 0001:00018390       ssGetIsZeroCrossControlDisabled 0000000180019390 f   ex_DLModel_28_sfun_registry.obj
 0001:00018400       ssSetIsInputPortUsedForContZcSignal 0000000180019400 f   ex_DLModel_28_sfun_registry.obj
 0001:00018470       ssSetZcSignalIsZcElementDisc 0000000180019470 f   ex_DLModel_28_sfun_registry.obj
 0001:00018520       ssSetZcSignalName          0000000180019520 f   ex_DLModel_28_sfun_registry.obj
 0001:00018590       ssSetZcSignalWidth         0000000180019590 f   ex_DLModel_28_sfun_registry.obj
 0001:00018600       ssSetZcSignalZcEventType   0000000180019600 f   ex_DLModel_28_sfun_registry.obj
 0001:00018670       ssSetZcSignalType          0000000180019670 f   ex_DLModel_28_sfun_registry.obj
 0001:000186e0       ssSetZcSignalZcTol         00000001800196e0 f   ex_DLModel_28_sfun_registry.obj
 0001:00018750       ssSetZcSignalNeedsEventNotification 0000000180019750 f   ex_DLModel_28_sfun_registry.obj
 0001:000187c0       ssCreateAndAddZcSignalInfo 00000001800197c0 f   ex_DLModel_28_sfun_registry.obj
 0001:00018830       ssCloneAndAddZcSignalInfo  0000000180019830 f   ex_DLModel_28_sfun_registry.obj
 0001:000188a0       ssGetNumZcSignals          00000001800198a0 f   ex_DLModel_28_sfun_registry.obj
 0001:00018910       ssGetZcSignalVector        0000000180019910 f   ex_DLModel_28_sfun_registry.obj
 0001:00018980       ssGetZcSignalName          0000000180019980 f   ex_DLModel_28_sfun_registry.obj
 0001:000189f0       ssGetZcSignalWidth         00000001800199f0 f   ex_DLModel_28_sfun_registry.obj
 0001:00018a60       ssGetZcSignalZcEventType   0000000180019a60 f   ex_DLModel_28_sfun_registry.obj
 0001:00018ad0       ssGetZcSignalZcEvents      0000000180019ad0 f   ex_DLModel_28_sfun_registry.obj
 0001:00018b40       ssGetZcSignalType          0000000180019b40 f   ex_DLModel_28_sfun_registry.obj
 0001:00018bb0       ssGetZcSignalZcTol         0000000180019bb0 f   ex_DLModel_28_sfun_registry.obj
 0001:00018c30       ssGetZcSignalNeedsEventNotification 0000000180019c30 f   ex_DLModel_28_sfun_registry.obj
 0001:00018ca0       ssGetZcSignalIsZcElementDisc 0000000180019ca0 f   ex_DLModel_28_sfun_registry.obj
 0001:00018d40       ssGetIsInputPortElementContinuous 0000000180019d40 f   ex_DLModel_28_sfun_registry.obj
 0001:00018de0       _ssGetAbsTol               0000000180019de0 f   ex_DLModel_28_sfun_registry.obj
 0001:00018e50       _ssSetStateAbsTol          0000000180019e50 f   ex_DLModel_28_sfun_registry.obj
 0001:00018f30       _ssSetInputPortReusableFcn 0000000180019f30 f   ex_DLModel_28_sfun_registry.obj
 0001:00019040       _ssSetOutputPortReusableFcn 000000018001a040 f   ex_DLModel_28_sfun_registry.obj
 0001:00019150       _ssSetSymbolicDimsSupport  000000018001a150 f   ex_DLModel_28_sfun_registry.obj
 0001:000191c0       _ssRegisterSymbolicDimsExpr 000000018001a1c0 f   ex_DLModel_28_sfun_registry.obj
 0001:00019240       _ssRegisterSymbolicDimsMATLABExpr 000000018001a240 f   ex_DLModel_28_sfun_registry.obj
 0001:000192d0       _ssRegisterSymbolicDims    000000018001a2d0 f   ex_DLModel_28_sfun_registry.obj
 0001:00019370       _ssRegisterSymbolicDimsString 000000018001a370 f   ex_DLModel_28_sfun_registry.obj
 0001:000193f0       _ssRegisterSymbolicDimsIntValue 000000018001a3f0 f   ex_DLModel_28_sfun_registry.obj
 0001:00019460       _ssRegisterSymbolicEqualRelation 000000018001a460 f   ex_DLModel_28_sfun_registry.obj
 0001:000194d0       _ssRegisterSymbolicEqualValue 000000018001a4d0 f   ex_DLModel_28_sfun_registry.obj
 0001:00019540       _ssAmendLeadingSymbolicDims 000000018001a540 f   ex_DLModel_28_sfun_registry.obj
 0001:000195c0       _ssAmendTrailingSymbolicDims 000000018001a5c0 f   ex_DLModel_28_sfun_registry.obj
 0001:00019640       _ssRegisterSymbolicDimsPlus 000000018001a640 f   ex_DLModel_28_sfun_registry.obj
 0001:000196c0       _ssRegisterSymbolicDimsMinus 000000018001a6c0 f   ex_DLModel_28_sfun_registry.obj
 0001:00019740       _ssRegisterSymbolicDimsMultiply 000000018001a740 f   ex_DLModel_28_sfun_registry.obj
 0001:000197c0       _ssRegisterSymbolicDimsDivide 000000018001a7c0 f   ex_DLModel_28_sfun_registry.obj
 0001:00019840       _ssGetNumSymbolicDims      000000018001a840 f   ex_DLModel_28_sfun_registry.obj
 0001:000198b0       _ssGetSymbolicDim          000000018001a8b0 f   ex_DLModel_28_sfun_registry.obj
 0001:00019930       _ssSetInputPortSymbolicDimsId 000000018001a930 f   ex_DLModel_28_sfun_registry.obj
 0001:000199a0       _ssGetCompInputPortSymbolicDimsId 000000018001a9a0 f   ex_DLModel_28_sfun_registry.obj
 0001:00019a10       _ssSetCompInputPortSymbolicDimsId 000000018001aa10 f   ex_DLModel_28_sfun_registry.obj
 0001:00019a80       _ssSetOutputPortSymbolicDimsId 000000018001aa80 f   ex_DLModel_28_sfun_registry.obj
 0001:00019af0       _ssGetCompOutputPortSymbolicDimsId 000000018001aaf0 f   ex_DLModel_28_sfun_registry.obj
 0001:00019b60       _ssSetCompOutputPortSymbolicDimsId 000000018001ab60 f   ex_DLModel_28_sfun_registry.obj
 0001:00019bd0       _ssGetDWorkSymbolicDimsId  000000018001abd0 f   ex_DLModel_28_sfun_registry.obj
 0001:00019c40       _ssSetDWorkSymbolicDimsId  000000018001ac40 f   ex_DLModel_28_sfun_registry.obj
 0001:00019cb0       _ssGetCompDWorkSymbolicDimsId 000000018001acb0 f   ex_DLModel_28_sfun_registry.obj
 0001:00019d20       _ssSetCompDWorkSymbolicDimsId 000000018001ad20 f   ex_DLModel_28_sfun_registry.obj
 0001:00019d90       _ssCreateSLCGStringBuffer  000000018001ad90 f   ex_DLModel_28_sfun_registry.obj
 0001:00019e00       _ssAddToSLCGStringBuffer   000000018001ae00 f   ex_DLModel_28_sfun_registry.obj
 0001:00019e70       _ssGetPointerContainedData 000000018001ae70 f   ex_DLModel_28_sfun_registry.obj
 0001:00019f00       _ssGetPointerContainedDataWidth 000000018001af00 f   ex_DLModel_28_sfun_registry.obj
 0001:00019f90       _ssRegisterDynamicArrayDataTypeFcn 000000018001af90 f   ex_DLModel_28_sfun_registry.obj
 0001:0001a030       _ssGetDynamicArrayContainedDataCurrentWidthFcn 000000018001b030 f   ex_DLModel_28_sfun_registry.obj
 0001:0001a100       _ssGetDynamicArrayContainedDataFcn 000000018001b100 f   ex_DLModel_28_sfun_registry.obj
 0001:0001a1d0       _ssGetInputPortDynamicArrayDataFcn 000000018001b1d0 f   ex_DLModel_28_sfun_registry.obj
 0001:0001a290       _ssGetOutputPortDynamicArrayDataFcn 000000018001b290 f   ex_DLModel_28_sfun_registry.obj
 0001:0001a350       _ssGetInputPortDynamicArrayContainedDataFcn 000000018001b350 f   ex_DLModel_28_sfun_registry.obj
 0001:0001a410       _ssGetOutputPortDynamicArrayContainedDataFcn 000000018001b410 f   ex_DLModel_28_sfun_registry.obj
 0001:0001a4d0       _ssGetDynamicArrayDWorkContainedDataFcn 000000018001b4d0 f   ex_DLModel_28_sfun_registry.obj
 0001:0001a590       ?sf_process_check_sum_call@@YAIHQEAPEAUmxArray_tag@@HQEAPEBU1@@Z 000000018001b590 f   ex_DLModel_28_sfun_registry.obj
 0001:0001a5e0       ?sf_process_get_third_party_uses_info_call@@YAIHQEAPEAUmxArray_tag@@HQEAPEBU1@@Z 000000018001b5e0 f   ex_DLModel_28_sfun_registry.obj
 0001:0001a810       ?sf_process_get_jit_fallback_info_call@@YAIHQEAPEAUmxArray_tag@@HQEAPEBU1@@Z 000000018001b810 f   ex_DLModel_28_sfun_registry.obj
 0001:0001aa40       ?sf_process_get_post_codegen_info_call@@YAIHQEAPEAUmxArray_tag@@HQEAPEBU1@@Z 000000018001ba40 f   ex_DLModel_28_sfun_registry.obj
 0001:0001ac70       ?sf_process_get_updateBuildInfo_args_info_call@@YAIHQEAPEAUmxArray_tag@@HQEAPEBU1@@Z 000000018001bc70 f   ex_DLModel_28_sfun_registry.obj
 0001:0001aea0       ?sf_process_get_eml_resolved_functions_info_call@@YAIHQEAPEAUmxArray_tag@@HQEAPEBU1@@Z 000000018001bea0 f   ex_DLModel_28_sfun_registry.obj
 0001:0001b0d0       ?sf_mex_unlock_call@@YAIHQEAPEAUmxArray_tag@@HQEAPEBU1@@Z 000000018001c0d0 f   ex_DLModel_28_sfun_registry.obj
 0001:0001b2f0       ?sf_machine_global_initializer_called@@YAIXZ 000000018001c2f0 f   ex_DLModel_28_sfun_registry.obj
 0001:0001b320       sf_machine_global_method_dispatcher 000000018001c320 f   ex_DLModel_28_sfun_registry.obj
 0001:0001b380       sf_machine_global_terminator 000000018001c380 f   ex_DLModel_28_sfun_registry.obj
 0001:0001b3b0       callCustomFcn              000000018001c3b0 f   ex_DLModel_28_sfun_registry.obj
 0001:0001b3c0       sf_machine_global_initializer 000000018001c3c0 f   ex_DLModel_28_sfun_registry.obj
 0001:0001b3f0       ?mdlGetSimState@@YAPEAUmxArray_tag@@PEAUSimStruct_tag@@@Z 000000018001c3f0 f   ex_DLModel_28_sfun_registry.obj
 0001:0001b430       ?mdlSetSimState@@YAXPEAUSimStruct_tag@@PEBUmxArray_tag@@@Z 000000018001c430 f   ex_DLModel_28_sfun_registry.obj
 0001:0001be00       ?ProcessMexSfunctionEveryCall@@YAIHQEAPEAUmxArray_tag@@HQEAPEBU1@@Z 000000018001ce00 f   ex_DLModel_28_sfun_registry.obj
 0001:0001d050       __local_stdio_printf_options 000000018001e050 f i ex_DLModel_28_sfun_registry.obj
 0001:0001d060       snprintf                   000000018001e060 f i ex_DLModel_28_sfun_registry.obj
 0001:0001d0c0       vsnprintf                  000000018001e0c0 f i ex_DLModel_28_sfun_registry.obj
 0001:0001d670       ?allocate@c1_c1_Yolov9t0_ex_DLModel_280@@AEAAXXZ 000000018001e670 f   c1_ex_DLModel_28.obj
 0001:0001d740       ?postsetup@c1_c1_Yolov9t0_ex_DLModel_280@@AEAAXXZ 000000018001e740 f   c1_ex_DLModel_28.obj
 0001:0001d780       ??0c1_c1_Yolov9t0_ex_DLModel_280@@QEAA@XZ 000000018001e780 f   c1_ex_DLModel_28.obj
 0001:00038730       ?deallocate@c1_c1_Yolov9t0_ex_DLModel_280@@AEAAXXZ 0000000180039730 f   c1_ex_DLModel_28.obj
 0001:000387a0       ?setSize@c1_c1_Yolov9t0_ex_DLModel_280@@QEAAXXZ 00000001800397a0 f   c1_ex_DLModel_28.obj
 0001:00038810       ?resetState@c1_c1_Yolov9t0_ex_DLModel_280@@QEAAXXZ 0000000180039810 f   c1_ex_DLModel_28.obj
 0001:00038820       ?setup@c1_c1_Yolov9t0_ex_DLModel_280@@QEAAXPEAUSFc1_ex_DLModel_28InstanceStruct@@@Z 0000000180039820 f   c1_ex_DLModel_28.obj
 0001:00057810       ?activations@c1_c1_Yolov9t0_ex_DLModel_280@@QEAAXH@Z 0000000180058810 f   c1_ex_DLModel_28.obj
 0001:00057870       ?cleanup@c1_c1_Yolov9t0_ex_DLModel_280@@QEAAXXZ 0000000180058870 f   c1_ex_DLModel_28.obj
 0001:00057930       ?getLayerOutput@c1_c1_Yolov9t0_ex_DLModel_280@@QEAAPEAMHH@Z 0000000180058930 f   c1_ex_DLModel_28.obj
 0001:00057970       ?getLayerOutputSize@c1_c1_Yolov9t0_ex_DLModel_280@@QEAAHHH@Z 0000000180058970 f   c1_ex_DLModel_28.obj
 0001:000579c0       ?getInputDataPointer@c1_c1_Yolov9t0_ex_DLModel_280@@QEAAPEAMH@Z 00000001800589c0 f   c1_ex_DLModel_28.obj
 0001:000579f0       ?getInputDataPointer@c1_c1_Yolov9t0_ex_DLModel_280@@QEAAPEAMXZ 00000001800589f0 f   c1_ex_DLModel_28.obj
 0001:00057a20       ?getOutputDataPointer@c1_c1_Yolov9t0_ex_DLModel_280@@QEAAPEAMH@Z 0000000180058a20 f   c1_ex_DLModel_28.obj
 0001:00057a50       ?getOutputDataPointer@c1_c1_Yolov9t0_ex_DLModel_280@@QEAAPEAMXZ 0000000180058a50 f   c1_ex_DLModel_28.obj
 0001:00057a80       ?getBatchSize@c1_c1_Yolov9t0_ex_DLModel_280@@QEAAHXZ 0000000180058a80 f   c1_ex_DLModel_28.obj
 0001:00057ab0       ?getOutputSequenceLength@c1_c1_Yolov9t0_ex_DLModel_280@@QEAAHHH@Z 0000000180058ab0 f   c1_ex_DLModel_28.obj
 0001:00057b00       ??1c1_c1_Yolov9t0_ex_DLModel_280@@QEAA@XZ 0000000180058b00 f   c1_ex_DLModel_28.obj
 0001:00057c20       ??0c1_MWSwishLayer_c1_Yolov9t0_ex_DLModel_2801@@QEAA@XZ 0000000180058c20 f   c1_ex_DLModel_28.obj
 0001:00057c60       ?c1_createCustomLayer@c1_MWSwishLayer_c1_Yolov9t0_ex_DLModel_2801@@QEAAXPEAVMWTargetNetworkImpl@MWCudnnTarget@@PEAVMWTensorBase@@PEBD22QEAPEBD32H@Z 0000000180058c60 f   c1_ex_DLModel_28.obj
 0001:00057cd0       ?propagateSize@c1_MWSwishLayer_c1_Yolov9t0_ex_DLModel_2801@@UEAAXXZ 0000000180058cd0 f   c1_ex_DLModel_28.obj
 0001:00057d80       ?cleanupLayer@c1_MWSwishLayer_c1_Yolov9t0_ex_DLModel_2801@@UEAAXXZ 0000000180058d80 f   c1_ex_DLModel_28.obj
 0001:00057d90       ?predict@c1_MWSwishLayer_c1_Yolov9t0_ex_DLModel_2801@@UEAAXXZ 0000000180058d90 f   c1_ex_DLModel_28.obj
 0001:00057e00       ?setChartInstancePtr@c1_MWSwishLayer_c1_Yolov9t0_ex_DLModel_2801@@QEAAXPEAUSFc1_ex_DLModel_28InstanceStruct@@@Z 0000000180058e00 f   c1_ex_DLModel_28.obj
 0001:00057e30       ??0c1_MWSwishLayer_c1_Yolov9t0_ex_DLModel_2802@@QEAA@XZ 0000000180058e30 f   c1_ex_DLModel_28.obj
 0001:00057e70       ?c1_createCustomLayer@c1_MWSwishLayer_c1_Yolov9t0_ex_DLModel_2802@@QEAAXPEAVMWTargetNetworkImpl@MWCudnnTarget@@PEAVMWTensorBase@@PEBD22QEAPEBD32H@Z 0000000180058e70 f   c1_ex_DLModel_28.obj
 0001:00057ee0       ?propagateSize@c1_MWSwishLayer_c1_Yolov9t0_ex_DLModel_2802@@UEAAXXZ 0000000180058ee0 f   c1_ex_DLModel_28.obj
 0001:00057f90       ?cleanupLayer@c1_MWSwishLayer_c1_Yolov9t0_ex_DLModel_2802@@UEAAXXZ 0000000180058f90 f   c1_ex_DLModel_28.obj
 0001:00057fa0       ?predict@c1_MWSwishLayer_c1_Yolov9t0_ex_DLModel_2802@@UEAAXXZ 0000000180058fa0 f   c1_ex_DLModel_28.obj
 0001:00058010       ?setChartInstancePtr@c1_MWSwishLayer_c1_Yolov9t0_ex_DLModel_2802@@QEAAXPEAUSFc1_ex_DLModel_28InstanceStruct@@@Z 0000000180059010 f   c1_ex_DLModel_28.obj
 0001:00058040       ??0c1_MWSwishLayer_c1_Yolov9t0_ex_DLModel_2803@@QEAA@XZ 0000000180059040 f   c1_ex_DLModel_28.obj
 0001:00058080       ?c1_createCustomLayer@c1_MWSwishLayer_c1_Yolov9t0_ex_DLModel_2803@@QEAAXPEAVMWTargetNetworkImpl@MWCudnnTarget@@PEAVMWTensorBase@@PEBD22QEAPEBD32H@Z 0000000180059080 f   c1_ex_DLModel_28.obj
 0001:000580f0       ?propagateSize@c1_MWSwishLayer_c1_Yolov9t0_ex_DLModel_2803@@UEAAXXZ 00000001800590f0 f   c1_ex_DLModel_28.obj
 0001:000581a0       ?cleanupLayer@c1_MWSwishLayer_c1_Yolov9t0_ex_DLModel_2803@@UEAAXXZ 00000001800591a0 f   c1_ex_DLModel_28.obj
 0001:000581b0       ?predict@c1_MWSwishLayer_c1_Yolov9t0_ex_DLModel_2803@@UEAAXXZ 00000001800591b0 f   c1_ex_DLModel_28.obj
 0001:00058220       ?setChartInstancePtr@c1_MWSwishLayer_c1_Yolov9t0_ex_DLModel_2803@@QEAAXPEAUSFc1_ex_DLModel_28InstanceStruct@@@Z 0000000180059220 f   c1_ex_DLModel_28.obj
 0001:00058250       ??0c1_MWCustomSliceLayer_c1_Yolov9t0_ex_DLModel_2801@@QEAA@XZ 0000000180059250 f   c1_ex_DLModel_28.obj
 0001:00058290       ?c1_createCustomLayer@c1_MWCustomSliceLayer_c1_Yolov9t0_ex_DLModel_2801@@QEAAXPEAVMWTargetNetworkImpl@MWCudnnTarget@@PEAVMWTensorBase@@PEBDQEAPEBD322HH@Z 0000000180059290 f   c1_ex_DLModel_28.obj
 0001:00058310       ?propagateSize@c1_MWCustomSliceLayer_c1_Yolov9t0_ex_DLModel_2801@@UEAAXXZ 0000000180059310 f   c1_ex_DLModel_28.obj
 0001:00058510       ?cleanupLayer@c1_MWCustomSliceLayer_c1_Yolov9t0_ex_DLModel_2801@@UEAAXXZ 0000000180059510 f   c1_ex_DLModel_28.obj
 0001:00058520       ?predict@c1_MWCustomSliceLayer_c1_Yolov9t0_ex_DLModel_2801@@UEAAXXZ 0000000180059520 f   c1_ex_DLModel_28.obj
 0001:00058600       ?setChartInstancePtr@c1_MWCustomSliceLayer_c1_Yolov9t0_ex_DLModel_2801@@QEAAXPEAUSFc1_ex_DLModel_28InstanceStruct@@@Z 0000000180059600 f   c1_ex_DLModel_28.obj
 0001:00058630       ??0c1_MWSwishLayer_c1_Yolov9t0_ex_DLModel_2804@@QEAA@XZ 0000000180059630 f   c1_ex_DLModel_28.obj
 0001:00058670       ?c1_createCustomLayer@c1_MWSwishLayer_c1_Yolov9t0_ex_DLModel_2804@@QEAAXPEAVMWTargetNetworkImpl@MWCudnnTarget@@PEAVMWTensorBase@@PEBD22QEAPEBD32H@Z 0000000180059670 f   c1_ex_DLModel_28.obj
 0001:000586e0       ?propagateSize@c1_MWSwishLayer_c1_Yolov9t0_ex_DLModel_2804@@UEAAXXZ 00000001800596e0 f   c1_ex_DLModel_28.obj
 0001:00058790       ?cleanupLayer@c1_MWSwishLayer_c1_Yolov9t0_ex_DLModel_2804@@UEAAXXZ 0000000180059790 f   c1_ex_DLModel_28.obj
 0001:000587a0       ?predict@c1_MWSwishLayer_c1_Yolov9t0_ex_DLModel_2804@@UEAAXXZ 00000001800597a0 f   c1_ex_DLModel_28.obj
 0001:00058810       ?setChartInstancePtr@c1_MWSwishLayer_c1_Yolov9t0_ex_DLModel_2804@@QEAAXPEAUSFc1_ex_DLModel_28InstanceStruct@@@Z 0000000180059810 f   c1_ex_DLModel_28.obj
 0001:00058840       ??0c1_MWSwishLayer_c1_Yolov9t0_ex_DLModel_2805@@QEAA@XZ 0000000180059840 f   c1_ex_DLModel_28.obj
 0001:00058880       ?c1_createCustomLayer@c1_MWSwishLayer_c1_Yolov9t0_ex_DLModel_2805@@QEAAXPEAVMWTargetNetworkImpl@MWCudnnTarget@@PEAVMWTensorBase@@PEBD22QEAPEBD32H@Z 0000000180059880 f   c1_ex_DLModel_28.obj
 0001:000588f0       ?propagateSize@c1_MWSwishLayer_c1_Yolov9t0_ex_DLModel_2805@@UEAAXXZ 00000001800598f0 f   c1_ex_DLModel_28.obj
 0001:000589a0       ?cleanupLayer@c1_MWSwishLayer_c1_Yolov9t0_ex_DLModel_2805@@UEAAXXZ 00000001800599a0 f   c1_ex_DLModel_28.obj
 0001:000589b0       ?predict@c1_MWSwishLayer_c1_Yolov9t0_ex_DLModel_2805@@UEAAXXZ 00000001800599b0 f   c1_ex_DLModel_28.obj
 0001:00058a20       ?setChartInstancePtr@c1_MWSwishLayer_c1_Yolov9t0_ex_DLModel_2805@@QEAAXPEAUSFc1_ex_DLModel_28InstanceStruct@@@Z 0000000180059a20 f   c1_ex_DLModel_28.obj
 0001:00058a50       ??0c1_MWSwishLayer_c1_Yolov9t0_ex_DLModel_2806@@QEAA@XZ 0000000180059a50 f   c1_ex_DLModel_28.obj
 0001:00058a90       ?c1_createCustomLayer@c1_MWSwishLayer_c1_Yolov9t0_ex_DLModel_2806@@QEAAXPEAVMWTargetNetworkImpl@MWCudnnTarget@@PEAVMWTensorBase@@PEBD22QEAPEBD32H@Z 0000000180059a90 f   c1_ex_DLModel_28.obj
 0001:00058b00       ?propagateSize@c1_MWSwishLayer_c1_Yolov9t0_ex_DLModel_2806@@UEAAXXZ 0000000180059b00 f   c1_ex_DLModel_28.obj
 0001:00058bb0       ?cleanupLayer@c1_MWSwishLayer_c1_Yolov9t0_ex_DLModel_2806@@UEAAXXZ 0000000180059bb0 f   c1_ex_DLModel_28.obj
 0001:00058bc0       ?predict@c1_MWSwishLayer_c1_Yolov9t0_ex_DLModel_2806@@UEAAXXZ 0000000180059bc0 f   c1_ex_DLModel_28.obj
 0001:00058c30       ?setChartInstancePtr@c1_MWSwishLayer_c1_Yolov9t0_ex_DLModel_2806@@QEAAXPEAUSFc1_ex_DLModel_28InstanceStruct@@@Z 0000000180059c30 f   c1_ex_DLModel_28.obj
 0001:00058c60       ??0c1_MWSwishLayer_c1_Yolov9t0_ex_DLModel_2807@@QEAA@XZ 0000000180059c60 f   c1_ex_DLModel_28.obj
 0001:00058ca0       ?c1_createCustomLayer@c1_MWSwishLayer_c1_Yolov9t0_ex_DLModel_2807@@QEAAXPEAVMWTargetNetworkImpl@MWCudnnTarget@@PEAVMWTensorBase@@PEBD22QEAPEBD32H@Z 0000000180059ca0 f   c1_ex_DLModel_28.obj
 0001:00058d10       ?propagateSize@c1_MWSwishLayer_c1_Yolov9t0_ex_DLModel_2807@@UEAAXXZ 0000000180059d10 f   c1_ex_DLModel_28.obj
 0001:00058dc0       ?cleanupLayer@c1_MWSwishLayer_c1_Yolov9t0_ex_DLModel_2807@@UEAAXXZ 0000000180059dc0 f   c1_ex_DLModel_28.obj
 0001:00058dd0       ?predict@c1_MWSwishLayer_c1_Yolov9t0_ex_DLModel_2807@@UEAAXXZ 0000000180059dd0 f   c1_ex_DLModel_28.obj
 0001:00058e40       ?setChartInstancePtr@c1_MWSwishLayer_c1_Yolov9t0_ex_DLModel_2807@@QEAAXPEAUSFc1_ex_DLModel_28InstanceStruct@@@Z 0000000180059e40 f   c1_ex_DLModel_28.obj
 0001:00058e70       ??0c1_MWSwishLayer_c1_Yolov9t0_ex_DLModel_2808@@QEAA@XZ 0000000180059e70 f   c1_ex_DLModel_28.obj
 0001:00058eb0       ?c1_createCustomLayer@c1_MWSwishLayer_c1_Yolov9t0_ex_DLModel_2808@@QEAAXPEAVMWTargetNetworkImpl@MWCudnnTarget@@PEAVMWTensorBase@@PEBD22QEAPEBD32H@Z 0000000180059eb0 f   c1_ex_DLModel_28.obj
 0001:00058f20       ?propagateSize@c1_MWSwishLayer_c1_Yolov9t0_ex_DLModel_2808@@UEAAXXZ 0000000180059f20 f   c1_ex_DLModel_28.obj
 0001:00058fd0       ?cleanupLayer@c1_MWSwishLayer_c1_Yolov9t0_ex_DLModel_2808@@UEAAXXZ 0000000180059fd0 f   c1_ex_DLModel_28.obj
 0001:00058fe0       ?predict@c1_MWSwishLayer_c1_Yolov9t0_ex_DLModel_2808@@UEAAXXZ 0000000180059fe0 f   c1_ex_DLModel_28.obj
 0001:00059050       ?setChartInstancePtr@c1_MWSwishLayer_c1_Yolov9t0_ex_DLModel_2808@@QEAAXPEAUSFc1_ex_DLModel_28InstanceStruct@@@Z 000000018005a050 f   c1_ex_DLModel_28.obj
 0001:00059080       ??0c1_MWCustomSliceLayer_c1_Yolov9t0_ex_DLModel_2802@@QEAA@XZ 000000018005a080 f   c1_ex_DLModel_28.obj
 0001:000590c0       ?c1_createCustomLayer@c1_MWCustomSliceLayer_c1_Yolov9t0_ex_DLModel_2802@@QEAAXPEAVMWTargetNetworkImpl@MWCudnnTarget@@PEAVMWTensorBase@@PEBDQEAPEBD322HH@Z 000000018005a0c0 f   c1_ex_DLModel_28.obj
 0001:00059140       ?propagateSize@c1_MWCustomSliceLayer_c1_Yolov9t0_ex_DLModel_2802@@UEAAXXZ 000000018005a140 f   c1_ex_DLModel_28.obj
 0001:00059340       ?cleanupLayer@c1_MWCustomSliceLayer_c1_Yolov9t0_ex_DLModel_2802@@UEAAXXZ 000000018005a340 f   c1_ex_DLModel_28.obj
 0001:00059350       ?predict@c1_MWCustomSliceLayer_c1_Yolov9t0_ex_DLModel_2802@@UEAAXXZ 000000018005a350 f   c1_ex_DLModel_28.obj
 0001:00059430       ?setChartInstancePtr@c1_MWCustomSliceLayer_c1_Yolov9t0_ex_DLModel_2802@@QEAAXPEAUSFc1_ex_DLModel_28InstanceStruct@@@Z 000000018005a430 f   c1_ex_DLModel_28.obj
 0001:00059460       ??0c1_MWSwishLayer_c1_Yolov9t0_ex_DLModel_2809@@QEAA@XZ 000000018005a460 f   c1_ex_DLModel_28.obj
 0001:000594a0       ?c1_createCustomLayer@c1_MWSwishLayer_c1_Yolov9t0_ex_DLModel_2809@@QEAAXPEAVMWTargetNetworkImpl@MWCudnnTarget@@PEAVMWTensorBase@@PEBD22QEAPEBD32H@Z 000000018005a4a0 f   c1_ex_DLModel_28.obj
 0001:00059510       ?propagateSize@c1_MWSwishLayer_c1_Yolov9t0_ex_DLModel_2809@@UEAAXXZ 000000018005a510 f   c1_ex_DLModel_28.obj
 0001:000595c0       ?cleanupLayer@c1_MWSwishLayer_c1_Yolov9t0_ex_DLModel_2809@@UEAAXXZ 000000018005a5c0 f   c1_ex_DLModel_28.obj
 0001:000595d0       ?predict@c1_MWSwishLayer_c1_Yolov9t0_ex_DLModel_2809@@UEAAXXZ 000000018005a5d0 f   c1_ex_DLModel_28.obj
 0001:00059640       ?setChartInstancePtr@c1_MWSwishLayer_c1_Yolov9t0_ex_DLModel_2809@@QEAAXPEAUSFc1_ex_DLModel_28InstanceStruct@@@Z 000000018005a640 f   c1_ex_DLModel_28.obj
 0001:00059670       ??0c1_MWSwishLayer_c1_Yolov9t0_ex_DLModel_28010@@QEAA@XZ 000000018005a670 f   c1_ex_DLModel_28.obj
 0001:000596b0       ?c1_createCustomLayer@c1_MWSwishLayer_c1_Yolov9t0_ex_DLModel_28010@@QEAAXPEAVMWTargetNetworkImpl@MWCudnnTarget@@PEAVMWTensorBase@@PEBD22QEAPEBD32H@Z 000000018005a6b0 f   c1_ex_DLModel_28.obj
 0001:00059720       ?propagateSize@c1_MWSwishLayer_c1_Yolov9t0_ex_DLModel_28010@@UEAAXXZ 000000018005a720 f   c1_ex_DLModel_28.obj
 0001:000597d0       ?cleanupLayer@c1_MWSwishLayer_c1_Yolov9t0_ex_DLModel_28010@@UEAAXXZ 000000018005a7d0 f   c1_ex_DLModel_28.obj
 0001:000597e0       ?predict@c1_MWSwishLayer_c1_Yolov9t0_ex_DLModel_28010@@UEAAXXZ 000000018005a7e0 f   c1_ex_DLModel_28.obj
 0001:00059850       ?setChartInstancePtr@c1_MWSwishLayer_c1_Yolov9t0_ex_DLModel_28010@@QEAAXPEAUSFc1_ex_DLModel_28InstanceStruct@@@Z 000000018005a850 f   c1_ex_DLModel_28.obj
 0001:00059880       ??0c1_MWSwishLayer_c1_Yolov9t0_ex_DLModel_28011@@QEAA@XZ 000000018005a880 f   c1_ex_DLModel_28.obj
 0001:000598c0       ?c1_createCustomLayer@c1_MWSwishLayer_c1_Yolov9t0_ex_DLModel_28011@@QEAAXPEAVMWTargetNetworkImpl@MWCudnnTarget@@PEAVMWTensorBase@@PEBD22QEAPEBD32H@Z 000000018005a8c0 f   c1_ex_DLModel_28.obj
 0001:00059930       ?propagateSize@c1_MWSwishLayer_c1_Yolov9t0_ex_DLModel_28011@@UEAAXXZ 000000018005a930 f   c1_ex_DLModel_28.obj
 0001:000599e0       ?cleanupLayer@c1_MWSwishLayer_c1_Yolov9t0_ex_DLModel_28011@@UEAAXXZ 000000018005a9e0 f   c1_ex_DLModel_28.obj
 0001:000599f0       ?predict@c1_MWSwishLayer_c1_Yolov9t0_ex_DLModel_28011@@UEAAXXZ 000000018005a9f0 f   c1_ex_DLModel_28.obj
 0001:00059a60       ?setChartInstancePtr@c1_MWSwishLayer_c1_Yolov9t0_ex_DLModel_28011@@QEAAXPEAUSFc1_ex_DLModel_28InstanceStruct@@@Z 000000018005aa60 f   c1_ex_DLModel_28.obj
 0001:00059a90       ??0c1_MWSwishLayer_c1_Yolov9t0_ex_DLModel_28012@@QEAA@XZ 000000018005aa90 f   c1_ex_DLModel_28.obj
 0001:00059ad0       ?c1_createCustomLayer@c1_MWSwishLayer_c1_Yolov9t0_ex_DLModel_28012@@QEAAXPEAVMWTargetNetworkImpl@MWCudnnTarget@@PEAVMWTensorBase@@PEBD22QEAPEBD32H@Z 000000018005aad0 f   c1_ex_DLModel_28.obj
 0001:00059b40       ?propagateSize@c1_MWSwishLayer_c1_Yolov9t0_ex_DLModel_28012@@UEAAXXZ 000000018005ab40 f   c1_ex_DLModel_28.obj
 0001:00059bf0       ?cleanupLayer@c1_MWSwishLayer_c1_Yolov9t0_ex_DLModel_28012@@UEAAXXZ 000000018005abf0 f   c1_ex_DLModel_28.obj
 0001:00059c00       ?predict@c1_MWSwishLayer_c1_Yolov9t0_ex_DLModel_28012@@UEAAXXZ 000000018005ac00 f   c1_ex_DLModel_28.obj
 0001:00059c70       ?setChartInstancePtr@c1_MWSwishLayer_c1_Yolov9t0_ex_DLModel_28012@@QEAAXPEAUSFc1_ex_DLModel_28InstanceStruct@@@Z 000000018005ac70 f   c1_ex_DLModel_28.obj
 0001:00059ca0       ??0c1_MWSwishLayer_c1_Yolov9t0_ex_DLModel_28013@@QEAA@XZ 000000018005aca0 f   c1_ex_DLModel_28.obj
 0001:00059ce0       ?c1_createCustomLayer@c1_MWSwishLayer_c1_Yolov9t0_ex_DLModel_28013@@QEAAXPEAVMWTargetNetworkImpl@MWCudnnTarget@@PEAVMWTensorBase@@PEBD22QEAPEBD32H@Z 000000018005ace0 f   c1_ex_DLModel_28.obj
 0001:00059d50       ?propagateSize@c1_MWSwishLayer_c1_Yolov9t0_ex_DLModel_28013@@UEAAXXZ 000000018005ad50 f   c1_ex_DLModel_28.obj
 0001:00059e00       ?cleanupLayer@c1_MWSwishLayer_c1_Yolov9t0_ex_DLModel_28013@@UEAAXXZ 000000018005ae00 f   c1_ex_DLModel_28.obj
 0001:00059e10       ?predict@c1_MWSwishLayer_c1_Yolov9t0_ex_DLModel_28013@@UEAAXXZ 000000018005ae10 f   c1_ex_DLModel_28.obj
 0001:00059e80       ?setChartInstancePtr@c1_MWSwishLayer_c1_Yolov9t0_ex_DLModel_28013@@QEAAXPEAUSFc1_ex_DLModel_28InstanceStruct@@@Z 000000018005ae80 f   c1_ex_DLModel_28.obj
 0001:00059eb0       ??0c1_MWSwishLayer_c1_Yolov9t0_ex_DLModel_28014@@QEAA@XZ 000000018005aeb0 f   c1_ex_DLModel_28.obj
 0001:00059ef0       ?c1_createCustomLayer@c1_MWSwishLayer_c1_Yolov9t0_ex_DLModel_28014@@QEAAXPEAVMWTargetNetworkImpl@MWCudnnTarget@@PEAVMWTensorBase@@PEBD22QEAPEBD32H@Z 000000018005aef0 f   c1_ex_DLModel_28.obj
 0001:00059f60       ?propagateSize@c1_MWSwishLayer_c1_Yolov9t0_ex_DLModel_28014@@UEAAXXZ 000000018005af60 f   c1_ex_DLModel_28.obj
 0001:0005a010       ?cleanupLayer@c1_MWSwishLayer_c1_Yolov9t0_ex_DLModel_28014@@UEAAXXZ 000000018005b010 f   c1_ex_DLModel_28.obj
 0001:0005a020       ?predict@c1_MWSwishLayer_c1_Yolov9t0_ex_DLModel_28014@@UEAAXXZ 000000018005b020 f   c1_ex_DLModel_28.obj
 0001:0005a090       ?setChartInstancePtr@c1_MWSwishLayer_c1_Yolov9t0_ex_DLModel_28014@@QEAAXPEAUSFc1_ex_DLModel_28InstanceStruct@@@Z 000000018005b090 f   c1_ex_DLModel_28.obj
 0001:0005a0c0       ??0c1_MWSwishLayer_c1_Yolov9t0_ex_DLModel_28015@@QEAA@XZ 000000018005b0c0 f   c1_ex_DLModel_28.obj
 0001:0005a100       ?c1_createCustomLayer@c1_MWSwishLayer_c1_Yolov9t0_ex_DLModel_28015@@QEAAXPEAVMWTargetNetworkImpl@MWCudnnTarget@@PEAVMWTensorBase@@PEBD22QEAPEBD32H@Z 000000018005b100 f   c1_ex_DLModel_28.obj
 0001:0005a170       ?propagateSize@c1_MWSwishLayer_c1_Yolov9t0_ex_DLModel_28015@@UEAAXXZ 000000018005b170 f   c1_ex_DLModel_28.obj
 0001:0005a220       ?cleanupLayer@c1_MWSwishLayer_c1_Yolov9t0_ex_DLModel_28015@@UEAAXXZ 000000018005b220 f   c1_ex_DLModel_28.obj
 0001:0005a230       ?predict@c1_MWSwishLayer_c1_Yolov9t0_ex_DLModel_28015@@UEAAXXZ 000000018005b230 f   c1_ex_DLModel_28.obj
 0001:0005a2a0       ?setChartInstancePtr@c1_MWSwishLayer_c1_Yolov9t0_ex_DLModel_28015@@QEAAXPEAUSFc1_ex_DLModel_28InstanceStruct@@@Z 000000018005b2a0 f   c1_ex_DLModel_28.obj
 0001:0005a2d0       ??0c1_MWSwishLayer_c1_Yolov9t0_ex_DLModel_28016@@QEAA@XZ 000000018005b2d0 f   c1_ex_DLModel_28.obj
 0001:0005a310       ?c1_createCustomLayer@c1_MWSwishLayer_c1_Yolov9t0_ex_DLModel_28016@@QEAAXPEAVMWTargetNetworkImpl@MWCudnnTarget@@PEAVMWTensorBase@@PEBD22QEAPEBD32H@Z 000000018005b310 f   c1_ex_DLModel_28.obj
 0001:0005a380       ?propagateSize@c1_MWSwishLayer_c1_Yolov9t0_ex_DLModel_28016@@UEAAXXZ 000000018005b380 f   c1_ex_DLModel_28.obj
 0001:0005a430       ?cleanupLayer@c1_MWSwishLayer_c1_Yolov9t0_ex_DLModel_28016@@UEAAXXZ 000000018005b430 f   c1_ex_DLModel_28.obj
 0001:0005a440       ?predict@c1_MWSwishLayer_c1_Yolov9t0_ex_DLModel_28016@@UEAAXXZ 000000018005b440 f   c1_ex_DLModel_28.obj
 0001:0005a4b0       ?setChartInstancePtr@c1_MWSwishLayer_c1_Yolov9t0_ex_DLModel_28016@@QEAAXPEAUSFc1_ex_DLModel_28InstanceStruct@@@Z 000000018005b4b0 f   c1_ex_DLModel_28.obj
 0001:0005a4e0       ??0c1_MWSwishLayer_c1_Yolov9t0_ex_DLModel_28017@@QEAA@XZ 000000018005b4e0 f   c1_ex_DLModel_28.obj
 0001:0005a520       ?c1_createCustomLayer@c1_MWSwishLayer_c1_Yolov9t0_ex_DLModel_28017@@QEAAXPEAVMWTargetNetworkImpl@MWCudnnTarget@@PEAVMWTensorBase@@PEBD22QEAPEBD32H@Z 000000018005b520 f   c1_ex_DLModel_28.obj
 0001:0005a590       ?propagateSize@c1_MWSwishLayer_c1_Yolov9t0_ex_DLModel_28017@@UEAAXXZ 000000018005b590 f   c1_ex_DLModel_28.obj
 0001:0005a640       ?cleanupLayer@c1_MWSwishLayer_c1_Yolov9t0_ex_DLModel_28017@@UEAAXXZ 000000018005b640 f   c1_ex_DLModel_28.obj
 0001:0005a650       ?predict@c1_MWSwishLayer_c1_Yolov9t0_ex_DLModel_28017@@UEAAXXZ 000000018005b650 f   c1_ex_DLModel_28.obj
 0001:0005a6c0       ?setChartInstancePtr@c1_MWSwishLayer_c1_Yolov9t0_ex_DLModel_28017@@QEAAXPEAUSFc1_ex_DLModel_28InstanceStruct@@@Z 000000018005b6c0 f   c1_ex_DLModel_28.obj
 0001:0005a6f0       ??0c1_MWSwishLayer_c1_Yolov9t0_ex_DLModel_28018@@QEAA@XZ 000000018005b6f0 f   c1_ex_DLModel_28.obj
 0001:0005a730       ?c1_createCustomLayer@c1_MWSwishLayer_c1_Yolov9t0_ex_DLModel_28018@@QEAAXPEAVMWTargetNetworkImpl@MWCudnnTarget@@PEAVMWTensorBase@@PEBD22QEAPEBD32H@Z 000000018005b730 f   c1_ex_DLModel_28.obj
 0001:0005a7a0       ?propagateSize@c1_MWSwishLayer_c1_Yolov9t0_ex_DLModel_28018@@UEAAXXZ 000000018005b7a0 f   c1_ex_DLModel_28.obj
 0001:0005a850       ?cleanupLayer@c1_MWSwishLayer_c1_Yolov9t0_ex_DLModel_28018@@UEAAXXZ 000000018005b850 f   c1_ex_DLModel_28.obj
 0001:0005a860       ?predict@c1_MWSwishLayer_c1_Yolov9t0_ex_DLModel_28018@@UEAAXXZ 000000018005b860 f   c1_ex_DLModel_28.obj
 0001:0005a8d0       ?setChartInstancePtr@c1_MWSwishLayer_c1_Yolov9t0_ex_DLModel_28018@@QEAAXPEAUSFc1_ex_DLModel_28InstanceStruct@@@Z 000000018005b8d0 f   c1_ex_DLModel_28.obj
 0001:0005a900       ??0c1_MWSwishLayer_c1_Yolov9t0_ex_DLModel_28019@@QEAA@XZ 000000018005b900 f   c1_ex_DLModel_28.obj
 0001:0005a940       ?c1_createCustomLayer@c1_MWSwishLayer_c1_Yolov9t0_ex_DLModel_28019@@QEAAXPEAVMWTargetNetworkImpl@MWCudnnTarget@@PEAVMWTensorBase@@PEBD22QEAPEBD32H@Z 000000018005b940 f   c1_ex_DLModel_28.obj
 0001:0005a9b0       ?propagateSize@c1_MWSwishLayer_c1_Yolov9t0_ex_DLModel_28019@@UEAAXXZ 000000018005b9b0 f   c1_ex_DLModel_28.obj
 0001:0005aa60       ?cleanupLayer@c1_MWSwishLayer_c1_Yolov9t0_ex_DLModel_28019@@UEAAXXZ 000000018005ba60 f   c1_ex_DLModel_28.obj
 0001:0005aa70       ?predict@c1_MWSwishLayer_c1_Yolov9t0_ex_DLModel_28019@@UEAAXXZ 000000018005ba70 f   c1_ex_DLModel_28.obj
 0001:0005aae0       ?setChartInstancePtr@c1_MWSwishLayer_c1_Yolov9t0_ex_DLModel_28019@@QEAAXPEAUSFc1_ex_DLModel_28InstanceStruct@@@Z 000000018005bae0 f   c1_ex_DLModel_28.obj
 0001:0005ab10       ??0c1_MWSwishLayer_c1_Yolov9t0_ex_DLModel_28020@@QEAA@XZ 000000018005bb10 f   c1_ex_DLModel_28.obj
 0001:0005ab50       ?c1_createCustomLayer@c1_MWSwishLayer_c1_Yolov9t0_ex_DLModel_28020@@QEAAXPEAVMWTargetNetworkImpl@MWCudnnTarget@@PEAVMWTensorBase@@PEBD22QEAPEBD32H@Z 000000018005bb50 f   c1_ex_DLModel_28.obj
 0001:0005abc0       ?propagateSize@c1_MWSwishLayer_c1_Yolov9t0_ex_DLModel_28020@@UEAAXXZ 000000018005bbc0 f   c1_ex_DLModel_28.obj
 0001:0005ac70       ?cleanupLayer@c1_MWSwishLayer_c1_Yolov9t0_ex_DLModel_28020@@UEAAXXZ 000000018005bc70 f   c1_ex_DLModel_28.obj
 0001:0005ac80       ?predict@c1_MWSwishLayer_c1_Yolov9t0_ex_DLModel_28020@@UEAAXXZ 000000018005bc80 f   c1_ex_DLModel_28.obj
 0001:0005acf0       ?setChartInstancePtr@c1_MWSwishLayer_c1_Yolov9t0_ex_DLModel_28020@@QEAAXPEAUSFc1_ex_DLModel_28InstanceStruct@@@Z 000000018005bcf0 f   c1_ex_DLModel_28.obj
 0001:0005ad20       ??0c1_MWSwishLayer_c1_Yolov9t0_ex_DLModel_28021@@QEAA@XZ 000000018005bd20 f   c1_ex_DLModel_28.obj
 0001:0005ad60       ?c1_createCustomLayer@c1_MWSwishLayer_c1_Yolov9t0_ex_DLModel_28021@@QEAAXPEAVMWTargetNetworkImpl@MWCudnnTarget@@PEAVMWTensorBase@@PEBD22QEAPEBD32H@Z 000000018005bd60 f   c1_ex_DLModel_28.obj
 0001:0005add0       ?propagateSize@c1_MWSwishLayer_c1_Yolov9t0_ex_DLModel_28021@@UEAAXXZ 000000018005bdd0 f   c1_ex_DLModel_28.obj
 0001:0005ae80       ?cleanupLayer@c1_MWSwishLayer_c1_Yolov9t0_ex_DLModel_28021@@UEAAXXZ 000000018005be80 f   c1_ex_DLModel_28.obj
 0001:0005ae90       ?predict@c1_MWSwishLayer_c1_Yolov9t0_ex_DLModel_28021@@UEAAXXZ 000000018005be90 f   c1_ex_DLModel_28.obj
 0001:0005af00       ?setChartInstancePtr@c1_MWSwishLayer_c1_Yolov9t0_ex_DLModel_28021@@QEAAXPEAUSFc1_ex_DLModel_28InstanceStruct@@@Z 000000018005bf00 f   c1_ex_DLModel_28.obj
 0001:0005af30       ??0c1_MWSwishLayer_c1_Yolov9t0_ex_DLModel_28022@@QEAA@XZ 000000018005bf30 f   c1_ex_DLModel_28.obj
 0001:0005af70       ?c1_createCustomLayer@c1_MWSwishLayer_c1_Yolov9t0_ex_DLModel_28022@@QEAAXPEAVMWTargetNetworkImpl@MWCudnnTarget@@PEAVMWTensorBase@@PEBD22QEAPEBD32H@Z 000000018005bf70 f   c1_ex_DLModel_28.obj
 0001:0005afe0       ?propagateSize@c1_MWSwishLayer_c1_Yolov9t0_ex_DLModel_28022@@UEAAXXZ 000000018005bfe0 f   c1_ex_DLModel_28.obj
 0001:0005b090       ?cleanupLayer@c1_MWSwishLayer_c1_Yolov9t0_ex_DLModel_28022@@UEAAXXZ 000000018005c090 f   c1_ex_DLModel_28.obj
 0001:0005b0a0       ?predict@c1_MWSwishLayer_c1_Yolov9t0_ex_DLModel_28022@@UEAAXXZ 000000018005c0a0 f   c1_ex_DLModel_28.obj
 0001:0005b110       ?setChartInstancePtr@c1_MWSwishLayer_c1_Yolov9t0_ex_DLModel_28022@@QEAAXPEAUSFc1_ex_DLModel_28InstanceStruct@@@Z 000000018005c110 f   c1_ex_DLModel_28.obj
 0001:0005b140       ??0c1_MWSwishLayer_c1_Yolov9t0_ex_DLModel_28023@@QEAA@XZ 000000018005c140 f   c1_ex_DLModel_28.obj
 0001:0005b180       ?c1_createCustomLayer@c1_MWSwishLayer_c1_Yolov9t0_ex_DLModel_28023@@QEAAXPEAVMWTargetNetworkImpl@MWCudnnTarget@@PEAVMWTensorBase@@PEBD22QEAPEBD32H@Z 000000018005c180 f   c1_ex_DLModel_28.obj
 0001:0005b1f0       ?propagateSize@c1_MWSwishLayer_c1_Yolov9t0_ex_DLModel_28023@@UEAAXXZ 000000018005c1f0 f   c1_ex_DLModel_28.obj
 0001:0005b2a0       ?cleanupLayer@c1_MWSwishLayer_c1_Yolov9t0_ex_DLModel_28023@@UEAAXXZ 000000018005c2a0 f   c1_ex_DLModel_28.obj
 0001:0005b2b0       ?predict@c1_MWSwishLayer_c1_Yolov9t0_ex_DLModel_28023@@UEAAXXZ 000000018005c2b0 f   c1_ex_DLModel_28.obj
 0001:0005b320       ?setChartInstancePtr@c1_MWSwishLayer_c1_Yolov9t0_ex_DLModel_28023@@QEAAXPEAUSFc1_ex_DLModel_28InstanceStruct@@@Z 000000018005c320 f   c1_ex_DLModel_28.obj
 0001:0005b350       ??0c1_MWSwishLayer_c1_Yolov9t0_ex_DLModel_28024@@QEAA@XZ 000000018005c350 f   c1_ex_DLModel_28.obj
 0001:0005b390       ?c1_createCustomLayer@c1_MWSwishLayer_c1_Yolov9t0_ex_DLModel_28024@@QEAAXPEAVMWTargetNetworkImpl@MWCudnnTarget@@PEAVMWTensorBase@@PEBD22QEAPEBD32H@Z 000000018005c390 f   c1_ex_DLModel_28.obj
 0001:0005b400       ?propagateSize@c1_MWSwishLayer_c1_Yolov9t0_ex_DLModel_28024@@UEAAXXZ 000000018005c400 f   c1_ex_DLModel_28.obj
 0001:0005b4b0       ?cleanupLayer@c1_MWSwishLayer_c1_Yolov9t0_ex_DLModel_28024@@UEAAXXZ 000000018005c4b0 f   c1_ex_DLModel_28.obj
 0001:0005b4c0       ?predict@c1_MWSwishLayer_c1_Yolov9t0_ex_DLModel_28024@@UEAAXXZ 000000018005c4c0 f   c1_ex_DLModel_28.obj
 0001:0005b530       ?setChartInstancePtr@c1_MWSwishLayer_c1_Yolov9t0_ex_DLModel_28024@@QEAAXPEAUSFc1_ex_DLModel_28InstanceStruct@@@Z 000000018005c530 f   c1_ex_DLModel_28.obj
 0001:0005b560       ??0c1_MWSwishLayer_c1_Yolov9t0_ex_DLModel_28025@@QEAA@XZ 000000018005c560 f   c1_ex_DLModel_28.obj
 0001:0005b5a0       ?c1_createCustomLayer@c1_MWSwishLayer_c1_Yolov9t0_ex_DLModel_28025@@QEAAXPEAVMWTargetNetworkImpl@MWCudnnTarget@@PEAVMWTensorBase@@PEBD22QEAPEBD32H@Z 000000018005c5a0 f   c1_ex_DLModel_28.obj
 0001:0005b610       ?propagateSize@c1_MWSwishLayer_c1_Yolov9t0_ex_DLModel_28025@@UEAAXXZ 000000018005c610 f   c1_ex_DLModel_28.obj
 0001:0005b6c0       ?cleanupLayer@c1_MWSwishLayer_c1_Yolov9t0_ex_DLModel_28025@@UEAAXXZ 000000018005c6c0 f   c1_ex_DLModel_28.obj
 0001:0005b6d0       ?predict@c1_MWSwishLayer_c1_Yolov9t0_ex_DLModel_28025@@UEAAXXZ 000000018005c6d0 f   c1_ex_DLModel_28.obj
 0001:0005b740       ?setChartInstancePtr@c1_MWSwishLayer_c1_Yolov9t0_ex_DLModel_28025@@QEAAXPEAUSFc1_ex_DLModel_28InstanceStruct@@@Z 000000018005c740 f   c1_ex_DLModel_28.obj
 0001:0005b770       ??0c1_MWSwishLayer_c1_Yolov9t0_ex_DLModel_28026@@QEAA@XZ 000000018005c770 f   c1_ex_DLModel_28.obj
 0001:0005b7b0       ?c1_createCustomLayer@c1_MWSwishLayer_c1_Yolov9t0_ex_DLModel_28026@@QEAAXPEAVMWTargetNetworkImpl@MWCudnnTarget@@PEAVMWTensorBase@@PEBD22QEAPEBD32H@Z 000000018005c7b0 f   c1_ex_DLModel_28.obj
 0001:0005b820       ?propagateSize@c1_MWSwishLayer_c1_Yolov9t0_ex_DLModel_28026@@UEAAXXZ 000000018005c820 f   c1_ex_DLModel_28.obj
 0001:0005b8d0       ?cleanupLayer@c1_MWSwishLayer_c1_Yolov9t0_ex_DLModel_28026@@UEAAXXZ 000000018005c8d0 f   c1_ex_DLModel_28.obj
 0001:0005b8e0       ?predict@c1_MWSwishLayer_c1_Yolov9t0_ex_DLModel_28026@@UEAAXXZ 000000018005c8e0 f   c1_ex_DLModel_28.obj
 0001:0005b950       ?setChartInstancePtr@c1_MWSwishLayer_c1_Yolov9t0_ex_DLModel_28026@@QEAAXPEAUSFc1_ex_DLModel_28InstanceStruct@@@Z 000000018005c950 f   c1_ex_DLModel_28.obj
 0001:0005b980       ??0c1_MWSwishLayer_c1_Yolov9t0_ex_DLModel_28027@@QEAA@XZ 000000018005c980 f   c1_ex_DLModel_28.obj
 0001:0005b9c0       ?c1_createCustomLayer@c1_MWSwishLayer_c1_Yolov9t0_ex_DLModel_28027@@QEAAXPEAVMWTargetNetworkImpl@MWCudnnTarget@@PEAVMWTensorBase@@PEBD22QEAPEBD32H@Z 000000018005c9c0 f   c1_ex_DLModel_28.obj
 0001:0005ba30       ?propagateSize@c1_MWSwishLayer_c1_Yolov9t0_ex_DLModel_28027@@UEAAXXZ 000000018005ca30 f   c1_ex_DLModel_28.obj
 0001:0005bae0       ?cleanupLayer@c1_MWSwishLayer_c1_Yolov9t0_ex_DLModel_28027@@UEAAXXZ 000000018005cae0 f   c1_ex_DLModel_28.obj
 0001:0005baf0       ?predict@c1_MWSwishLayer_c1_Yolov9t0_ex_DLModel_28027@@UEAAXXZ 000000018005caf0 f   c1_ex_DLModel_28.obj
 0001:0005bb60       ?setChartInstancePtr@c1_MWSwishLayer_c1_Yolov9t0_ex_DLModel_28027@@QEAAXPEAUSFc1_ex_DLModel_28InstanceStruct@@@Z 000000018005cb60 f   c1_ex_DLModel_28.obj
 0001:0005bb90       ??0c1_MWSwishLayer_c1_Yolov9t0_ex_DLModel_28028@@QEAA@XZ 000000018005cb90 f   c1_ex_DLModel_28.obj
 0001:0005bbd0       ?c1_createCustomLayer@c1_MWSwishLayer_c1_Yolov9t0_ex_DLModel_28028@@QEAAXPEAVMWTargetNetworkImpl@MWCudnnTarget@@PEAVMWTensorBase@@PEBD22QEAPEBD32H@Z 000000018005cbd0 f   c1_ex_DLModel_28.obj
 0001:0005bc40       ?propagateSize@c1_MWSwishLayer_c1_Yolov9t0_ex_DLModel_28028@@UEAAXXZ 000000018005cc40 f   c1_ex_DLModel_28.obj
 0001:0005bcf0       ?cleanupLayer@c1_MWSwishLayer_c1_Yolov9t0_ex_DLModel_28028@@UEAAXXZ 000000018005ccf0 f   c1_ex_DLModel_28.obj
 0001:0005bd00       ?predict@c1_MWSwishLayer_c1_Yolov9t0_ex_DLModel_28028@@UEAAXXZ 000000018005cd00 f   c1_ex_DLModel_28.obj
 0001:0005bd70       ?setChartInstancePtr@c1_MWSwishLayer_c1_Yolov9t0_ex_DLModel_28028@@QEAAXPEAUSFc1_ex_DLModel_28InstanceStruct@@@Z 000000018005cd70 f   c1_ex_DLModel_28.obj
 0001:0005bda0       ??0c1_MWSwishLayer_c1_Yolov9t0_ex_DLModel_28029@@QEAA@XZ 000000018005cda0 f   c1_ex_DLModel_28.obj
 0001:0005bde0       ?c1_createCustomLayer@c1_MWSwishLayer_c1_Yolov9t0_ex_DLModel_28029@@QEAAXPEAVMWTargetNetworkImpl@MWCudnnTarget@@PEAVMWTensorBase@@PEBD22QEAPEBD32H@Z 000000018005cde0 f   c1_ex_DLModel_28.obj
 0001:0005be50       ?propagateSize@c1_MWSwishLayer_c1_Yolov9t0_ex_DLModel_28029@@UEAAXXZ 000000018005ce50 f   c1_ex_DLModel_28.obj
 0001:0005bf00       ?cleanupLayer@c1_MWSwishLayer_c1_Yolov9t0_ex_DLModel_28029@@UEAAXXZ 000000018005cf00 f   c1_ex_DLModel_28.obj
 0001:0005bf10       ?predict@c1_MWSwishLayer_c1_Yolov9t0_ex_DLModel_28029@@UEAAXXZ 000000018005cf10 f   c1_ex_DLModel_28.obj
 0001:0005bf80       ?setChartInstancePtr@c1_MWSwishLayer_c1_Yolov9t0_ex_DLModel_28029@@QEAAXPEAUSFc1_ex_DLModel_28InstanceStruct@@@Z 000000018005cf80 f   c1_ex_DLModel_28.obj
 0001:0005bfb0       ??0c1_MWSwishLayer_c1_Yolov9t0_ex_DLModel_28030@@QEAA@XZ 000000018005cfb0 f   c1_ex_DLModel_28.obj
 0001:0005bff0       ?c1_createCustomLayer@c1_MWSwishLayer_c1_Yolov9t0_ex_DLModel_28030@@QEAAXPEAVMWTargetNetworkImpl@MWCudnnTarget@@PEAVMWTensorBase@@PEBD22QEAPEBD32H@Z 000000018005cff0 f   c1_ex_DLModel_28.obj
 0001:0005c060       ?propagateSize@c1_MWSwishLayer_c1_Yolov9t0_ex_DLModel_28030@@UEAAXXZ 000000018005d060 f   c1_ex_DLModel_28.obj
 0001:0005c110       ?cleanupLayer@c1_MWSwishLayer_c1_Yolov9t0_ex_DLModel_28030@@UEAAXXZ 000000018005d110 f   c1_ex_DLModel_28.obj
 0001:0005c120       ?predict@c1_MWSwishLayer_c1_Yolov9t0_ex_DLModel_28030@@UEAAXXZ 000000018005d120 f   c1_ex_DLModel_28.obj
 0001:0005c190       ?setChartInstancePtr@c1_MWSwishLayer_c1_Yolov9t0_ex_DLModel_28030@@QEAAXPEAUSFc1_ex_DLModel_28InstanceStruct@@@Z 000000018005d190 f   c1_ex_DLModel_28.obj
 0001:0005c1c0       ??0c1_MWSwishLayer_c1_Yolov9t0_ex_DLModel_28031@@QEAA@XZ 000000018005d1c0 f   c1_ex_DLModel_28.obj
 0001:0005c200       ?c1_createCustomLayer@c1_MWSwishLayer_c1_Yolov9t0_ex_DLModel_28031@@QEAAXPEAVMWTargetNetworkImpl@MWCudnnTarget@@PEAVMWTensorBase@@PEBD22QEAPEBD32H@Z 000000018005d200 f   c1_ex_DLModel_28.obj
 0001:0005c270       ?propagateSize@c1_MWSwishLayer_c1_Yolov9t0_ex_DLModel_28031@@UEAAXXZ 000000018005d270 f   c1_ex_DLModel_28.obj
 0001:0005c320       ?cleanupLayer@c1_MWSwishLayer_c1_Yolov9t0_ex_DLModel_28031@@UEAAXXZ 000000018005d320 f   c1_ex_DLModel_28.obj
 0001:0005c330       ?predict@c1_MWSwishLayer_c1_Yolov9t0_ex_DLModel_28031@@UEAAXXZ 000000018005d330 f   c1_ex_DLModel_28.obj
 0001:0005c3a0       ?setChartInstancePtr@c1_MWSwishLayer_c1_Yolov9t0_ex_DLModel_28031@@QEAAXPEAUSFc1_ex_DLModel_28InstanceStruct@@@Z 000000018005d3a0 f   c1_ex_DLModel_28.obj
 0001:0005c3d0       ??0c1_MWCustomSliceLayer_c1_Yolov9t0_ex_DLModel_2803@@QEAA@XZ 000000018005d3d0 f   c1_ex_DLModel_28.obj
 0001:0005c410       ?c1_createCustomLayer@c1_MWCustomSliceLayer_c1_Yolov9t0_ex_DLModel_2803@@QEAAXPEAVMWTargetNetworkImpl@MWCudnnTarget@@PEAVMWTensorBase@@PEBDQEAPEBD322HH@Z 000000018005d410 f   c1_ex_DLModel_28.obj
 0001:0005c490       ?propagateSize@c1_MWCustomSliceLayer_c1_Yolov9t0_ex_DLModel_2803@@UEAAXXZ 000000018005d490 f   c1_ex_DLModel_28.obj
 0001:0005c690       ?cleanupLayer@c1_MWCustomSliceLayer_c1_Yolov9t0_ex_DLModel_2803@@UEAAXXZ 000000018005d690 f   c1_ex_DLModel_28.obj
 0001:0005c6a0       ?predict@c1_MWCustomSliceLayer_c1_Yolov9t0_ex_DLModel_2803@@UEAAXXZ 000000018005d6a0 f   c1_ex_DLModel_28.obj
 0001:0005c780       ?setChartInstancePtr@c1_MWCustomSliceLayer_c1_Yolov9t0_ex_DLModel_2803@@QEAAXPEAUSFc1_ex_DLModel_28InstanceStruct@@@Z 000000018005d780 f   c1_ex_DLModel_28.obj
 0001:0005c7b0       ??0c1_MWSwishLayer_c1_Yolov9t0_ex_DLModel_28032@@QEAA@XZ 000000018005d7b0 f   c1_ex_DLModel_28.obj
 0001:0005c7f0       ?c1_createCustomLayer@c1_MWSwishLayer_c1_Yolov9t0_ex_DLModel_28032@@QEAAXPEAVMWTargetNetworkImpl@MWCudnnTarget@@PEAVMWTensorBase@@PEBD22QEAPEBD32H@Z 000000018005d7f0 f   c1_ex_DLModel_28.obj
 0001:0005c860       ?propagateSize@c1_MWSwishLayer_c1_Yolov9t0_ex_DLModel_28032@@UEAAXXZ 000000018005d860 f   c1_ex_DLModel_28.obj
 0001:0005c910       ?cleanupLayer@c1_MWSwishLayer_c1_Yolov9t0_ex_DLModel_28032@@UEAAXXZ 000000018005d910 f   c1_ex_DLModel_28.obj
 0001:0005c920       ?predict@c1_MWSwishLayer_c1_Yolov9t0_ex_DLModel_28032@@UEAAXXZ 000000018005d920 f   c1_ex_DLModel_28.obj
 0001:0005c990       ?setChartInstancePtr@c1_MWSwishLayer_c1_Yolov9t0_ex_DLModel_28032@@QEAAXPEAUSFc1_ex_DLModel_28InstanceStruct@@@Z 000000018005d990 f   c1_ex_DLModel_28.obj
 0001:0005c9c0       ??0c1_MWSwishLayer_c1_Yolov9t0_ex_DLModel_28033@@QEAA@XZ 000000018005d9c0 f   c1_ex_DLModel_28.obj
 0001:0005ca00       ?c1_createCustomLayer@c1_MWSwishLayer_c1_Yolov9t0_ex_DLModel_28033@@QEAAXPEAVMWTargetNetworkImpl@MWCudnnTarget@@PEAVMWTensorBase@@PEBD22QEAPEBD32H@Z 000000018005da00 f   c1_ex_DLModel_28.obj
 0001:0005ca70       ?propagateSize@c1_MWSwishLayer_c1_Yolov9t0_ex_DLModel_28033@@UEAAXXZ 000000018005da70 f   c1_ex_DLModel_28.obj
 0001:0005cb20       ?cleanupLayer@c1_MWSwishLayer_c1_Yolov9t0_ex_DLModel_28033@@UEAAXXZ 000000018005db20 f   c1_ex_DLModel_28.obj
 0001:0005cb30       ?predict@c1_MWSwishLayer_c1_Yolov9t0_ex_DLModel_28033@@UEAAXXZ 000000018005db30 f   c1_ex_DLModel_28.obj
 0001:0005cba0       ?setChartInstancePtr@c1_MWSwishLayer_c1_Yolov9t0_ex_DLModel_28033@@QEAAXPEAUSFc1_ex_DLModel_28InstanceStruct@@@Z 000000018005dba0 f   c1_ex_DLModel_28.obj
 0001:0005cbd0       ??0c1_MWSwishLayer_c1_Yolov9t0_ex_DLModel_28034@@QEAA@XZ 000000018005dbd0 f   c1_ex_DLModel_28.obj
 0001:0005cc10       ?c1_createCustomLayer@c1_MWSwishLayer_c1_Yolov9t0_ex_DLModel_28034@@QEAAXPEAVMWTargetNetworkImpl@MWCudnnTarget@@PEAVMWTensorBase@@PEBD22QEAPEBD32H@Z 000000018005dc10 f   c1_ex_DLModel_28.obj
 0001:0005cc80       ?propagateSize@c1_MWSwishLayer_c1_Yolov9t0_ex_DLModel_28034@@UEAAXXZ 000000018005dc80 f   c1_ex_DLModel_28.obj
 0001:0005cd30       ?cleanupLayer@c1_MWSwishLayer_c1_Yolov9t0_ex_DLModel_28034@@UEAAXXZ 000000018005dd30 f   c1_ex_DLModel_28.obj
 0001:0005cd40       ?predict@c1_MWSwishLayer_c1_Yolov9t0_ex_DLModel_28034@@UEAAXXZ 000000018005dd40 f   c1_ex_DLModel_28.obj
 0001:0005cdb0       ?setChartInstancePtr@c1_MWSwishLayer_c1_Yolov9t0_ex_DLModel_28034@@QEAAXPEAUSFc1_ex_DLModel_28InstanceStruct@@@Z 000000018005ddb0 f   c1_ex_DLModel_28.obj
 0001:0005cde0       ??0c1_MWSwishLayer_c1_Yolov9t0_ex_DLModel_28035@@QEAA@XZ 000000018005dde0 f   c1_ex_DLModel_28.obj
 0001:0005ce20       ?c1_createCustomLayer@c1_MWSwishLayer_c1_Yolov9t0_ex_DLModel_28035@@QEAAXPEAVMWTargetNetworkImpl@MWCudnnTarget@@PEAVMWTensorBase@@PEBD22QEAPEBD32H@Z 000000018005de20 f   c1_ex_DLModel_28.obj
 0001:0005ce90       ?propagateSize@c1_MWSwishLayer_c1_Yolov9t0_ex_DLModel_28035@@UEAAXXZ 000000018005de90 f   c1_ex_DLModel_28.obj
 0001:0005cf40       ?cleanupLayer@c1_MWSwishLayer_c1_Yolov9t0_ex_DLModel_28035@@UEAAXXZ 000000018005df40 f   c1_ex_DLModel_28.obj
 0001:0005cf50       ?predict@c1_MWSwishLayer_c1_Yolov9t0_ex_DLModel_28035@@UEAAXXZ 000000018005df50 f   c1_ex_DLModel_28.obj
 0001:0005cfc0       ?setChartInstancePtr@c1_MWSwishLayer_c1_Yolov9t0_ex_DLModel_28035@@QEAAXPEAUSFc1_ex_DLModel_28InstanceStruct@@@Z 000000018005dfc0 f   c1_ex_DLModel_28.obj
 0001:0005cff0       ??0c1_MWSwishLayer_c1_Yolov9t0_ex_DLModel_28036@@QEAA@XZ 000000018005dff0 f   c1_ex_DLModel_28.obj
 0001:0005d030       ?c1_createCustomLayer@c1_MWSwishLayer_c1_Yolov9t0_ex_DLModel_28036@@QEAAXPEAVMWTargetNetworkImpl@MWCudnnTarget@@PEAVMWTensorBase@@PEBD22QEAPEBD32H@Z 000000018005e030 f   c1_ex_DLModel_28.obj
 0001:0005d0a0       ?propagateSize@c1_MWSwishLayer_c1_Yolov9t0_ex_DLModel_28036@@UEAAXXZ 000000018005e0a0 f   c1_ex_DLModel_28.obj
 0001:0005d150       ?cleanupLayer@c1_MWSwishLayer_c1_Yolov9t0_ex_DLModel_28036@@UEAAXXZ 000000018005e150 f   c1_ex_DLModel_28.obj
 0001:0005d160       ?predict@c1_MWSwishLayer_c1_Yolov9t0_ex_DLModel_28036@@UEAAXXZ 000000018005e160 f   c1_ex_DLModel_28.obj
 0001:0005d1d0       ?setChartInstancePtr@c1_MWSwishLayer_c1_Yolov9t0_ex_DLModel_28036@@QEAAXPEAUSFc1_ex_DLModel_28InstanceStruct@@@Z 000000018005e1d0 f   c1_ex_DLModel_28.obj
 0001:0005d200       ??0c1_MWSwishLayer_c1_Yolov9t0_ex_DLModel_28037@@QEAA@XZ 000000018005e200 f   c1_ex_DLModel_28.obj
 0001:0005d240       ?c1_createCustomLayer@c1_MWSwishLayer_c1_Yolov9t0_ex_DLModel_28037@@QEAAXPEAVMWTargetNetworkImpl@MWCudnnTarget@@PEAVMWTensorBase@@PEBD22QEAPEBD32H@Z 000000018005e240 f   c1_ex_DLModel_28.obj
 0001:0005d2b0       ?propagateSize@c1_MWSwishLayer_c1_Yolov9t0_ex_DLModel_28037@@UEAAXXZ 000000018005e2b0 f   c1_ex_DLModel_28.obj
 0001:0005d360       ?cleanupLayer@c1_MWSwishLayer_c1_Yolov9t0_ex_DLModel_28037@@UEAAXXZ 000000018005e360 f   c1_ex_DLModel_28.obj
 0001:0005d370       ?predict@c1_MWSwishLayer_c1_Yolov9t0_ex_DLModel_28037@@UEAAXXZ 000000018005e370 f   c1_ex_DLModel_28.obj
 0001:0005d3e0       ?setChartInstancePtr@c1_MWSwishLayer_c1_Yolov9t0_ex_DLModel_28037@@QEAAXPEAUSFc1_ex_DLModel_28InstanceStruct@@@Z 000000018005e3e0 f   c1_ex_DLModel_28.obj
 0001:0005d410       ??0c1_MWSwishLayer_c1_Yolov9t0_ex_DLModel_28038@@QEAA@XZ 000000018005e410 f   c1_ex_DLModel_28.obj
 0001:0005d450       ?c1_createCustomLayer@c1_MWSwishLayer_c1_Yolov9t0_ex_DLModel_28038@@QEAAXPEAVMWTargetNetworkImpl@MWCudnnTarget@@PEAVMWTensorBase@@PEBD22QEAPEBD32H@Z 000000018005e450 f   c1_ex_DLModel_28.obj
 0001:0005d4c0       ?propagateSize@c1_MWSwishLayer_c1_Yolov9t0_ex_DLModel_28038@@UEAAXXZ 000000018005e4c0 f   c1_ex_DLModel_28.obj
 0001:0005d570       ?cleanupLayer@c1_MWSwishLayer_c1_Yolov9t0_ex_DLModel_28038@@UEAAXXZ 000000018005e570 f   c1_ex_DLModel_28.obj
 0001:0005d580       ?predict@c1_MWSwishLayer_c1_Yolov9t0_ex_DLModel_28038@@UEAAXXZ 000000018005e580 f   c1_ex_DLModel_28.obj
 0001:0005d5f0       ?setChartInstancePtr@c1_MWSwishLayer_c1_Yolov9t0_ex_DLModel_28038@@QEAAXPEAUSFc1_ex_DLModel_28InstanceStruct@@@Z 000000018005e5f0 f   c1_ex_DLModel_28.obj
 0001:0005d620       ??0c1_MWSwishLayer_c1_Yolov9t0_ex_DLModel_28039@@QEAA@XZ 000000018005e620 f   c1_ex_DLModel_28.obj
 0001:0005d660       ?c1_createCustomLayer@c1_MWSwishLayer_c1_Yolov9t0_ex_DLModel_28039@@QEAAXPEAVMWTargetNetworkImpl@MWCudnnTarget@@PEAVMWTensorBase@@PEBD22QEAPEBD32H@Z 000000018005e660 f   c1_ex_DLModel_28.obj
 0001:0005d6d0       ?propagateSize@c1_MWSwishLayer_c1_Yolov9t0_ex_DLModel_28039@@UEAAXXZ 000000018005e6d0 f   c1_ex_DLModel_28.obj
 0001:0005d780       ?cleanupLayer@c1_MWSwishLayer_c1_Yolov9t0_ex_DLModel_28039@@UEAAXXZ 000000018005e780 f   c1_ex_DLModel_28.obj
 0001:0005d790       ?predict@c1_MWSwishLayer_c1_Yolov9t0_ex_DLModel_28039@@UEAAXXZ 000000018005e790 f   c1_ex_DLModel_28.obj
 0001:0005d800       ?setChartInstancePtr@c1_MWSwishLayer_c1_Yolov9t0_ex_DLModel_28039@@QEAAXPEAUSFc1_ex_DLModel_28InstanceStruct@@@Z 000000018005e800 f   c1_ex_DLModel_28.obj
 0001:0005d830       ??0c1_MWSwishLayer_c1_Yolov9t0_ex_DLModel_28040@@QEAA@XZ 000000018005e830 f   c1_ex_DLModel_28.obj
 0001:0005d870       ?c1_createCustomLayer@c1_MWSwishLayer_c1_Yolov9t0_ex_DLModel_28040@@QEAAXPEAVMWTargetNetworkImpl@MWCudnnTarget@@PEAVMWTensorBase@@PEBD22QEAPEBD32H@Z 000000018005e870 f   c1_ex_DLModel_28.obj
 0001:0005d8e0       ?propagateSize@c1_MWSwishLayer_c1_Yolov9t0_ex_DLModel_28040@@UEAAXXZ 000000018005e8e0 f   c1_ex_DLModel_28.obj
 0001:0005d990       ?cleanupLayer@c1_MWSwishLayer_c1_Yolov9t0_ex_DLModel_28040@@UEAAXXZ 000000018005e990 f   c1_ex_DLModel_28.obj
 0001:0005d9a0       ?predict@c1_MWSwishLayer_c1_Yolov9t0_ex_DLModel_28040@@UEAAXXZ 000000018005e9a0 f   c1_ex_DLModel_28.obj
 0001:0005da10       ?setChartInstancePtr@c1_MWSwishLayer_c1_Yolov9t0_ex_DLModel_28040@@QEAAXPEAUSFc1_ex_DLModel_28InstanceStruct@@@Z 000000018005ea10 f   c1_ex_DLModel_28.obj
 0001:0005da40       ??0c1_MWSwishLayer_c1_Yolov9t0_ex_DLModel_28041@@QEAA@XZ 000000018005ea40 f   c1_ex_DLModel_28.obj
 0001:0005da80       ?c1_createCustomLayer@c1_MWSwishLayer_c1_Yolov9t0_ex_DLModel_28041@@QEAAXPEAVMWTargetNetworkImpl@MWCudnnTarget@@PEAVMWTensorBase@@PEBD22QEAPEBD32H@Z 000000018005ea80 f   c1_ex_DLModel_28.obj
 0001:0005daf0       ?propagateSize@c1_MWSwishLayer_c1_Yolov9t0_ex_DLModel_28041@@UEAAXXZ 000000018005eaf0 f   c1_ex_DLModel_28.obj
 0001:0005dba0       ?cleanupLayer@c1_MWSwishLayer_c1_Yolov9t0_ex_DLModel_28041@@UEAAXXZ 000000018005eba0 f   c1_ex_DLModel_28.obj
 0001:0005dbb0       ?predict@c1_MWSwishLayer_c1_Yolov9t0_ex_DLModel_28041@@UEAAXXZ 000000018005ebb0 f   c1_ex_DLModel_28.obj
 0001:0005dc20       ?setChartInstancePtr@c1_MWSwishLayer_c1_Yolov9t0_ex_DLModel_28041@@QEAAXPEAUSFc1_ex_DLModel_28InstanceStruct@@@Z 000000018005ec20 f   c1_ex_DLModel_28.obj
 0001:0005dc50       ??0c1_MWSwishLayer_c1_Yolov9t0_ex_DLModel_28042@@QEAA@XZ 000000018005ec50 f   c1_ex_DLModel_28.obj
 0001:0005dc90       ?c1_createCustomLayer@c1_MWSwishLayer_c1_Yolov9t0_ex_DLModel_28042@@QEAAXPEAVMWTargetNetworkImpl@MWCudnnTarget@@PEAVMWTensorBase@@PEBD22QEAPEBD32H@Z 000000018005ec90 f   c1_ex_DLModel_28.obj
 0001:0005dd00       ?propagateSize@c1_MWSwishLayer_c1_Yolov9t0_ex_DLModel_28042@@UEAAXXZ 000000018005ed00 f   c1_ex_DLModel_28.obj
 0001:0005ddb0       ?cleanupLayer@c1_MWSwishLayer_c1_Yolov9t0_ex_DLModel_28042@@UEAAXXZ 000000018005edb0 f   c1_ex_DLModel_28.obj
 0001:0005ddc0       ?predict@c1_MWSwishLayer_c1_Yolov9t0_ex_DLModel_28042@@UEAAXXZ 000000018005edc0 f   c1_ex_DLModel_28.obj
 0001:0005de30       ?setChartInstancePtr@c1_MWSwishLayer_c1_Yolov9t0_ex_DLModel_28042@@QEAAXPEAUSFc1_ex_DLModel_28InstanceStruct@@@Z 000000018005ee30 f   c1_ex_DLModel_28.obj
 0001:0005de60       ??0c1_MWSwishLayer_c1_Yolov9t0_ex_DLModel_28043@@QEAA@XZ 000000018005ee60 f   c1_ex_DLModel_28.obj
 0001:0005dea0       ?c1_createCustomLayer@c1_MWSwishLayer_c1_Yolov9t0_ex_DLModel_28043@@QEAAXPEAVMWTargetNetworkImpl@MWCudnnTarget@@PEAVMWTensorBase@@PEBD22QEAPEBD32H@Z 000000018005eea0 f   c1_ex_DLModel_28.obj
 0001:0005df10       ?propagateSize@c1_MWSwishLayer_c1_Yolov9t0_ex_DLModel_28043@@UEAAXXZ 000000018005ef10 f   c1_ex_DLModel_28.obj
 0001:0005dfc0       ?cleanupLayer@c1_MWSwishLayer_c1_Yolov9t0_ex_DLModel_28043@@UEAAXXZ 000000018005efc0 f   c1_ex_DLModel_28.obj
 0001:0005dfd0       ?predict@c1_MWSwishLayer_c1_Yolov9t0_ex_DLModel_28043@@UEAAXXZ 000000018005efd0 f   c1_ex_DLModel_28.obj
 0001:0005e040       ?setChartInstancePtr@c1_MWSwishLayer_c1_Yolov9t0_ex_DLModel_28043@@QEAAXPEAUSFc1_ex_DLModel_28InstanceStruct@@@Z 000000018005f040 f   c1_ex_DLModel_28.obj
 0001:0005e070       ??0c1_MWSwishLayer_c1_Yolov9t0_ex_DLModel_28044@@QEAA@XZ 000000018005f070 f   c1_ex_DLModel_28.obj
 0001:0005e0b0       ?c1_createCustomLayer@c1_MWSwishLayer_c1_Yolov9t0_ex_DLModel_28044@@QEAAXPEAVMWTargetNetworkImpl@MWCudnnTarget@@PEAVMWTensorBase@@PEBD22QEAPEBD32H@Z 000000018005f0b0 f   c1_ex_DLModel_28.obj
 0001:0005e120       ?propagateSize@c1_MWSwishLayer_c1_Yolov9t0_ex_DLModel_28044@@UEAAXXZ 000000018005f120 f   c1_ex_DLModel_28.obj
 0001:0005e1d0       ?cleanupLayer@c1_MWSwishLayer_c1_Yolov9t0_ex_DLModel_28044@@UEAAXXZ 000000018005f1d0 f   c1_ex_DLModel_28.obj
 0001:0005e1e0       ?predict@c1_MWSwishLayer_c1_Yolov9t0_ex_DLModel_28044@@UEAAXXZ 000000018005f1e0 f   c1_ex_DLModel_28.obj
 0001:0005e250       ?setChartInstancePtr@c1_MWSwishLayer_c1_Yolov9t0_ex_DLModel_28044@@QEAAXPEAUSFc1_ex_DLModel_28InstanceStruct@@@Z 000000018005f250 f   c1_ex_DLModel_28.obj
 0001:0005e280       ??0c1_MWSwishLayer_c1_Yolov9t0_ex_DLModel_28045@@QEAA@XZ 000000018005f280 f   c1_ex_DLModel_28.obj
 0001:0005e2c0       ?c1_createCustomLayer@c1_MWSwishLayer_c1_Yolov9t0_ex_DLModel_28045@@QEAAXPEAVMWTargetNetworkImpl@MWCudnnTarget@@PEAVMWTensorBase@@PEBD22QEAPEBD32H@Z 000000018005f2c0 f   c1_ex_DLModel_28.obj
 0001:0005e330       ?propagateSize@c1_MWSwishLayer_c1_Yolov9t0_ex_DLModel_28045@@UEAAXXZ 000000018005f330 f   c1_ex_DLModel_28.obj
 0001:0005e3e0       ?cleanupLayer@c1_MWSwishLayer_c1_Yolov9t0_ex_DLModel_28045@@UEAAXXZ 000000018005f3e0 f   c1_ex_DLModel_28.obj
 0001:0005e3f0       ?predict@c1_MWSwishLayer_c1_Yolov9t0_ex_DLModel_28045@@UEAAXXZ 000000018005f3f0 f   c1_ex_DLModel_28.obj
 0001:0005e460       ?setChartInstancePtr@c1_MWSwishLayer_c1_Yolov9t0_ex_DLModel_28045@@QEAAXPEAUSFc1_ex_DLModel_28InstanceStruct@@@Z 000000018005f460 f   c1_ex_DLModel_28.obj
 0001:0005e490       ??0c1_MWSwishLayer_c1_Yolov9t0_ex_DLModel_28046@@QEAA@XZ 000000018005f490 f   c1_ex_DLModel_28.obj
 0001:0005e4d0       ?c1_createCustomLayer@c1_MWSwishLayer_c1_Yolov9t0_ex_DLModel_28046@@QEAAXPEAVMWTargetNetworkImpl@MWCudnnTarget@@PEAVMWTensorBase@@PEBD22QEAPEBD32H@Z 000000018005f4d0 f   c1_ex_DLModel_28.obj
 0001:0005e540       ?propagateSize@c1_MWSwishLayer_c1_Yolov9t0_ex_DLModel_28046@@UEAAXXZ 000000018005f540 f   c1_ex_DLModel_28.obj
 0001:0005e5f0       ?cleanupLayer@c1_MWSwishLayer_c1_Yolov9t0_ex_DLModel_28046@@UEAAXXZ 000000018005f5f0 f   c1_ex_DLModel_28.obj
 0001:0005e600       ?predict@c1_MWSwishLayer_c1_Yolov9t0_ex_DLModel_28046@@UEAAXXZ 000000018005f600 f   c1_ex_DLModel_28.obj
 0001:0005e670       ?setChartInstancePtr@c1_MWSwishLayer_c1_Yolov9t0_ex_DLModel_28046@@QEAAXPEAUSFc1_ex_DLModel_28InstanceStruct@@@Z 000000018005f670 f   c1_ex_DLModel_28.obj
 0001:0005e6a0       ??0c1_MWSwishLayer_c1_Yolov9t0_ex_DLModel_28047@@QEAA@XZ 000000018005f6a0 f   c1_ex_DLModel_28.obj
 0001:0005e6e0       ?c1_createCustomLayer@c1_MWSwishLayer_c1_Yolov9t0_ex_DLModel_28047@@QEAAXPEAVMWTargetNetworkImpl@MWCudnnTarget@@PEAVMWTensorBase@@PEBD22QEAPEBD32H@Z 000000018005f6e0 f   c1_ex_DLModel_28.obj
 0001:0005e750       ?propagateSize@c1_MWSwishLayer_c1_Yolov9t0_ex_DLModel_28047@@UEAAXXZ 000000018005f750 f   c1_ex_DLModel_28.obj
 0001:0005e800       ?cleanupLayer@c1_MWSwishLayer_c1_Yolov9t0_ex_DLModel_28047@@UEAAXXZ 000000018005f800 f   c1_ex_DLModel_28.obj
 0001:0005e810       ?predict@c1_MWSwishLayer_c1_Yolov9t0_ex_DLModel_28047@@UEAAXXZ 000000018005f810 f   c1_ex_DLModel_28.obj
 0001:0005e880       ?setChartInstancePtr@c1_MWSwishLayer_c1_Yolov9t0_ex_DLModel_28047@@QEAAXPEAUSFc1_ex_DLModel_28InstanceStruct@@@Z 000000018005f880 f   c1_ex_DLModel_28.obj
 0001:0005e8b0       ??0c1_MWSwishLayer_c1_Yolov9t0_ex_DLModel_28048@@QEAA@XZ 000000018005f8b0 f   c1_ex_DLModel_28.obj
 0001:0005e8f0       ?c1_createCustomLayer@c1_MWSwishLayer_c1_Yolov9t0_ex_DLModel_28048@@QEAAXPEAVMWTargetNetworkImpl@MWCudnnTarget@@PEAVMWTensorBase@@PEBD22QEAPEBD32H@Z 000000018005f8f0 f   c1_ex_DLModel_28.obj
 0001:0005e960       ?propagateSize@c1_MWSwishLayer_c1_Yolov9t0_ex_DLModel_28048@@UEAAXXZ 000000018005f960 f   c1_ex_DLModel_28.obj
 0001:0005ea10       ?cleanupLayer@c1_MWSwishLayer_c1_Yolov9t0_ex_DLModel_28048@@UEAAXXZ 000000018005fa10 f   c1_ex_DLModel_28.obj
 0001:0005ea20       ?predict@c1_MWSwishLayer_c1_Yolov9t0_ex_DLModel_28048@@UEAAXXZ 000000018005fa20 f   c1_ex_DLModel_28.obj
 0001:0005ea90       ?setChartInstancePtr@c1_MWSwishLayer_c1_Yolov9t0_ex_DLModel_28048@@QEAAXPEAUSFc1_ex_DLModel_28InstanceStruct@@@Z 000000018005fa90 f   c1_ex_DLModel_28.obj
 0001:0005eac0       ??0c1_MWSwishLayer_c1_Yolov9t0_ex_DLModel_28049@@QEAA@XZ 000000018005fac0 f   c1_ex_DLModel_28.obj
 0001:0005eb00       ?c1_createCustomLayer@c1_MWSwishLayer_c1_Yolov9t0_ex_DLModel_28049@@QEAAXPEAVMWTargetNetworkImpl@MWCudnnTarget@@PEAVMWTensorBase@@PEBD22QEAPEBD32H@Z 000000018005fb00 f   c1_ex_DLModel_28.obj
 0001:0005eb70       ?propagateSize@c1_MWSwishLayer_c1_Yolov9t0_ex_DLModel_28049@@UEAAXXZ 000000018005fb70 f   c1_ex_DLModel_28.obj
 0001:0005ec20       ?cleanupLayer@c1_MWSwishLayer_c1_Yolov9t0_ex_DLModel_28049@@UEAAXXZ 000000018005fc20 f   c1_ex_DLModel_28.obj
 0001:0005ec30       ?predict@c1_MWSwishLayer_c1_Yolov9t0_ex_DLModel_28049@@UEAAXXZ 000000018005fc30 f   c1_ex_DLModel_28.obj
 0001:0005eca0       ?setChartInstancePtr@c1_MWSwishLayer_c1_Yolov9t0_ex_DLModel_28049@@QEAAXPEAUSFc1_ex_DLModel_28InstanceStruct@@@Z 000000018005fca0 f   c1_ex_DLModel_28.obj
 0001:0005ecd0       ??0c1_MWSwishLayer_c1_Yolov9t0_ex_DLModel_28050@@QEAA@XZ 000000018005fcd0 f   c1_ex_DLModel_28.obj
 0001:0005ed10       ?c1_createCustomLayer@c1_MWSwishLayer_c1_Yolov9t0_ex_DLModel_28050@@QEAAXPEAVMWTargetNetworkImpl@MWCudnnTarget@@PEAVMWTensorBase@@PEBD22QEAPEBD32H@Z 000000018005fd10 f   c1_ex_DLModel_28.obj
 0001:0005ed80       ?propagateSize@c1_MWSwishLayer_c1_Yolov9t0_ex_DLModel_28050@@UEAAXXZ 000000018005fd80 f   c1_ex_DLModel_28.obj
 0001:0005ee30       ?cleanupLayer@c1_MWSwishLayer_c1_Yolov9t0_ex_DLModel_28050@@UEAAXXZ 000000018005fe30 f   c1_ex_DLModel_28.obj
 0001:0005ee40       ?predict@c1_MWSwishLayer_c1_Yolov9t0_ex_DLModel_28050@@UEAAXXZ 000000018005fe40 f   c1_ex_DLModel_28.obj
 0001:0005eeb0       ?setChartInstancePtr@c1_MWSwishLayer_c1_Yolov9t0_ex_DLModel_28050@@QEAAXPEAUSFc1_ex_DLModel_28InstanceStruct@@@Z 000000018005feb0 f   c1_ex_DLModel_28.obj
 0001:0005eee0       ??0c1_MWSwishLayer_c1_Yolov9t0_ex_DLModel_28051@@QEAA@XZ 000000018005fee0 f   c1_ex_DLModel_28.obj
 0001:0005ef20       ?c1_createCustomLayer@c1_MWSwishLayer_c1_Yolov9t0_ex_DLModel_28051@@QEAAXPEAVMWTargetNetworkImpl@MWCudnnTarget@@PEAVMWTensorBase@@PEBD22QEAPEBD32H@Z 000000018005ff20 f   c1_ex_DLModel_28.obj
 0001:0005ef90       ?propagateSize@c1_MWSwishLayer_c1_Yolov9t0_ex_DLModel_28051@@UEAAXXZ 000000018005ff90 f   c1_ex_DLModel_28.obj
 0001:0005f040       ?cleanupLayer@c1_MWSwishLayer_c1_Yolov9t0_ex_DLModel_28051@@UEAAXXZ 0000000180060040 f   c1_ex_DLModel_28.obj
 0001:0005f050       ?predict@c1_MWSwishLayer_c1_Yolov9t0_ex_DLModel_28051@@UEAAXXZ 0000000180060050 f   c1_ex_DLModel_28.obj
 0001:0005f0c0       ?setChartInstancePtr@c1_MWSwishLayer_c1_Yolov9t0_ex_DLModel_28051@@QEAAXPEAUSFc1_ex_DLModel_28InstanceStruct@@@Z 00000001800600c0 f   c1_ex_DLModel_28.obj
 0001:0005f0f0       ??0c1_MWSwishLayer_c1_Yolov9t0_ex_DLModel_28052@@QEAA@XZ 00000001800600f0 f   c1_ex_DLModel_28.obj
 0001:0005f130       ?c1_createCustomLayer@c1_MWSwishLayer_c1_Yolov9t0_ex_DLModel_28052@@QEAAXPEAVMWTargetNetworkImpl@MWCudnnTarget@@PEAVMWTensorBase@@PEBD22QEAPEBD32H@Z 0000000180060130 f   c1_ex_DLModel_28.obj
 0001:0005f1a0       ?propagateSize@c1_MWSwishLayer_c1_Yolov9t0_ex_DLModel_28052@@UEAAXXZ 00000001800601a0 f   c1_ex_DLModel_28.obj
 0001:0005f250       ?cleanupLayer@c1_MWSwishLayer_c1_Yolov9t0_ex_DLModel_28052@@UEAAXXZ 0000000180060250 f   c1_ex_DLModel_28.obj
 0001:0005f260       ?predict@c1_MWSwishLayer_c1_Yolov9t0_ex_DLModel_28052@@UEAAXXZ 0000000180060260 f   c1_ex_DLModel_28.obj
 0001:0005f2d0       ?setChartInstancePtr@c1_MWSwishLayer_c1_Yolov9t0_ex_DLModel_28052@@QEAAXPEAUSFc1_ex_DLModel_28InstanceStruct@@@Z 00000001800602d0 f   c1_ex_DLModel_28.obj
 0001:0005f300       ??0c1_MWSwishLayer_c1_Yolov9t0_ex_DLModel_28053@@QEAA@XZ 0000000180060300 f   c1_ex_DLModel_28.obj
 0001:0005f340       ?c1_createCustomLayer@c1_MWSwishLayer_c1_Yolov9t0_ex_DLModel_28053@@QEAAXPEAVMWTargetNetworkImpl@MWCudnnTarget@@PEAVMWTensorBase@@PEBD22QEAPEBD32H@Z 0000000180060340 f   c1_ex_DLModel_28.obj
 0001:0005f3b0       ?propagateSize@c1_MWSwishLayer_c1_Yolov9t0_ex_DLModel_28053@@UEAAXXZ 00000001800603b0 f   c1_ex_DLModel_28.obj
 0001:0005f460       ?cleanupLayer@c1_MWSwishLayer_c1_Yolov9t0_ex_DLModel_28053@@UEAAXXZ 0000000180060460 f   c1_ex_DLModel_28.obj
 0001:0005f470       ?predict@c1_MWSwishLayer_c1_Yolov9t0_ex_DLModel_28053@@UEAAXXZ 0000000180060470 f   c1_ex_DLModel_28.obj
 0001:0005f4e0       ?setChartInstancePtr@c1_MWSwishLayer_c1_Yolov9t0_ex_DLModel_28053@@QEAAXPEAUSFc1_ex_DLModel_28InstanceStruct@@@Z 00000001800604e0 f   c1_ex_DLModel_28.obj
 0001:0005f510       ??0c1_MWSwishLayer_c1_Yolov9t0_ex_DLModel_28054@@QEAA@XZ 0000000180060510 f   c1_ex_DLModel_28.obj
 0001:0005f550       ?c1_createCustomLayer@c1_MWSwishLayer_c1_Yolov9t0_ex_DLModel_28054@@QEAAXPEAVMWTargetNetworkImpl@MWCudnnTarget@@PEAVMWTensorBase@@PEBD22QEAPEBD32H@Z 0000000180060550 f   c1_ex_DLModel_28.obj
 0001:0005f5c0       ?propagateSize@c1_MWSwishLayer_c1_Yolov9t0_ex_DLModel_28054@@UEAAXXZ 00000001800605c0 f   c1_ex_DLModel_28.obj
 0001:0005f670       ?cleanupLayer@c1_MWSwishLayer_c1_Yolov9t0_ex_DLModel_28054@@UEAAXXZ 0000000180060670 f   c1_ex_DLModel_28.obj
 0001:0005f680       ?predict@c1_MWSwishLayer_c1_Yolov9t0_ex_DLModel_28054@@UEAAXXZ 0000000180060680 f   c1_ex_DLModel_28.obj
 0001:0005f6f0       ?setChartInstancePtr@c1_MWSwishLayer_c1_Yolov9t0_ex_DLModel_28054@@QEAAXPEAUSFc1_ex_DLModel_28InstanceStruct@@@Z 00000001800606f0 f   c1_ex_DLModel_28.obj
 0001:0005f720       ??0c1_MWCustomSliceLayer_c1_Yolov9t0_ex_DLModel_2804@@QEAA@XZ 0000000180060720 f   c1_ex_DLModel_28.obj
 0001:0005f760       ?c1_createCustomLayer@c1_MWCustomSliceLayer_c1_Yolov9t0_ex_DLModel_2804@@QEAAXPEAVMWTargetNetworkImpl@MWCudnnTarget@@PEAVMWTensorBase@@PEBDQEAPEBD322HH@Z 0000000180060760 f   c1_ex_DLModel_28.obj
 0001:0005f7e0       ?propagateSize@c1_MWCustomSliceLayer_c1_Yolov9t0_ex_DLModel_2804@@UEAAXXZ 00000001800607e0 f   c1_ex_DLModel_28.obj
 0001:0005f9e0       ?cleanupLayer@c1_MWCustomSliceLayer_c1_Yolov9t0_ex_DLModel_2804@@UEAAXXZ 00000001800609e0 f   c1_ex_DLModel_28.obj
 0001:0005f9f0       ?predict@c1_MWCustomSliceLayer_c1_Yolov9t0_ex_DLModel_2804@@UEAAXXZ 00000001800609f0 f   c1_ex_DLModel_28.obj
 0001:0005fad0       ?setChartInstancePtr@c1_MWCustomSliceLayer_c1_Yolov9t0_ex_DLModel_2804@@QEAAXPEAUSFc1_ex_DLModel_28InstanceStruct@@@Z 0000000180060ad0 f   c1_ex_DLModel_28.obj
 0001:0005fb00       ??0c1_MWSwishLayer_c1_Yolov9t0_ex_DLModel_28055@@QEAA@XZ 0000000180060b00 f   c1_ex_DLModel_28.obj
 0001:0005fb40       ?c1_createCustomLayer@c1_MWSwishLayer_c1_Yolov9t0_ex_DLModel_28055@@QEAAXPEAVMWTargetNetworkImpl@MWCudnnTarget@@PEAVMWTensorBase@@PEBD22QEAPEBD32H@Z 0000000180060b40 f   c1_ex_DLModel_28.obj
 0001:0005fbb0       ?propagateSize@c1_MWSwishLayer_c1_Yolov9t0_ex_DLModel_28055@@UEAAXXZ 0000000180060bb0 f   c1_ex_DLModel_28.obj
 0001:0005fc60       ?cleanupLayer@c1_MWSwishLayer_c1_Yolov9t0_ex_DLModel_28055@@UEAAXXZ 0000000180060c60 f   c1_ex_DLModel_28.obj
 0001:0005fc70       ?predict@c1_MWSwishLayer_c1_Yolov9t0_ex_DLModel_28055@@UEAAXXZ 0000000180060c70 f   c1_ex_DLModel_28.obj
 0001:0005fce0       ?setChartInstancePtr@c1_MWSwishLayer_c1_Yolov9t0_ex_DLModel_28055@@QEAAXPEAUSFc1_ex_DLModel_28InstanceStruct@@@Z 0000000180060ce0 f   c1_ex_DLModel_28.obj
 0001:0005fd10       ??0c1_MWSwishLayer_c1_Yolov9t0_ex_DLModel_28056@@QEAA@XZ 0000000180060d10 f   c1_ex_DLModel_28.obj
 0001:0005fd50       ?c1_createCustomLayer@c1_MWSwishLayer_c1_Yolov9t0_ex_DLModel_28056@@QEAAXPEAVMWTargetNetworkImpl@MWCudnnTarget@@PEAVMWTensorBase@@PEBD22QEAPEBD32H@Z 0000000180060d50 f   c1_ex_DLModel_28.obj
 0001:0005fdc0       ?propagateSize@c1_MWSwishLayer_c1_Yolov9t0_ex_DLModel_28056@@UEAAXXZ 0000000180060dc0 f   c1_ex_DLModel_28.obj
 0001:0005fe70       ?cleanupLayer@c1_MWSwishLayer_c1_Yolov9t0_ex_DLModel_28056@@UEAAXXZ 0000000180060e70 f   c1_ex_DLModel_28.obj
 0001:0005fe80       ?predict@c1_MWSwishLayer_c1_Yolov9t0_ex_DLModel_28056@@UEAAXXZ 0000000180060e80 f   c1_ex_DLModel_28.obj
 0001:0005fef0       ?setChartInstancePtr@c1_MWSwishLayer_c1_Yolov9t0_ex_DLModel_28056@@QEAAXPEAUSFc1_ex_DLModel_28InstanceStruct@@@Z 0000000180060ef0 f   c1_ex_DLModel_28.obj
 0001:0005ff20       ??0c1_MWSwishLayer_c1_Yolov9t0_ex_DLModel_28057@@QEAA@XZ 0000000180060f20 f   c1_ex_DLModel_28.obj
 0001:0005ff60       ?c1_createCustomLayer@c1_MWSwishLayer_c1_Yolov9t0_ex_DLModel_28057@@QEAAXPEAVMWTargetNetworkImpl@MWCudnnTarget@@PEAVMWTensorBase@@PEBD22QEAPEBD32H@Z 0000000180060f60 f   c1_ex_DLModel_28.obj
 0001:0005ffd0       ?propagateSize@c1_MWSwishLayer_c1_Yolov9t0_ex_DLModel_28057@@UEAAXXZ 0000000180060fd0 f   c1_ex_DLModel_28.obj
 0001:00060080       ?cleanupLayer@c1_MWSwishLayer_c1_Yolov9t0_ex_DLModel_28057@@UEAAXXZ 0000000180061080 f   c1_ex_DLModel_28.obj
 0001:00060090       ?predict@c1_MWSwishLayer_c1_Yolov9t0_ex_DLModel_28057@@UEAAXXZ 0000000180061090 f   c1_ex_DLModel_28.obj
 0001:00060100       ?setChartInstancePtr@c1_MWSwishLayer_c1_Yolov9t0_ex_DLModel_28057@@QEAAXPEAUSFc1_ex_DLModel_28InstanceStruct@@@Z 0000000180061100 f   c1_ex_DLModel_28.obj
 0001:00060130       ??0c1_MWSwishLayer_c1_Yolov9t0_ex_DLModel_28058@@QEAA@XZ 0000000180061130 f   c1_ex_DLModel_28.obj
 0001:00060170       ?c1_createCustomLayer@c1_MWSwishLayer_c1_Yolov9t0_ex_DLModel_28058@@QEAAXPEAVMWTargetNetworkImpl@MWCudnnTarget@@PEAVMWTensorBase@@PEBD22QEAPEBD32H@Z 0000000180061170 f   c1_ex_DLModel_28.obj
 0001:000601e0       ?propagateSize@c1_MWSwishLayer_c1_Yolov9t0_ex_DLModel_28058@@UEAAXXZ 00000001800611e0 f   c1_ex_DLModel_28.obj
 0001:00060290       ?cleanupLayer@c1_MWSwishLayer_c1_Yolov9t0_ex_DLModel_28058@@UEAAXXZ 0000000180061290 f   c1_ex_DLModel_28.obj
 0001:000602a0       ?predict@c1_MWSwishLayer_c1_Yolov9t0_ex_DLModel_28058@@UEAAXXZ 00000001800612a0 f   c1_ex_DLModel_28.obj
 0001:00060310       ?setChartInstancePtr@c1_MWSwishLayer_c1_Yolov9t0_ex_DLModel_28058@@QEAAXPEAUSFc1_ex_DLModel_28InstanceStruct@@@Z 0000000180061310 f   c1_ex_DLModel_28.obj
 0001:00060340       ??0c1_MWSwishLayer_c1_Yolov9t0_ex_DLModel_28059@@QEAA@XZ 0000000180061340 f   c1_ex_DLModel_28.obj
 0001:00060380       ?c1_createCustomLayer@c1_MWSwishLayer_c1_Yolov9t0_ex_DLModel_28059@@QEAAXPEAVMWTargetNetworkImpl@MWCudnnTarget@@PEAVMWTensorBase@@PEBD22QEAPEBD32H@Z 0000000180061380 f   c1_ex_DLModel_28.obj
 0001:000603f0       ?propagateSize@c1_MWSwishLayer_c1_Yolov9t0_ex_DLModel_28059@@UEAAXXZ 00000001800613f0 f   c1_ex_DLModel_28.obj
 0001:000604a0       ?cleanupLayer@c1_MWSwishLayer_c1_Yolov9t0_ex_DLModel_28059@@UEAAXXZ 00000001800614a0 f   c1_ex_DLModel_28.obj
 0001:000604b0       ?predict@c1_MWSwishLayer_c1_Yolov9t0_ex_DLModel_28059@@UEAAXXZ 00000001800614b0 f   c1_ex_DLModel_28.obj
 0001:00060520       ?setChartInstancePtr@c1_MWSwishLayer_c1_Yolov9t0_ex_DLModel_28059@@QEAAXPEAUSFc1_ex_DLModel_28InstanceStruct@@@Z 0000000180061520 f   c1_ex_DLModel_28.obj
 0001:00060550       ??0c1_MWSwishLayer_c1_Yolov9t0_ex_DLModel_28060@@QEAA@XZ 0000000180061550 f   c1_ex_DLModel_28.obj
 0001:00060590       ?c1_createCustomLayer@c1_MWSwishLayer_c1_Yolov9t0_ex_DLModel_28060@@QEAAXPEAVMWTargetNetworkImpl@MWCudnnTarget@@PEAVMWTensorBase@@PEBD22QEAPEBD32H@Z 0000000180061590 f   c1_ex_DLModel_28.obj
 0001:00060600       ?propagateSize@c1_MWSwishLayer_c1_Yolov9t0_ex_DLModel_28060@@UEAAXXZ 0000000180061600 f   c1_ex_DLModel_28.obj
 0001:000606b0       ?cleanupLayer@c1_MWSwishLayer_c1_Yolov9t0_ex_DLModel_28060@@UEAAXXZ 00000001800616b0 f   c1_ex_DLModel_28.obj
 0001:000606c0       ?predict@c1_MWSwishLayer_c1_Yolov9t0_ex_DLModel_28060@@UEAAXXZ 00000001800616c0 f   c1_ex_DLModel_28.obj
 0001:00060730       ?setChartInstancePtr@c1_MWSwishLayer_c1_Yolov9t0_ex_DLModel_28060@@QEAAXPEAUSFc1_ex_DLModel_28InstanceStruct@@@Z 0000000180061730 f   c1_ex_DLModel_28.obj
 0001:00060760       ??0c1_MWSwishLayer_c1_Yolov9t0_ex_DLModel_28061@@QEAA@XZ 0000000180061760 f   c1_ex_DLModel_28.obj
 0001:000607a0       ?c1_createCustomLayer@c1_MWSwishLayer_c1_Yolov9t0_ex_DLModel_28061@@QEAAXPEAVMWTargetNetworkImpl@MWCudnnTarget@@PEAVMWTensorBase@@PEBD22QEAPEBD32H@Z 00000001800617a0 f   c1_ex_DLModel_28.obj
 0001:00060810       ?propagateSize@c1_MWSwishLayer_c1_Yolov9t0_ex_DLModel_28061@@UEAAXXZ 0000000180061810 f   c1_ex_DLModel_28.obj
 0001:000608c0       ?cleanupLayer@c1_MWSwishLayer_c1_Yolov9t0_ex_DLModel_28061@@UEAAXXZ 00000001800618c0 f   c1_ex_DLModel_28.obj
 0001:000608d0       ?predict@c1_MWSwishLayer_c1_Yolov9t0_ex_DLModel_28061@@UEAAXXZ 00000001800618d0 f   c1_ex_DLModel_28.obj
 0001:00060940       ?setChartInstancePtr@c1_MWSwishLayer_c1_Yolov9t0_ex_DLModel_28061@@QEAAXPEAUSFc1_ex_DLModel_28InstanceStruct@@@Z 0000000180061940 f   c1_ex_DLModel_28.obj
 0001:00060970       ??0c1_MWSwishLayer_c1_Yolov9t0_ex_DLModel_28062@@QEAA@XZ 0000000180061970 f   c1_ex_DLModel_28.obj
 0001:000609b0       ?c1_createCustomLayer@c1_MWSwishLayer_c1_Yolov9t0_ex_DLModel_28062@@QEAAXPEAVMWTargetNetworkImpl@MWCudnnTarget@@PEAVMWTensorBase@@PEBD22QEAPEBD32H@Z 00000001800619b0 f   c1_ex_DLModel_28.obj
 0001:00060a20       ?propagateSize@c1_MWSwishLayer_c1_Yolov9t0_ex_DLModel_28062@@UEAAXXZ 0000000180061a20 f   c1_ex_DLModel_28.obj
 0001:00060ad0       ?cleanupLayer@c1_MWSwishLayer_c1_Yolov9t0_ex_DLModel_28062@@UEAAXXZ 0000000180061ad0 f   c1_ex_DLModel_28.obj
 0001:00060ae0       ?predict@c1_MWSwishLayer_c1_Yolov9t0_ex_DLModel_28062@@UEAAXXZ 0000000180061ae0 f   c1_ex_DLModel_28.obj
 0001:00060b50       ?setChartInstancePtr@c1_MWSwishLayer_c1_Yolov9t0_ex_DLModel_28062@@QEAAXPEAUSFc1_ex_DLModel_28InstanceStruct@@@Z 0000000180061b50 f   c1_ex_DLModel_28.obj
 0001:00060b80       ??0c1_MWSwishLayer_c1_Yolov9t0_ex_DLModel_28063@@QEAA@XZ 0000000180061b80 f   c1_ex_DLModel_28.obj
 0001:00060bc0       ?c1_createCustomLayer@c1_MWSwishLayer_c1_Yolov9t0_ex_DLModel_28063@@QEAAXPEAVMWTargetNetworkImpl@MWCudnnTarget@@PEAVMWTensorBase@@PEBD22QEAPEBD32H@Z 0000000180061bc0 f   c1_ex_DLModel_28.obj
 0001:00060c30       ?propagateSize@c1_MWSwishLayer_c1_Yolov9t0_ex_DLModel_28063@@UEAAXXZ 0000000180061c30 f   c1_ex_DLModel_28.obj
 0001:00060ce0       ?cleanupLayer@c1_MWSwishLayer_c1_Yolov9t0_ex_DLModel_28063@@UEAAXXZ 0000000180061ce0 f   c1_ex_DLModel_28.obj
 0001:00060cf0       ?predict@c1_MWSwishLayer_c1_Yolov9t0_ex_DLModel_28063@@UEAAXXZ 0000000180061cf0 f   c1_ex_DLModel_28.obj
 0001:00060d60       ?setChartInstancePtr@c1_MWSwishLayer_c1_Yolov9t0_ex_DLModel_28063@@QEAAXPEAUSFc1_ex_DLModel_28InstanceStruct@@@Z 0000000180061d60 f   c1_ex_DLModel_28.obj
 0001:00060d90       ??0c1_MWSwishLayer_c1_Yolov9t0_ex_DLModel_28064@@QEAA@XZ 0000000180061d90 f   c1_ex_DLModel_28.obj
 0001:00060dd0       ?c1_createCustomLayer@c1_MWSwishLayer_c1_Yolov9t0_ex_DLModel_28064@@QEAAXPEAVMWTargetNetworkImpl@MWCudnnTarget@@PEAVMWTensorBase@@PEBD22QEAPEBD32H@Z 0000000180061dd0 f   c1_ex_DLModel_28.obj
 0001:00060e40       ?propagateSize@c1_MWSwishLayer_c1_Yolov9t0_ex_DLModel_28064@@UEAAXXZ 0000000180061e40 f   c1_ex_DLModel_28.obj
 0001:00060ef0       ?cleanupLayer@c1_MWSwishLayer_c1_Yolov9t0_ex_DLModel_28064@@UEAAXXZ 0000000180061ef0 f   c1_ex_DLModel_28.obj
 0001:00060f00       ?predict@c1_MWSwishLayer_c1_Yolov9t0_ex_DLModel_28064@@UEAAXXZ 0000000180061f00 f   c1_ex_DLModel_28.obj
 0001:00060f70       ?setChartInstancePtr@c1_MWSwishLayer_c1_Yolov9t0_ex_DLModel_28064@@QEAAXPEAUSFc1_ex_DLModel_28InstanceStruct@@@Z 0000000180061f70 f   c1_ex_DLModel_28.obj
 0001:00060fa0       ??0c1_MWSwishLayer_c1_Yolov9t0_ex_DLModel_28065@@QEAA@XZ 0000000180061fa0 f   c1_ex_DLModel_28.obj
 0001:00060fe0       ?c1_createCustomLayer@c1_MWSwishLayer_c1_Yolov9t0_ex_DLModel_28065@@QEAAXPEAVMWTargetNetworkImpl@MWCudnnTarget@@PEAVMWTensorBase@@PEBD22QEAPEBD32H@Z 0000000180061fe0 f   c1_ex_DLModel_28.obj
 0001:00061050       ?propagateSize@c1_MWSwishLayer_c1_Yolov9t0_ex_DLModel_28065@@UEAAXXZ 0000000180062050 f   c1_ex_DLModel_28.obj
 0001:00061100       ?cleanupLayer@c1_MWSwishLayer_c1_Yolov9t0_ex_DLModel_28065@@UEAAXXZ 0000000180062100 f   c1_ex_DLModel_28.obj
 0001:00061110       ?predict@c1_MWSwishLayer_c1_Yolov9t0_ex_DLModel_28065@@UEAAXXZ 0000000180062110 f   c1_ex_DLModel_28.obj
 0001:00061180       ?setChartInstancePtr@c1_MWSwishLayer_c1_Yolov9t0_ex_DLModel_28065@@QEAAXPEAUSFc1_ex_DLModel_28InstanceStruct@@@Z 0000000180062180 f   c1_ex_DLModel_28.obj
 0001:000611b0       ??0c1_MWSwishLayer_c1_Yolov9t0_ex_DLModel_28066@@QEAA@XZ 00000001800621b0 f   c1_ex_DLModel_28.obj
 0001:000611f0       ?c1_createCustomLayer@c1_MWSwishLayer_c1_Yolov9t0_ex_DLModel_28066@@QEAAXPEAVMWTargetNetworkImpl@MWCudnnTarget@@PEAVMWTensorBase@@PEBD22QEAPEBD32H@Z 00000001800621f0 f   c1_ex_DLModel_28.obj
 0001:00061260       ?propagateSize@c1_MWSwishLayer_c1_Yolov9t0_ex_DLModel_28066@@UEAAXXZ 0000000180062260 f   c1_ex_DLModel_28.obj
 0001:00061310       ?cleanupLayer@c1_MWSwishLayer_c1_Yolov9t0_ex_DLModel_28066@@UEAAXXZ 0000000180062310 f   c1_ex_DLModel_28.obj
 0001:00061320       ?predict@c1_MWSwishLayer_c1_Yolov9t0_ex_DLModel_28066@@UEAAXXZ 0000000180062320 f   c1_ex_DLModel_28.obj
 0001:00061390       ?setChartInstancePtr@c1_MWSwishLayer_c1_Yolov9t0_ex_DLModel_28066@@QEAAXPEAUSFc1_ex_DLModel_28InstanceStruct@@@Z 0000000180062390 f   c1_ex_DLModel_28.obj
 0001:000613c0       ??0c1_MWSwishLayer_c1_Yolov9t0_ex_DLModel_28067@@QEAA@XZ 00000001800623c0 f   c1_ex_DLModel_28.obj
 0001:00061400       ?c1_createCustomLayer@c1_MWSwishLayer_c1_Yolov9t0_ex_DLModel_28067@@QEAAXPEAVMWTargetNetworkImpl@MWCudnnTarget@@PEAVMWTensorBase@@PEBD22QEAPEBD32H@Z 0000000180062400 f   c1_ex_DLModel_28.obj
 0001:00061470       ?propagateSize@c1_MWSwishLayer_c1_Yolov9t0_ex_DLModel_28067@@UEAAXXZ 0000000180062470 f   c1_ex_DLModel_28.obj
 0001:00061520       ?cleanupLayer@c1_MWSwishLayer_c1_Yolov9t0_ex_DLModel_28067@@UEAAXXZ 0000000180062520 f   c1_ex_DLModel_28.obj
 0001:00061530       ?predict@c1_MWSwishLayer_c1_Yolov9t0_ex_DLModel_28067@@UEAAXXZ 0000000180062530 f   c1_ex_DLModel_28.obj
 0001:000615a0       ?setChartInstancePtr@c1_MWSwishLayer_c1_Yolov9t0_ex_DLModel_28067@@QEAAXPEAUSFc1_ex_DLModel_28InstanceStruct@@@Z 00000001800625a0 f   c1_ex_DLModel_28.obj
 0001:000615d0       ??0c1_MWSwishLayer_c1_Yolov9t0_ex_DLModel_28068@@QEAA@XZ 00000001800625d0 f   c1_ex_DLModel_28.obj
 0001:00061610       ?c1_createCustomLayer@c1_MWSwishLayer_c1_Yolov9t0_ex_DLModel_28068@@QEAAXPEAVMWTargetNetworkImpl@MWCudnnTarget@@PEAVMWTensorBase@@PEBD22QEAPEBD32H@Z 0000000180062610 f   c1_ex_DLModel_28.obj
 0001:00061680       ?propagateSize@c1_MWSwishLayer_c1_Yolov9t0_ex_DLModel_28068@@UEAAXXZ 0000000180062680 f   c1_ex_DLModel_28.obj
 0001:00061730       ?cleanupLayer@c1_MWSwishLayer_c1_Yolov9t0_ex_DLModel_28068@@UEAAXXZ 0000000180062730 f   c1_ex_DLModel_28.obj
 0001:00061740       ?predict@c1_MWSwishLayer_c1_Yolov9t0_ex_DLModel_28068@@UEAAXXZ 0000000180062740 f   c1_ex_DLModel_28.obj
 0001:000617b0       ?setChartInstancePtr@c1_MWSwishLayer_c1_Yolov9t0_ex_DLModel_28068@@QEAAXPEAUSFc1_ex_DLModel_28InstanceStruct@@@Z 00000001800627b0 f   c1_ex_DLModel_28.obj
 0001:000617e0       ??0c1_MWSwishLayer_c1_Yolov9t0_ex_DLModel_28069@@QEAA@XZ 00000001800627e0 f   c1_ex_DLModel_28.obj
 0001:00061820       ?c1_createCustomLayer@c1_MWSwishLayer_c1_Yolov9t0_ex_DLModel_28069@@QEAAXPEAVMWTargetNetworkImpl@MWCudnnTarget@@PEAVMWTensorBase@@PEBD22QEAPEBD32H@Z 0000000180062820 f   c1_ex_DLModel_28.obj
 0001:00061890       ?propagateSize@c1_MWSwishLayer_c1_Yolov9t0_ex_DLModel_28069@@UEAAXXZ 0000000180062890 f   c1_ex_DLModel_28.obj
 0001:00061940       ?cleanupLayer@c1_MWSwishLayer_c1_Yolov9t0_ex_DLModel_28069@@UEAAXXZ 0000000180062940 f   c1_ex_DLModel_28.obj
 0001:00061950       ?predict@c1_MWSwishLayer_c1_Yolov9t0_ex_DLModel_28069@@UEAAXXZ 0000000180062950 f   c1_ex_DLModel_28.obj
 0001:000619c0       ?setChartInstancePtr@c1_MWSwishLayer_c1_Yolov9t0_ex_DLModel_28069@@QEAAXPEAUSFc1_ex_DLModel_28InstanceStruct@@@Z 00000001800629c0 f   c1_ex_DLModel_28.obj
 0001:000619f0       ??0c1_MWSwishLayer_c1_Yolov9t0_ex_DLModel_28070@@QEAA@XZ 00000001800629f0 f   c1_ex_DLModel_28.obj
 0001:00061a30       ?c1_createCustomLayer@c1_MWSwishLayer_c1_Yolov9t0_ex_DLModel_28070@@QEAAXPEAVMWTargetNetworkImpl@MWCudnnTarget@@PEAVMWTensorBase@@PEBD22QEAPEBD32H@Z 0000000180062a30 f   c1_ex_DLModel_28.obj
 0001:00061aa0       ?propagateSize@c1_MWSwishLayer_c1_Yolov9t0_ex_DLModel_28070@@UEAAXXZ 0000000180062aa0 f   c1_ex_DLModel_28.obj
 0001:00061b50       ?cleanupLayer@c1_MWSwishLayer_c1_Yolov9t0_ex_DLModel_28070@@UEAAXXZ 0000000180062b50 f   c1_ex_DLModel_28.obj
 0001:00061b60       ?predict@c1_MWSwishLayer_c1_Yolov9t0_ex_DLModel_28070@@UEAAXXZ 0000000180062b60 f   c1_ex_DLModel_28.obj
 0001:00061bd0       ?setChartInstancePtr@c1_MWSwishLayer_c1_Yolov9t0_ex_DLModel_28070@@QEAAXPEAUSFc1_ex_DLModel_28InstanceStruct@@@Z 0000000180062bd0 f   c1_ex_DLModel_28.obj
 0001:00061c00       ??0c1_MWSwishLayer_c1_Yolov9t0_ex_DLModel_28071@@QEAA@XZ 0000000180062c00 f   c1_ex_DLModel_28.obj
 0001:00061c40       ?c1_createCustomLayer@c1_MWSwishLayer_c1_Yolov9t0_ex_DLModel_28071@@QEAAXPEAVMWTargetNetworkImpl@MWCudnnTarget@@PEAVMWTensorBase@@PEBD22QEAPEBD32H@Z 0000000180062c40 f   c1_ex_DLModel_28.obj
 0001:00061cb0       ?propagateSize@c1_MWSwishLayer_c1_Yolov9t0_ex_DLModel_28071@@UEAAXXZ 0000000180062cb0 f   c1_ex_DLModel_28.obj
 0001:00061d60       ?cleanupLayer@c1_MWSwishLayer_c1_Yolov9t0_ex_DLModel_28071@@UEAAXXZ 0000000180062d60 f   c1_ex_DLModel_28.obj
 0001:00061d70       ?predict@c1_MWSwishLayer_c1_Yolov9t0_ex_DLModel_28071@@UEAAXXZ 0000000180062d70 f   c1_ex_DLModel_28.obj
 0001:00061de0       ?setChartInstancePtr@c1_MWSwishLayer_c1_Yolov9t0_ex_DLModel_28071@@QEAAXPEAUSFc1_ex_DLModel_28InstanceStruct@@@Z 0000000180062de0 f   c1_ex_DLModel_28.obj
 0001:00061e10       ??0c1_MWSwishLayer_c1_Yolov9t0_ex_DLModel_28072@@QEAA@XZ 0000000180062e10 f   c1_ex_DLModel_28.obj
 0001:00061e50       ?c1_createCustomLayer@c1_MWSwishLayer_c1_Yolov9t0_ex_DLModel_28072@@QEAAXPEAVMWTargetNetworkImpl@MWCudnnTarget@@PEAVMWTensorBase@@PEBD22QEAPEBD32H@Z 0000000180062e50 f   c1_ex_DLModel_28.obj
 0001:00061ec0       ?propagateSize@c1_MWSwishLayer_c1_Yolov9t0_ex_DLModel_28072@@UEAAXXZ 0000000180062ec0 f   c1_ex_DLModel_28.obj
 0001:00061f70       ?cleanupLayer@c1_MWSwishLayer_c1_Yolov9t0_ex_DLModel_28072@@UEAAXXZ 0000000180062f70 f   c1_ex_DLModel_28.obj
 0001:00061f80       ?predict@c1_MWSwishLayer_c1_Yolov9t0_ex_DLModel_28072@@UEAAXXZ 0000000180062f80 f   c1_ex_DLModel_28.obj
 0001:00061ff0       ?setChartInstancePtr@c1_MWSwishLayer_c1_Yolov9t0_ex_DLModel_28072@@QEAAXPEAUSFc1_ex_DLModel_28InstanceStruct@@@Z 0000000180062ff0 f   c1_ex_DLModel_28.obj
 0001:00062020       ??0c1_MWSwishLayer_c1_Yolov9t0_ex_DLModel_28073@@QEAA@XZ 0000000180063020 f   c1_ex_DLModel_28.obj
 0001:00062060       ?c1_createCustomLayer@c1_MWSwishLayer_c1_Yolov9t0_ex_DLModel_28073@@QEAAXPEAVMWTargetNetworkImpl@MWCudnnTarget@@PEAVMWTensorBase@@PEBD22QEAPEBD32H@Z 0000000180063060 f   c1_ex_DLModel_28.obj
 0001:000620d0       ?propagateSize@c1_MWSwishLayer_c1_Yolov9t0_ex_DLModel_28073@@UEAAXXZ 00000001800630d0 f   c1_ex_DLModel_28.obj
 0001:00062180       ?cleanupLayer@c1_MWSwishLayer_c1_Yolov9t0_ex_DLModel_28073@@UEAAXXZ 0000000180063180 f   c1_ex_DLModel_28.obj
 0001:00062190       ?predict@c1_MWSwishLayer_c1_Yolov9t0_ex_DLModel_28073@@UEAAXXZ 0000000180063190 f   c1_ex_DLModel_28.obj
 0001:00062200       ?setChartInstancePtr@c1_MWSwishLayer_c1_Yolov9t0_ex_DLModel_28073@@QEAAXPEAUSFc1_ex_DLModel_28InstanceStruct@@@Z 0000000180063200 f   c1_ex_DLModel_28.obj
 0001:00062230       ??0c1_MWSwishLayer_c1_Yolov9t0_ex_DLModel_28074@@QEAA@XZ 0000000180063230 f   c1_ex_DLModel_28.obj
 0001:00062270       ?c1_createCustomLayer@c1_MWSwishLayer_c1_Yolov9t0_ex_DLModel_28074@@QEAAXPEAVMWTargetNetworkImpl@MWCudnnTarget@@PEAVMWTensorBase@@PEBD22QEAPEBD32H@Z 0000000180063270 f   c1_ex_DLModel_28.obj
 0001:000622e0       ?propagateSize@c1_MWSwishLayer_c1_Yolov9t0_ex_DLModel_28074@@UEAAXXZ 00000001800632e0 f   c1_ex_DLModel_28.obj
 0001:00062390       ?cleanupLayer@c1_MWSwishLayer_c1_Yolov9t0_ex_DLModel_28074@@UEAAXXZ 0000000180063390 f   c1_ex_DLModel_28.obj
 0001:000623a0       ?predict@c1_MWSwishLayer_c1_Yolov9t0_ex_DLModel_28074@@UEAAXXZ 00000001800633a0 f   c1_ex_DLModel_28.obj
 0001:00062410       ?setChartInstancePtr@c1_MWSwishLayer_c1_Yolov9t0_ex_DLModel_28074@@QEAAXPEAUSFc1_ex_DLModel_28InstanceStruct@@@Z 0000000180063410 f   c1_ex_DLModel_28.obj
 0001:00062440       ??0c1_MWSwishLayer_c1_Yolov9t0_ex_DLModel_28075@@QEAA@XZ 0000000180063440 f   c1_ex_DLModel_28.obj
 0001:00062480       ?c1_createCustomLayer@c1_MWSwishLayer_c1_Yolov9t0_ex_DLModel_28075@@QEAAXPEAVMWTargetNetworkImpl@MWCudnnTarget@@PEAVMWTensorBase@@PEBD22QEAPEBD32H@Z 0000000180063480 f   c1_ex_DLModel_28.obj
 0001:000624f0       ?propagateSize@c1_MWSwishLayer_c1_Yolov9t0_ex_DLModel_28075@@UEAAXXZ 00000001800634f0 f   c1_ex_DLModel_28.obj
 0001:000625a0       ?cleanupLayer@c1_MWSwishLayer_c1_Yolov9t0_ex_DLModel_28075@@UEAAXXZ 00000001800635a0 f   c1_ex_DLModel_28.obj
 0001:000625b0       ?predict@c1_MWSwishLayer_c1_Yolov9t0_ex_DLModel_28075@@UEAAXXZ 00000001800635b0 f   c1_ex_DLModel_28.obj
 0001:00062620       ?setChartInstancePtr@c1_MWSwishLayer_c1_Yolov9t0_ex_DLModel_28075@@QEAAXPEAUSFc1_ex_DLModel_28InstanceStruct@@@Z 0000000180063620 f   c1_ex_DLModel_28.obj
 0001:00062650       ??0c1_MWSwishLayer_c1_Yolov9t0_ex_DLModel_28076@@QEAA@XZ 0000000180063650 f   c1_ex_DLModel_28.obj
 0001:00062690       ?c1_createCustomLayer@c1_MWSwishLayer_c1_Yolov9t0_ex_DLModel_28076@@QEAAXPEAVMWTargetNetworkImpl@MWCudnnTarget@@PEAVMWTensorBase@@PEBD22QEAPEBD32H@Z 0000000180063690 f   c1_ex_DLModel_28.obj
 0001:00062700       ?propagateSize@c1_MWSwishLayer_c1_Yolov9t0_ex_DLModel_28076@@UEAAXXZ 0000000180063700 f   c1_ex_DLModel_28.obj
 0001:000627b0       ?cleanupLayer@c1_MWSwishLayer_c1_Yolov9t0_ex_DLModel_28076@@UEAAXXZ 00000001800637b0 f   c1_ex_DLModel_28.obj
 0001:000627c0       ?predict@c1_MWSwishLayer_c1_Yolov9t0_ex_DLModel_28076@@UEAAXXZ 00000001800637c0 f   c1_ex_DLModel_28.obj
 0001:00062830       ?setChartInstancePtr@c1_MWSwishLayer_c1_Yolov9t0_ex_DLModel_28076@@QEAAXPEAUSFc1_ex_DLModel_28InstanceStruct@@@Z 0000000180063830 f   c1_ex_DLModel_28.obj
 0001:00062860       ??0c1_MWSwishLayer_c1_Yolov9t0_ex_DLModel_28077@@QEAA@XZ 0000000180063860 f   c1_ex_DLModel_28.obj
 0001:000628a0       ?c1_createCustomLayer@c1_MWSwishLayer_c1_Yolov9t0_ex_DLModel_28077@@QEAAXPEAVMWTargetNetworkImpl@MWCudnnTarget@@PEAVMWTensorBase@@PEBD22QEAPEBD32H@Z 00000001800638a0 f   c1_ex_DLModel_28.obj
 0001:00062910       ?propagateSize@c1_MWSwishLayer_c1_Yolov9t0_ex_DLModel_28077@@UEAAXXZ 0000000180063910 f   c1_ex_DLModel_28.obj
 0001:000629c0       ?cleanupLayer@c1_MWSwishLayer_c1_Yolov9t0_ex_DLModel_28077@@UEAAXXZ 00000001800639c0 f   c1_ex_DLModel_28.obj
 0001:000629d0       ?predict@c1_MWSwishLayer_c1_Yolov9t0_ex_DLModel_28077@@UEAAXXZ 00000001800639d0 f   c1_ex_DLModel_28.obj
 0001:00062a40       ?setChartInstancePtr@c1_MWSwishLayer_c1_Yolov9t0_ex_DLModel_28077@@QEAAXPEAUSFc1_ex_DLModel_28InstanceStruct@@@Z 0000000180063a40 f   c1_ex_DLModel_28.obj
 0001:00062a70       ??0c1_MWResize2DLayer_c1_Yolov9t0_ex_DLModel_2801@@QEAA@XZ 0000000180063a70 f   c1_ex_DLModel_28.obj
 0001:00062ab0       ?c1_createCustomLayer@c1_MWResize2DLayer_c1_Yolov9t0_ex_DLModel_2801@@QEAAXPEAVMWTargetNetworkImpl@MWCudnnTarget@@PEAVMWTensorBase@@1EPEBD2222QEAPEBD32H@Z 0000000180063ab0 f   c1_ex_DLModel_28.obj
 0001:00062b20       ?propagateSize@c1_MWResize2DLayer_c1_Yolov9t0_ex_DLModel_2801@@UEAAXXZ 0000000180063b20 f   c1_ex_DLModel_28.obj
 0001:00062cf0       ?cleanupLayer@c1_MWResize2DLayer_c1_Yolov9t0_ex_DLModel_2801@@UEAAXXZ 0000000180063cf0 f   c1_ex_DLModel_28.obj
 0001:00062d00       ?predict@c1_MWResize2DLayer_c1_Yolov9t0_ex_DLModel_2801@@UEAAXXZ 0000000180063d00 f   c1_ex_DLModel_28.obj
 0001:00062de0       ?setChartInstancePtr@c1_MWResize2DLayer_c1_Yolov9t0_ex_DLModel_2801@@QEAAXPEAUSFc1_ex_DLModel_28InstanceStruct@@@Z 0000000180063de0 f   c1_ex_DLModel_28.obj
 0001:00062e10       ??0c1_MWSwishLayer_c1_Yolov9t0_ex_DLModel_28078@@QEAA@XZ 0000000180063e10 f   c1_ex_DLModel_28.obj
 0001:00062e50       ?c1_createCustomLayer@c1_MWSwishLayer_c1_Yolov9t0_ex_DLModel_28078@@QEAAXPEAVMWTargetNetworkImpl@MWCudnnTarget@@PEAVMWTensorBase@@PEBD22QEAPEBD32H@Z 0000000180063e50 f   c1_ex_DLModel_28.obj
 0001:00062ec0       ?propagateSize@c1_MWSwishLayer_c1_Yolov9t0_ex_DLModel_28078@@UEAAXXZ 0000000180063ec0 f   c1_ex_DLModel_28.obj
 0001:00062f70       ?cleanupLayer@c1_MWSwishLayer_c1_Yolov9t0_ex_DLModel_28078@@UEAAXXZ 0000000180063f70 f   c1_ex_DLModel_28.obj
 0001:00062f80       ?predict@c1_MWSwishLayer_c1_Yolov9t0_ex_DLModel_28078@@UEAAXXZ 0000000180063f80 f   c1_ex_DLModel_28.obj
 0001:00062ff0       ?setChartInstancePtr@c1_MWSwishLayer_c1_Yolov9t0_ex_DLModel_28078@@QEAAXPEAUSFc1_ex_DLModel_28InstanceStruct@@@Z 0000000180063ff0 f   c1_ex_DLModel_28.obj
 0001:00063020       ??0c1_MWCustomSliceLayer_c1_Yolov9t0_ex_DLModel_2805@@QEAA@XZ 0000000180064020 f   c1_ex_DLModel_28.obj
 0001:00063060       ?c1_createCustomLayer@c1_MWCustomSliceLayer_c1_Yolov9t0_ex_DLModel_2805@@QEAAXPEAVMWTargetNetworkImpl@MWCudnnTarget@@PEAVMWTensorBase@@PEBDQEAPEBD322HH@Z 0000000180064060 f   c1_ex_DLModel_28.obj
 0001:000630e0       ?propagateSize@c1_MWCustomSliceLayer_c1_Yolov9t0_ex_DLModel_2805@@UEAAXXZ 00000001800640e0 f   c1_ex_DLModel_28.obj
 0001:000632e0       ?cleanupLayer@c1_MWCustomSliceLayer_c1_Yolov9t0_ex_DLModel_2805@@UEAAXXZ 00000001800642e0 f   c1_ex_DLModel_28.obj
 0001:000632f0       ?predict@c1_MWCustomSliceLayer_c1_Yolov9t0_ex_DLModel_2805@@UEAAXXZ 00000001800642f0 f   c1_ex_DLModel_28.obj
 0001:000633d0       ?setChartInstancePtr@c1_MWCustomSliceLayer_c1_Yolov9t0_ex_DLModel_2805@@QEAAXPEAUSFc1_ex_DLModel_28InstanceStruct@@@Z 00000001800643d0 f   c1_ex_DLModel_28.obj
 0001:00063400       ??0c1_MWSwishLayer_c1_Yolov9t0_ex_DLModel_28079@@QEAA@XZ 0000000180064400 f   c1_ex_DLModel_28.obj
 0001:00063440       ?c1_createCustomLayer@c1_MWSwishLayer_c1_Yolov9t0_ex_DLModel_28079@@QEAAXPEAVMWTargetNetworkImpl@MWCudnnTarget@@PEAVMWTensorBase@@PEBD22QEAPEBD32H@Z 0000000180064440 f   c1_ex_DLModel_28.obj
 0001:000634b0       ?propagateSize@c1_MWSwishLayer_c1_Yolov9t0_ex_DLModel_28079@@UEAAXXZ 00000001800644b0 f   c1_ex_DLModel_28.obj
 0001:00063560       ?cleanupLayer@c1_MWSwishLayer_c1_Yolov9t0_ex_DLModel_28079@@UEAAXXZ 0000000180064560 f   c1_ex_DLModel_28.obj
 0001:00063570       ?predict@c1_MWSwishLayer_c1_Yolov9t0_ex_DLModel_28079@@UEAAXXZ 0000000180064570 f   c1_ex_DLModel_28.obj
 0001:000635e0       ?setChartInstancePtr@c1_MWSwishLayer_c1_Yolov9t0_ex_DLModel_28079@@QEAAXPEAUSFc1_ex_DLModel_28InstanceStruct@@@Z 00000001800645e0 f   c1_ex_DLModel_28.obj
 0001:00063610       ??0c1_MWSwishLayer_c1_Yolov9t0_ex_DLModel_28080@@QEAA@XZ 0000000180064610 f   c1_ex_DLModel_28.obj
 0001:00063650       ?c1_createCustomLayer@c1_MWSwishLayer_c1_Yolov9t0_ex_DLModel_28080@@QEAAXPEAVMWTargetNetworkImpl@MWCudnnTarget@@PEAVMWTensorBase@@PEBD22QEAPEBD32H@Z 0000000180064650 f   c1_ex_DLModel_28.obj
 0001:000636c0       ?propagateSize@c1_MWSwishLayer_c1_Yolov9t0_ex_DLModel_28080@@UEAAXXZ 00000001800646c0 f   c1_ex_DLModel_28.obj
 0001:00063770       ?cleanupLayer@c1_MWSwishLayer_c1_Yolov9t0_ex_DLModel_28080@@UEAAXXZ 0000000180064770 f   c1_ex_DLModel_28.obj
 0001:00063780       ?predict@c1_MWSwishLayer_c1_Yolov9t0_ex_DLModel_28080@@UEAAXXZ 0000000180064780 f   c1_ex_DLModel_28.obj
 0001:000637f0       ?setChartInstancePtr@c1_MWSwishLayer_c1_Yolov9t0_ex_DLModel_28080@@QEAAXPEAUSFc1_ex_DLModel_28InstanceStruct@@@Z 00000001800647f0 f   c1_ex_DLModel_28.obj
 0001:00063820       ??0c1_MWSwishLayer_c1_Yolov9t0_ex_DLModel_28081@@QEAA@XZ 0000000180064820 f   c1_ex_DLModel_28.obj
 0001:00063860       ?c1_createCustomLayer@c1_MWSwishLayer_c1_Yolov9t0_ex_DLModel_28081@@QEAAXPEAVMWTargetNetworkImpl@MWCudnnTarget@@PEAVMWTensorBase@@PEBD22QEAPEBD32H@Z 0000000180064860 f   c1_ex_DLModel_28.obj
 0001:000638d0       ?propagateSize@c1_MWSwishLayer_c1_Yolov9t0_ex_DLModel_28081@@UEAAXXZ 00000001800648d0 f   c1_ex_DLModel_28.obj
 0001:00063980       ?cleanupLayer@c1_MWSwishLayer_c1_Yolov9t0_ex_DLModel_28081@@UEAAXXZ 0000000180064980 f   c1_ex_DLModel_28.obj
 0001:00063990       ?predict@c1_MWSwishLayer_c1_Yolov9t0_ex_DLModel_28081@@UEAAXXZ 0000000180064990 f   c1_ex_DLModel_28.obj
 0001:00063a00       ?setChartInstancePtr@c1_MWSwishLayer_c1_Yolov9t0_ex_DLModel_28081@@QEAAXPEAUSFc1_ex_DLModel_28InstanceStruct@@@Z 0000000180064a00 f   c1_ex_DLModel_28.obj
 0001:00063a30       ??0c1_MWSwishLayer_c1_Yolov9t0_ex_DLModel_28082@@QEAA@XZ 0000000180064a30 f   c1_ex_DLModel_28.obj
 0001:00063a70       ?c1_createCustomLayer@c1_MWSwishLayer_c1_Yolov9t0_ex_DLModel_28082@@QEAAXPEAVMWTargetNetworkImpl@MWCudnnTarget@@PEAVMWTensorBase@@PEBD22QEAPEBD32H@Z 0000000180064a70 f   c1_ex_DLModel_28.obj
 0001:00063ae0       ?propagateSize@c1_MWSwishLayer_c1_Yolov9t0_ex_DLModel_28082@@UEAAXXZ 0000000180064ae0 f   c1_ex_DLModel_28.obj
 0001:00063b90       ?cleanupLayer@c1_MWSwishLayer_c1_Yolov9t0_ex_DLModel_28082@@UEAAXXZ 0000000180064b90 f   c1_ex_DLModel_28.obj
 0001:00063ba0       ?predict@c1_MWSwishLayer_c1_Yolov9t0_ex_DLModel_28082@@UEAAXXZ 0000000180064ba0 f   c1_ex_DLModel_28.obj
 0001:00063c10       ?setChartInstancePtr@c1_MWSwishLayer_c1_Yolov9t0_ex_DLModel_28082@@QEAAXPEAUSFc1_ex_DLModel_28InstanceStruct@@@Z 0000000180064c10 f   c1_ex_DLModel_28.obj
 0001:00063c40       ??0c1_MWSwishLayer_c1_Yolov9t0_ex_DLModel_28083@@QEAA@XZ 0000000180064c40 f   c1_ex_DLModel_28.obj
 0001:00063c80       ?c1_createCustomLayer@c1_MWSwishLayer_c1_Yolov9t0_ex_DLModel_28083@@QEAAXPEAVMWTargetNetworkImpl@MWCudnnTarget@@PEAVMWTensorBase@@PEBD22QEAPEBD32H@Z 0000000180064c80 f   c1_ex_DLModel_28.obj
 0001:00063cf0       ?propagateSize@c1_MWSwishLayer_c1_Yolov9t0_ex_DLModel_28083@@UEAAXXZ 0000000180064cf0 f   c1_ex_DLModel_28.obj
 0001:00063da0       ?cleanupLayer@c1_MWSwishLayer_c1_Yolov9t0_ex_DLModel_28083@@UEAAXXZ 0000000180064da0 f   c1_ex_DLModel_28.obj
 0001:00063db0       ?predict@c1_MWSwishLayer_c1_Yolov9t0_ex_DLModel_28083@@UEAAXXZ 0000000180064db0 f   c1_ex_DLModel_28.obj
 0001:00063e20       ?setChartInstancePtr@c1_MWSwishLayer_c1_Yolov9t0_ex_DLModel_28083@@QEAAXPEAUSFc1_ex_DLModel_28InstanceStruct@@@Z 0000000180064e20 f   c1_ex_DLModel_28.obj
 0001:00063e50       ??0c1_MWSwishLayer_c1_Yolov9t0_ex_DLModel_28084@@QEAA@XZ 0000000180064e50 f   c1_ex_DLModel_28.obj
 0001:00063e90       ?c1_createCustomLayer@c1_MWSwishLayer_c1_Yolov9t0_ex_DLModel_28084@@QEAAXPEAVMWTargetNetworkImpl@MWCudnnTarget@@PEAVMWTensorBase@@PEBD22QEAPEBD32H@Z 0000000180064e90 f   c1_ex_DLModel_28.obj
 0001:00063f00       ?propagateSize@c1_MWSwishLayer_c1_Yolov9t0_ex_DLModel_28084@@UEAAXXZ 0000000180064f00 f   c1_ex_DLModel_28.obj
 0001:00063fb0       ?cleanupLayer@c1_MWSwishLayer_c1_Yolov9t0_ex_DLModel_28084@@UEAAXXZ 0000000180064fb0 f   c1_ex_DLModel_28.obj
 0001:00063fc0       ?predict@c1_MWSwishLayer_c1_Yolov9t0_ex_DLModel_28084@@UEAAXXZ 0000000180064fc0 f   c1_ex_DLModel_28.obj
 0001:00064030       ?setChartInstancePtr@c1_MWSwishLayer_c1_Yolov9t0_ex_DLModel_28084@@QEAAXPEAUSFc1_ex_DLModel_28InstanceStruct@@@Z 0000000180065030 f   c1_ex_DLModel_28.obj
 0001:00064060       ??0c1_MWSwishLayer_c1_Yolov9t0_ex_DLModel_28085@@QEAA@XZ 0000000180065060 f   c1_ex_DLModel_28.obj
 0001:000640a0       ?c1_createCustomLayer@c1_MWSwishLayer_c1_Yolov9t0_ex_DLModel_28085@@QEAAXPEAVMWTargetNetworkImpl@MWCudnnTarget@@PEAVMWTensorBase@@PEBD22QEAPEBD32H@Z 00000001800650a0 f   c1_ex_DLModel_28.obj
 0001:00064110       ?propagateSize@c1_MWSwishLayer_c1_Yolov9t0_ex_DLModel_28085@@UEAAXXZ 0000000180065110 f   c1_ex_DLModel_28.obj
 0001:000641c0       ?cleanupLayer@c1_MWSwishLayer_c1_Yolov9t0_ex_DLModel_28085@@UEAAXXZ 00000001800651c0 f   c1_ex_DLModel_28.obj
 0001:000641d0       ?predict@c1_MWSwishLayer_c1_Yolov9t0_ex_DLModel_28085@@UEAAXXZ 00000001800651d0 f   c1_ex_DLModel_28.obj
 0001:00064240       ?setChartInstancePtr@c1_MWSwishLayer_c1_Yolov9t0_ex_DLModel_28085@@QEAAXPEAUSFc1_ex_DLModel_28InstanceStruct@@@Z 0000000180065240 f   c1_ex_DLModel_28.obj
 0001:00064270       ??0c1_MWSwishLayer_c1_Yolov9t0_ex_DLModel_28086@@QEAA@XZ 0000000180065270 f   c1_ex_DLModel_28.obj
 0001:000642b0       ?c1_createCustomLayer@c1_MWSwishLayer_c1_Yolov9t0_ex_DLModel_28086@@QEAAXPEAVMWTargetNetworkImpl@MWCudnnTarget@@PEAVMWTensorBase@@PEBD22QEAPEBD32H@Z 00000001800652b0 f   c1_ex_DLModel_28.obj
 0001:00064320       ?propagateSize@c1_MWSwishLayer_c1_Yolov9t0_ex_DLModel_28086@@UEAAXXZ 0000000180065320 f   c1_ex_DLModel_28.obj
 0001:000643d0       ?cleanupLayer@c1_MWSwishLayer_c1_Yolov9t0_ex_DLModel_28086@@UEAAXXZ 00000001800653d0 f   c1_ex_DLModel_28.obj
 0001:000643e0       ?predict@c1_MWSwishLayer_c1_Yolov9t0_ex_DLModel_28086@@UEAAXXZ 00000001800653e0 f   c1_ex_DLModel_28.obj
 0001:00064450       ?setChartInstancePtr@c1_MWSwishLayer_c1_Yolov9t0_ex_DLModel_28086@@QEAAXPEAUSFc1_ex_DLModel_28InstanceStruct@@@Z 0000000180065450 f   c1_ex_DLModel_28.obj
 0001:00064480       ??0c1_MWSwishLayer_c1_Yolov9t0_ex_DLModel_28087@@QEAA@XZ 0000000180065480 f   c1_ex_DLModel_28.obj
 0001:000644c0       ?c1_createCustomLayer@c1_MWSwishLayer_c1_Yolov9t0_ex_DLModel_28087@@QEAAXPEAVMWTargetNetworkImpl@MWCudnnTarget@@PEAVMWTensorBase@@PEBD22QEAPEBD32H@Z 00000001800654c0 f   c1_ex_DLModel_28.obj
 0001:00064530       ?propagateSize@c1_MWSwishLayer_c1_Yolov9t0_ex_DLModel_28087@@UEAAXXZ 0000000180065530 f   c1_ex_DLModel_28.obj
 0001:000645e0       ?cleanupLayer@c1_MWSwishLayer_c1_Yolov9t0_ex_DLModel_28087@@UEAAXXZ 00000001800655e0 f   c1_ex_DLModel_28.obj
 0001:000645f0       ?predict@c1_MWSwishLayer_c1_Yolov9t0_ex_DLModel_28087@@UEAAXXZ 00000001800655f0 f   c1_ex_DLModel_28.obj
 0001:00064660       ?setChartInstancePtr@c1_MWSwishLayer_c1_Yolov9t0_ex_DLModel_28087@@QEAAXPEAUSFc1_ex_DLModel_28InstanceStruct@@@Z 0000000180065660 f   c1_ex_DLModel_28.obj
 0001:00064690       ??0c1_MWSwishLayer_c1_Yolov9t0_ex_DLModel_28088@@QEAA@XZ 0000000180065690 f   c1_ex_DLModel_28.obj
 0001:000646d0       ?c1_createCustomLayer@c1_MWSwishLayer_c1_Yolov9t0_ex_DLModel_28088@@QEAAXPEAVMWTargetNetworkImpl@MWCudnnTarget@@PEAVMWTensorBase@@PEBD22QEAPEBD32H@Z 00000001800656d0 f   c1_ex_DLModel_28.obj
 0001:00064740       ?propagateSize@c1_MWSwishLayer_c1_Yolov9t0_ex_DLModel_28088@@UEAAXXZ 0000000180065740 f   c1_ex_DLModel_28.obj
 0001:000647f0       ?cleanupLayer@c1_MWSwishLayer_c1_Yolov9t0_ex_DLModel_28088@@UEAAXXZ 00000001800657f0 f   c1_ex_DLModel_28.obj
 0001:00064800       ?predict@c1_MWSwishLayer_c1_Yolov9t0_ex_DLModel_28088@@UEAAXXZ 0000000180065800 f   c1_ex_DLModel_28.obj
 0001:00064870       ?setChartInstancePtr@c1_MWSwishLayer_c1_Yolov9t0_ex_DLModel_28088@@QEAAXPEAUSFc1_ex_DLModel_28InstanceStruct@@@Z 0000000180065870 f   c1_ex_DLModel_28.obj
 0001:000648a0       ??0c1_MWSwishLayer_c1_Yolov9t0_ex_DLModel_28089@@QEAA@XZ 00000001800658a0 f   c1_ex_DLModel_28.obj
 0001:000648e0       ?c1_createCustomLayer@c1_MWSwishLayer_c1_Yolov9t0_ex_DLModel_28089@@QEAAXPEAVMWTargetNetworkImpl@MWCudnnTarget@@PEAVMWTensorBase@@PEBD22QEAPEBD32H@Z 00000001800658e0 f   c1_ex_DLModel_28.obj
 0001:00064950       ?propagateSize@c1_MWSwishLayer_c1_Yolov9t0_ex_DLModel_28089@@UEAAXXZ 0000000180065950 f   c1_ex_DLModel_28.obj
 0001:00064a00       ?cleanupLayer@c1_MWSwishLayer_c1_Yolov9t0_ex_DLModel_28089@@UEAAXXZ 0000000180065a00 f   c1_ex_DLModel_28.obj
 0001:00064a10       ?predict@c1_MWSwishLayer_c1_Yolov9t0_ex_DLModel_28089@@UEAAXXZ 0000000180065a10 f   c1_ex_DLModel_28.obj
 0001:00064a80       ?setChartInstancePtr@c1_MWSwishLayer_c1_Yolov9t0_ex_DLModel_28089@@QEAAXPEAUSFc1_ex_DLModel_28InstanceStruct@@@Z 0000000180065a80 f   c1_ex_DLModel_28.obj
 0001:00064ab0       ??0c1_MWSwishLayer_c1_Yolov9t0_ex_DLModel_28090@@QEAA@XZ 0000000180065ab0 f   c1_ex_DLModel_28.obj
 0001:00064af0       ?c1_createCustomLayer@c1_MWSwishLayer_c1_Yolov9t0_ex_DLModel_28090@@QEAAXPEAVMWTargetNetworkImpl@MWCudnnTarget@@PEAVMWTensorBase@@PEBD22QEAPEBD32H@Z 0000000180065af0 f   c1_ex_DLModel_28.obj
 0001:00064b60       ?propagateSize@c1_MWSwishLayer_c1_Yolov9t0_ex_DLModel_28090@@UEAAXXZ 0000000180065b60 f   c1_ex_DLModel_28.obj
 0001:00064c10       ?cleanupLayer@c1_MWSwishLayer_c1_Yolov9t0_ex_DLModel_28090@@UEAAXXZ 0000000180065c10 f   c1_ex_DLModel_28.obj
 0001:00064c20       ?predict@c1_MWSwishLayer_c1_Yolov9t0_ex_DLModel_28090@@UEAAXXZ 0000000180065c20 f   c1_ex_DLModel_28.obj
 0001:00064c90       ?setChartInstancePtr@c1_MWSwishLayer_c1_Yolov9t0_ex_DLModel_28090@@QEAAXPEAUSFc1_ex_DLModel_28InstanceStruct@@@Z 0000000180065c90 f   c1_ex_DLModel_28.obj
 0001:00064cc0       ??0c1_MWSwishLayer_c1_Yolov9t0_ex_DLModel_28091@@QEAA@XZ 0000000180065cc0 f   c1_ex_DLModel_28.obj
 0001:00064d00       ?c1_createCustomLayer@c1_MWSwishLayer_c1_Yolov9t0_ex_DLModel_28091@@QEAAXPEAVMWTargetNetworkImpl@MWCudnnTarget@@PEAVMWTensorBase@@PEBD22QEAPEBD32H@Z 0000000180065d00 f   c1_ex_DLModel_28.obj
 0001:00064d70       ?propagateSize@c1_MWSwishLayer_c1_Yolov9t0_ex_DLModel_28091@@UEAAXXZ 0000000180065d70 f   c1_ex_DLModel_28.obj
 0001:00064e20       ?cleanupLayer@c1_MWSwishLayer_c1_Yolov9t0_ex_DLModel_28091@@UEAAXXZ 0000000180065e20 f   c1_ex_DLModel_28.obj
 0001:00064e30       ?predict@c1_MWSwishLayer_c1_Yolov9t0_ex_DLModel_28091@@UEAAXXZ 0000000180065e30 f   c1_ex_DLModel_28.obj
 0001:00064ea0       ?setChartInstancePtr@c1_MWSwishLayer_c1_Yolov9t0_ex_DLModel_28091@@QEAAXPEAUSFc1_ex_DLModel_28InstanceStruct@@@Z 0000000180065ea0 f   c1_ex_DLModel_28.obj
 0001:00064ed0       ??0c1_MWSwishLayer_c1_Yolov9t0_ex_DLModel_28092@@QEAA@XZ 0000000180065ed0 f   c1_ex_DLModel_28.obj
 0001:00064f10       ?c1_createCustomLayer@c1_MWSwishLayer_c1_Yolov9t0_ex_DLModel_28092@@QEAAXPEAVMWTargetNetworkImpl@MWCudnnTarget@@PEAVMWTensorBase@@PEBD22QEAPEBD32H@Z 0000000180065f10 f   c1_ex_DLModel_28.obj
 0001:00064f80       ?propagateSize@c1_MWSwishLayer_c1_Yolov9t0_ex_DLModel_28092@@UEAAXXZ 0000000180065f80 f   c1_ex_DLModel_28.obj
 0001:00065030       ?cleanupLayer@c1_MWSwishLayer_c1_Yolov9t0_ex_DLModel_28092@@UEAAXXZ 0000000180066030 f   c1_ex_DLModel_28.obj
 0001:00065040       ?predict@c1_MWSwishLayer_c1_Yolov9t0_ex_DLModel_28092@@UEAAXXZ 0000000180066040 f   c1_ex_DLModel_28.obj
 0001:000650b0       ?setChartInstancePtr@c1_MWSwishLayer_c1_Yolov9t0_ex_DLModel_28092@@QEAAXPEAUSFc1_ex_DLModel_28InstanceStruct@@@Z 00000001800660b0 f   c1_ex_DLModel_28.obj
 0001:000650e0       ??0c1_MWSwishLayer_c1_Yolov9t0_ex_DLModel_28093@@QEAA@XZ 00000001800660e0 f   c1_ex_DLModel_28.obj
 0001:00065120       ?c1_createCustomLayer@c1_MWSwishLayer_c1_Yolov9t0_ex_DLModel_28093@@QEAAXPEAVMWTargetNetworkImpl@MWCudnnTarget@@PEAVMWTensorBase@@PEBD22QEAPEBD32H@Z 0000000180066120 f   c1_ex_DLModel_28.obj
 0001:00065190       ?propagateSize@c1_MWSwishLayer_c1_Yolov9t0_ex_DLModel_28093@@UEAAXXZ 0000000180066190 f   c1_ex_DLModel_28.obj
 0001:00065240       ?cleanupLayer@c1_MWSwishLayer_c1_Yolov9t0_ex_DLModel_28093@@UEAAXXZ 0000000180066240 f   c1_ex_DLModel_28.obj
 0001:00065250       ?predict@c1_MWSwishLayer_c1_Yolov9t0_ex_DLModel_28093@@UEAAXXZ 0000000180066250 f   c1_ex_DLModel_28.obj
 0001:000652c0       ?setChartInstancePtr@c1_MWSwishLayer_c1_Yolov9t0_ex_DLModel_28093@@QEAAXPEAUSFc1_ex_DLModel_28InstanceStruct@@@Z 00000001800662c0 f   c1_ex_DLModel_28.obj
 0001:000652f0       ??0c1_MWSwishLayer_c1_Yolov9t0_ex_DLModel_28094@@QEAA@XZ 00000001800662f0 f   c1_ex_DLModel_28.obj
 0001:00065330       ?c1_createCustomLayer@c1_MWSwishLayer_c1_Yolov9t0_ex_DLModel_28094@@QEAAXPEAVMWTargetNetworkImpl@MWCudnnTarget@@PEAVMWTensorBase@@PEBD22QEAPEBD32H@Z 0000000180066330 f   c1_ex_DLModel_28.obj
 0001:000653a0       ?propagateSize@c1_MWSwishLayer_c1_Yolov9t0_ex_DLModel_28094@@UEAAXXZ 00000001800663a0 f   c1_ex_DLModel_28.obj
 0001:00065450       ?cleanupLayer@c1_MWSwishLayer_c1_Yolov9t0_ex_DLModel_28094@@UEAAXXZ 0000000180066450 f   c1_ex_DLModel_28.obj
 0001:00065460       ?predict@c1_MWSwishLayer_c1_Yolov9t0_ex_DLModel_28094@@UEAAXXZ 0000000180066460 f   c1_ex_DLModel_28.obj
 0001:000654d0       ?setChartInstancePtr@c1_MWSwishLayer_c1_Yolov9t0_ex_DLModel_28094@@QEAAXPEAUSFc1_ex_DLModel_28InstanceStruct@@@Z 00000001800664d0 f   c1_ex_DLModel_28.obj
 0001:00065500       ??0c1_MWSwishLayer_c1_Yolov9t0_ex_DLModel_28095@@QEAA@XZ 0000000180066500 f   c1_ex_DLModel_28.obj
 0001:00065540       ?c1_createCustomLayer@c1_MWSwishLayer_c1_Yolov9t0_ex_DLModel_28095@@QEAAXPEAVMWTargetNetworkImpl@MWCudnnTarget@@PEAVMWTensorBase@@PEBD22QEAPEBD32H@Z 0000000180066540 f   c1_ex_DLModel_28.obj
 0001:000655b0       ?propagateSize@c1_MWSwishLayer_c1_Yolov9t0_ex_DLModel_28095@@UEAAXXZ 00000001800665b0 f   c1_ex_DLModel_28.obj
 0001:00065660       ?cleanupLayer@c1_MWSwishLayer_c1_Yolov9t0_ex_DLModel_28095@@UEAAXXZ 0000000180066660 f   c1_ex_DLModel_28.obj
 0001:00065670       ?predict@c1_MWSwishLayer_c1_Yolov9t0_ex_DLModel_28095@@UEAAXXZ 0000000180066670 f   c1_ex_DLModel_28.obj
 0001:000656e0       ?setChartInstancePtr@c1_MWSwishLayer_c1_Yolov9t0_ex_DLModel_28095@@QEAAXPEAUSFc1_ex_DLModel_28InstanceStruct@@@Z 00000001800666e0 f   c1_ex_DLModel_28.obj
 0001:00065710       ??0c1_MWSwishLayer_c1_Yolov9t0_ex_DLModel_28096@@QEAA@XZ 0000000180066710 f   c1_ex_DLModel_28.obj
 0001:00065750       ?c1_createCustomLayer@c1_MWSwishLayer_c1_Yolov9t0_ex_DLModel_28096@@QEAAXPEAVMWTargetNetworkImpl@MWCudnnTarget@@PEAVMWTensorBase@@PEBD22QEAPEBD32H@Z 0000000180066750 f   c1_ex_DLModel_28.obj
 0001:000657c0       ?propagateSize@c1_MWSwishLayer_c1_Yolov9t0_ex_DLModel_28096@@UEAAXXZ 00000001800667c0 f   c1_ex_DLModel_28.obj
 0001:00065870       ?cleanupLayer@c1_MWSwishLayer_c1_Yolov9t0_ex_DLModel_28096@@UEAAXXZ 0000000180066870 f   c1_ex_DLModel_28.obj
 0001:00065880       ?predict@c1_MWSwishLayer_c1_Yolov9t0_ex_DLModel_28096@@UEAAXXZ 0000000180066880 f   c1_ex_DLModel_28.obj
 0001:000658f0       ?setChartInstancePtr@c1_MWSwishLayer_c1_Yolov9t0_ex_DLModel_28096@@QEAAXPEAUSFc1_ex_DLModel_28InstanceStruct@@@Z 00000001800668f0 f   c1_ex_DLModel_28.obj
 0001:00065920       ??0c1_MWSwishLayer_c1_Yolov9t0_ex_DLModel_28097@@QEAA@XZ 0000000180066920 f   c1_ex_DLModel_28.obj
 0001:00065960       ?c1_createCustomLayer@c1_MWSwishLayer_c1_Yolov9t0_ex_DLModel_28097@@QEAAXPEAVMWTargetNetworkImpl@MWCudnnTarget@@PEAVMWTensorBase@@PEBD22QEAPEBD32H@Z 0000000180066960 f   c1_ex_DLModel_28.obj
 0001:000659d0       ?propagateSize@c1_MWSwishLayer_c1_Yolov9t0_ex_DLModel_28097@@UEAAXXZ 00000001800669d0 f   c1_ex_DLModel_28.obj
 0001:00065a80       ?cleanupLayer@c1_MWSwishLayer_c1_Yolov9t0_ex_DLModel_28097@@UEAAXXZ 0000000180066a80 f   c1_ex_DLModel_28.obj
 0001:00065a90       ?predict@c1_MWSwishLayer_c1_Yolov9t0_ex_DLModel_28097@@UEAAXXZ 0000000180066a90 f   c1_ex_DLModel_28.obj
 0001:00065b00       ?setChartInstancePtr@c1_MWSwishLayer_c1_Yolov9t0_ex_DLModel_28097@@QEAAXPEAUSFc1_ex_DLModel_28InstanceStruct@@@Z 0000000180066b00 f   c1_ex_DLModel_28.obj
 0001:00065b30       ??0c1_MWSwishLayer_c1_Yolov9t0_ex_DLModel_28098@@QEAA@XZ 0000000180066b30 f   c1_ex_DLModel_28.obj
 0001:00065b70       ?c1_createCustomLayer@c1_MWSwishLayer_c1_Yolov9t0_ex_DLModel_28098@@QEAAXPEAVMWTargetNetworkImpl@MWCudnnTarget@@PEAVMWTensorBase@@PEBD22QEAPEBD32H@Z 0000000180066b70 f   c1_ex_DLModel_28.obj
 0001:00065be0       ?propagateSize@c1_MWSwishLayer_c1_Yolov9t0_ex_DLModel_28098@@UEAAXXZ 0000000180066be0 f   c1_ex_DLModel_28.obj
 0001:00065c90       ?cleanupLayer@c1_MWSwishLayer_c1_Yolov9t0_ex_DLModel_28098@@UEAAXXZ 0000000180066c90 f   c1_ex_DLModel_28.obj
 0001:00065ca0       ?predict@c1_MWSwishLayer_c1_Yolov9t0_ex_DLModel_28098@@UEAAXXZ 0000000180066ca0 f   c1_ex_DLModel_28.obj
 0001:00065d10       ?setChartInstancePtr@c1_MWSwishLayer_c1_Yolov9t0_ex_DLModel_28098@@QEAAXPEAUSFc1_ex_DLModel_28InstanceStruct@@@Z 0000000180066d10 f   c1_ex_DLModel_28.obj
 0001:00065d40       ??0c1_MWSwishLayer_c1_Yolov9t0_ex_DLModel_28099@@QEAA@XZ 0000000180066d40 f   c1_ex_DLModel_28.obj
 0001:00065d80       ?c1_createCustomLayer@c1_MWSwishLayer_c1_Yolov9t0_ex_DLModel_28099@@QEAAXPEAVMWTargetNetworkImpl@MWCudnnTarget@@PEAVMWTensorBase@@PEBD22QEAPEBD32H@Z 0000000180066d80 f   c1_ex_DLModel_28.obj
 0001:00065df0       ?propagateSize@c1_MWSwishLayer_c1_Yolov9t0_ex_DLModel_28099@@UEAAXXZ 0000000180066df0 f   c1_ex_DLModel_28.obj
 0001:00065ea0       ?cleanupLayer@c1_MWSwishLayer_c1_Yolov9t0_ex_DLModel_28099@@UEAAXXZ 0000000180066ea0 f   c1_ex_DLModel_28.obj
 0001:00065eb0       ?predict@c1_MWSwishLayer_c1_Yolov9t0_ex_DLModel_28099@@UEAAXXZ 0000000180066eb0 f   c1_ex_DLModel_28.obj
 0001:00065f20       ?setChartInstancePtr@c1_MWSwishLayer_c1_Yolov9t0_ex_DLModel_28099@@QEAAXPEAUSFc1_ex_DLModel_28InstanceStruct@@@Z 0000000180066f20 f   c1_ex_DLModel_28.obj
 0001:00065f50       ??0c1_MWResize2DLayer_c1_Yolov9t0_ex_DLModel_2802@@QEAA@XZ 0000000180066f50 f   c1_ex_DLModel_28.obj
 0001:00065f90       ?c1_createCustomLayer@c1_MWResize2DLayer_c1_Yolov9t0_ex_DLModel_2802@@QEAAXPEAVMWTargetNetworkImpl@MWCudnnTarget@@PEAVMWTensorBase@@1EPEBD2222QEAPEBD32H@Z 0000000180066f90 f   c1_ex_DLModel_28.obj
 0001:00066000       ?propagateSize@c1_MWResize2DLayer_c1_Yolov9t0_ex_DLModel_2802@@UEAAXXZ 0000000180067000 f   c1_ex_DLModel_28.obj
 0001:000661d0       ?cleanupLayer@c1_MWResize2DLayer_c1_Yolov9t0_ex_DLModel_2802@@UEAAXXZ 00000001800671d0 f   c1_ex_DLModel_28.obj
 0001:000661e0       ?predict@c1_MWResize2DLayer_c1_Yolov9t0_ex_DLModel_2802@@UEAAXXZ 00000001800671e0 f   c1_ex_DLModel_28.obj
 0001:000662c0       ?setChartInstancePtr@c1_MWResize2DLayer_c1_Yolov9t0_ex_DLModel_2802@@QEAAXPEAUSFc1_ex_DLModel_28InstanceStruct@@@Z 00000001800672c0 f   c1_ex_DLModel_28.obj
 0001:000662f0       ??0c1_MWSwishLayer_c1_Yolov9t0_ex_DLModel_280100@@QEAA@XZ 00000001800672f0 f   c1_ex_DLModel_28.obj
 0001:00066330       ?c1_createCustomLayer@c1_MWSwishLayer_c1_Yolov9t0_ex_DLModel_280100@@QEAAXPEAVMWTargetNetworkImpl@MWCudnnTarget@@PEAVMWTensorBase@@PEBD22QEAPEBD32H@Z 0000000180067330 f   c1_ex_DLModel_28.obj
 0001:000663a0       ?propagateSize@c1_MWSwishLayer_c1_Yolov9t0_ex_DLModel_280100@@UEAAXXZ 00000001800673a0 f   c1_ex_DLModel_28.obj
 0001:00066450       ?cleanupLayer@c1_MWSwishLayer_c1_Yolov9t0_ex_DLModel_280100@@UEAAXXZ 0000000180067450 f   c1_ex_DLModel_28.obj
 0001:00066460       ?predict@c1_MWSwishLayer_c1_Yolov9t0_ex_DLModel_280100@@UEAAXXZ 0000000180067460 f   c1_ex_DLModel_28.obj
 0001:000664d0       ?setChartInstancePtr@c1_MWSwishLayer_c1_Yolov9t0_ex_DLModel_280100@@QEAAXPEAUSFc1_ex_DLModel_28InstanceStruct@@@Z 00000001800674d0 f   c1_ex_DLModel_28.obj
 0001:00066500       ??0c1_MWCustomSliceLayer_c1_Yolov9t0_ex_DLModel_2806@@QEAA@XZ 0000000180067500 f   c1_ex_DLModel_28.obj
 0001:00066540       ?c1_createCustomLayer@c1_MWCustomSliceLayer_c1_Yolov9t0_ex_DLModel_2806@@QEAAXPEAVMWTargetNetworkImpl@MWCudnnTarget@@PEAVMWTensorBase@@PEBDQEAPEBD322HH@Z 0000000180067540 f   c1_ex_DLModel_28.obj
 0001:000665c0       ?propagateSize@c1_MWCustomSliceLayer_c1_Yolov9t0_ex_DLModel_2806@@UEAAXXZ 00000001800675c0 f   c1_ex_DLModel_28.obj
 0001:000667c0       ?cleanupLayer@c1_MWCustomSliceLayer_c1_Yolov9t0_ex_DLModel_2806@@UEAAXXZ 00000001800677c0 f   c1_ex_DLModel_28.obj
 0001:000667d0       ?predict@c1_MWCustomSliceLayer_c1_Yolov9t0_ex_DLModel_2806@@UEAAXXZ 00000001800677d0 f   c1_ex_DLModel_28.obj
 0001:000668b0       ?setChartInstancePtr@c1_MWCustomSliceLayer_c1_Yolov9t0_ex_DLModel_2806@@QEAAXPEAUSFc1_ex_DLModel_28InstanceStruct@@@Z 00000001800678b0 f   c1_ex_DLModel_28.obj
 0001:000668e0       ??0c1_MWSwishLayer_c1_Yolov9t0_ex_DLModel_280101@@QEAA@XZ 00000001800678e0 f   c1_ex_DLModel_28.obj
 0001:00066920       ?c1_createCustomLayer@c1_MWSwishLayer_c1_Yolov9t0_ex_DLModel_280101@@QEAAXPEAVMWTargetNetworkImpl@MWCudnnTarget@@PEAVMWTensorBase@@PEBD22QEAPEBD32H@Z 0000000180067920 f   c1_ex_DLModel_28.obj
 0001:00066990       ?propagateSize@c1_MWSwishLayer_c1_Yolov9t0_ex_DLModel_280101@@UEAAXXZ 0000000180067990 f   c1_ex_DLModel_28.obj
 0001:00066a40       ?cleanupLayer@c1_MWSwishLayer_c1_Yolov9t0_ex_DLModel_280101@@UEAAXXZ 0000000180067a40 f   c1_ex_DLModel_28.obj
 0001:00066a50       ?predict@c1_MWSwishLayer_c1_Yolov9t0_ex_DLModel_280101@@UEAAXXZ 0000000180067a50 f   c1_ex_DLModel_28.obj
 0001:00066ac0       ?setChartInstancePtr@c1_MWSwishLayer_c1_Yolov9t0_ex_DLModel_280101@@QEAAXPEAUSFc1_ex_DLModel_28InstanceStruct@@@Z 0000000180067ac0 f   c1_ex_DLModel_28.obj
 0001:00066af0       ??0c1_MWSwishLayer_c1_Yolov9t0_ex_DLModel_280102@@QEAA@XZ 0000000180067af0 f   c1_ex_DLModel_28.obj
 0001:00066b30       ?c1_createCustomLayer@c1_MWSwishLayer_c1_Yolov9t0_ex_DLModel_280102@@QEAAXPEAVMWTargetNetworkImpl@MWCudnnTarget@@PEAVMWTensorBase@@PEBD22QEAPEBD32H@Z 0000000180067b30 f   c1_ex_DLModel_28.obj
 0001:00066ba0       ?propagateSize@c1_MWSwishLayer_c1_Yolov9t0_ex_DLModel_280102@@UEAAXXZ 0000000180067ba0 f   c1_ex_DLModel_28.obj
 0001:00066c50       ?cleanupLayer@c1_MWSwishLayer_c1_Yolov9t0_ex_DLModel_280102@@UEAAXXZ 0000000180067c50 f   c1_ex_DLModel_28.obj
 0001:00066c60       ?predict@c1_MWSwishLayer_c1_Yolov9t0_ex_DLModel_280102@@UEAAXXZ 0000000180067c60 f   c1_ex_DLModel_28.obj
 0001:00066cd0       ?setChartInstancePtr@c1_MWSwishLayer_c1_Yolov9t0_ex_DLModel_280102@@QEAAXPEAUSFc1_ex_DLModel_28InstanceStruct@@@Z 0000000180067cd0 f   c1_ex_DLModel_28.obj
 0001:00066d00       ??0c1_MWSwishLayer_c1_Yolov9t0_ex_DLModel_280103@@QEAA@XZ 0000000180067d00 f   c1_ex_DLModel_28.obj
 0001:00066d40       ?c1_createCustomLayer@c1_MWSwishLayer_c1_Yolov9t0_ex_DLModel_280103@@QEAAXPEAVMWTargetNetworkImpl@MWCudnnTarget@@PEAVMWTensorBase@@PEBD22QEAPEBD32H@Z 0000000180067d40 f   c1_ex_DLModel_28.obj
 0001:00066db0       ?propagateSize@c1_MWSwishLayer_c1_Yolov9t0_ex_DLModel_280103@@UEAAXXZ 0000000180067db0 f   c1_ex_DLModel_28.obj
 0001:00066e60       ?cleanupLayer@c1_MWSwishLayer_c1_Yolov9t0_ex_DLModel_280103@@UEAAXXZ 0000000180067e60 f   c1_ex_DLModel_28.obj
 0001:00066e70       ?predict@c1_MWSwishLayer_c1_Yolov9t0_ex_DLModel_280103@@UEAAXXZ 0000000180067e70 f   c1_ex_DLModel_28.obj
 0001:00066ee0       ?setChartInstancePtr@c1_MWSwishLayer_c1_Yolov9t0_ex_DLModel_280103@@QEAAXPEAUSFc1_ex_DLModel_28InstanceStruct@@@Z 0000000180067ee0 f   c1_ex_DLModel_28.obj
 0001:00066f10       ??0c1_MWSwishLayer_c1_Yolov9t0_ex_DLModel_280104@@QEAA@XZ 0000000180067f10 f   c1_ex_DLModel_28.obj
 0001:00066f50       ?c1_createCustomLayer@c1_MWSwishLayer_c1_Yolov9t0_ex_DLModel_280104@@QEAAXPEAVMWTargetNetworkImpl@MWCudnnTarget@@PEAVMWTensorBase@@PEBD22QEAPEBD32H@Z 0000000180067f50 f   c1_ex_DLModel_28.obj
 0001:00066fc0       ?propagateSize@c1_MWSwishLayer_c1_Yolov9t0_ex_DLModel_280104@@UEAAXXZ 0000000180067fc0 f   c1_ex_DLModel_28.obj
 0001:00067070       ?cleanupLayer@c1_MWSwishLayer_c1_Yolov9t0_ex_DLModel_280104@@UEAAXXZ 0000000180068070 f   c1_ex_DLModel_28.obj
 0001:00067080       ?predict@c1_MWSwishLayer_c1_Yolov9t0_ex_DLModel_280104@@UEAAXXZ 0000000180068080 f   c1_ex_DLModel_28.obj
 0001:000670f0       ?setChartInstancePtr@c1_MWSwishLayer_c1_Yolov9t0_ex_DLModel_280104@@QEAAXPEAUSFc1_ex_DLModel_28InstanceStruct@@@Z 00000001800680f0 f   c1_ex_DLModel_28.obj
 0001:00067120       ??0c1_MWSwishLayer_c1_Yolov9t0_ex_DLModel_280105@@QEAA@XZ 0000000180068120 f   c1_ex_DLModel_28.obj
 0001:00067160       ?c1_createCustomLayer@c1_MWSwishLayer_c1_Yolov9t0_ex_DLModel_280105@@QEAAXPEAVMWTargetNetworkImpl@MWCudnnTarget@@PEAVMWTensorBase@@PEBD22QEAPEBD32H@Z 0000000180068160 f   c1_ex_DLModel_28.obj
 0001:000671d0       ?propagateSize@c1_MWSwishLayer_c1_Yolov9t0_ex_DLModel_280105@@UEAAXXZ 00000001800681d0 f   c1_ex_DLModel_28.obj
 0001:00067280       ?cleanupLayer@c1_MWSwishLayer_c1_Yolov9t0_ex_DLModel_280105@@UEAAXXZ 0000000180068280 f   c1_ex_DLModel_28.obj
 0001:00067290       ?predict@c1_MWSwishLayer_c1_Yolov9t0_ex_DLModel_280105@@UEAAXXZ 0000000180068290 f   c1_ex_DLModel_28.obj
 0001:00067300       ?setChartInstancePtr@c1_MWSwishLayer_c1_Yolov9t0_ex_DLModel_280105@@QEAAXPEAUSFc1_ex_DLModel_28InstanceStruct@@@Z 0000000180068300 f   c1_ex_DLModel_28.obj
 0001:00067330       ??0c1_MWSwishLayer_c1_Yolov9t0_ex_DLModel_280106@@QEAA@XZ 0000000180068330 f   c1_ex_DLModel_28.obj
 0001:00067370       ?c1_createCustomLayer@c1_MWSwishLayer_c1_Yolov9t0_ex_DLModel_280106@@QEAAXPEAVMWTargetNetworkImpl@MWCudnnTarget@@PEAVMWTensorBase@@PEBD22QEAPEBD32H@Z 0000000180068370 f   c1_ex_DLModel_28.obj
 0001:000673e0       ?propagateSize@c1_MWSwishLayer_c1_Yolov9t0_ex_DLModel_280106@@UEAAXXZ 00000001800683e0 f   c1_ex_DLModel_28.obj
 0001:00067490       ?cleanupLayer@c1_MWSwishLayer_c1_Yolov9t0_ex_DLModel_280106@@UEAAXXZ 0000000180068490 f   c1_ex_DLModel_28.obj
 0001:000674a0       ?predict@c1_MWSwishLayer_c1_Yolov9t0_ex_DLModel_280106@@UEAAXXZ 00000001800684a0 f   c1_ex_DLModel_28.obj
 0001:00067510       ?setChartInstancePtr@c1_MWSwishLayer_c1_Yolov9t0_ex_DLModel_280106@@QEAAXPEAUSFc1_ex_DLModel_28InstanceStruct@@@Z 0000000180068510 f   c1_ex_DLModel_28.obj
 0001:00067540       ??0c1_MWSwishLayer_c1_Yolov9t0_ex_DLModel_280107@@QEAA@XZ 0000000180068540 f   c1_ex_DLModel_28.obj
 0001:00067580       ?c1_createCustomLayer@c1_MWSwishLayer_c1_Yolov9t0_ex_DLModel_280107@@QEAAXPEAVMWTargetNetworkImpl@MWCudnnTarget@@PEAVMWTensorBase@@PEBD22QEAPEBD32H@Z 0000000180068580 f   c1_ex_DLModel_28.obj
 0001:000675f0       ?propagateSize@c1_MWSwishLayer_c1_Yolov9t0_ex_DLModel_280107@@UEAAXXZ 00000001800685f0 f   c1_ex_DLModel_28.obj
 0001:000676a0       ?cleanupLayer@c1_MWSwishLayer_c1_Yolov9t0_ex_DLModel_280107@@UEAAXXZ 00000001800686a0 f   c1_ex_DLModel_28.obj
 0001:000676b0       ?predict@c1_MWSwishLayer_c1_Yolov9t0_ex_DLModel_280107@@UEAAXXZ 00000001800686b0 f   c1_ex_DLModel_28.obj
 0001:00067720       ?setChartInstancePtr@c1_MWSwishLayer_c1_Yolov9t0_ex_DLModel_280107@@QEAAXPEAUSFc1_ex_DLModel_28InstanceStruct@@@Z 0000000180068720 f   c1_ex_DLModel_28.obj
 0001:00067750       ??0c1_MWSwishLayer_c1_Yolov9t0_ex_DLModel_280108@@QEAA@XZ 0000000180068750 f   c1_ex_DLModel_28.obj
 0001:00067790       ?c1_createCustomLayer@c1_MWSwishLayer_c1_Yolov9t0_ex_DLModel_280108@@QEAAXPEAVMWTargetNetworkImpl@MWCudnnTarget@@PEAVMWTensorBase@@PEBD22QEAPEBD32H@Z 0000000180068790 f   c1_ex_DLModel_28.obj
 0001:00067800       ?propagateSize@c1_MWSwishLayer_c1_Yolov9t0_ex_DLModel_280108@@UEAAXXZ 0000000180068800 f   c1_ex_DLModel_28.obj
 0001:000678b0       ?cleanupLayer@c1_MWSwishLayer_c1_Yolov9t0_ex_DLModel_280108@@UEAAXXZ 00000001800688b0 f   c1_ex_DLModel_28.obj
 0001:000678c0       ?predict@c1_MWSwishLayer_c1_Yolov9t0_ex_DLModel_280108@@UEAAXXZ 00000001800688c0 f   c1_ex_DLModel_28.obj
 0001:00067930       ?setChartInstancePtr@c1_MWSwishLayer_c1_Yolov9t0_ex_DLModel_280108@@QEAAXPEAUSFc1_ex_DLModel_28InstanceStruct@@@Z 0000000180068930 f   c1_ex_DLModel_28.obj
 0001:00067960       ??0c1_MWSwishLayer_c1_Yolov9t0_ex_DLModel_280109@@QEAA@XZ 0000000180068960 f   c1_ex_DLModel_28.obj
 0001:000679a0       ?c1_createCustomLayer@c1_MWSwishLayer_c1_Yolov9t0_ex_DLModel_280109@@QEAAXPEAVMWTargetNetworkImpl@MWCudnnTarget@@PEAVMWTensorBase@@PEBD22QEAPEBD32H@Z 00000001800689a0 f   c1_ex_DLModel_28.obj
 0001:00067a10       ?propagateSize@c1_MWSwishLayer_c1_Yolov9t0_ex_DLModel_280109@@UEAAXXZ 0000000180068a10 f   c1_ex_DLModel_28.obj
 0001:00067ac0       ?cleanupLayer@c1_MWSwishLayer_c1_Yolov9t0_ex_DLModel_280109@@UEAAXXZ 0000000180068ac0 f   c1_ex_DLModel_28.obj
 0001:00067ad0       ?predict@c1_MWSwishLayer_c1_Yolov9t0_ex_DLModel_280109@@UEAAXXZ 0000000180068ad0 f   c1_ex_DLModel_28.obj
 0001:00067b40       ?setChartInstancePtr@c1_MWSwishLayer_c1_Yolov9t0_ex_DLModel_280109@@QEAAXPEAUSFc1_ex_DLModel_28InstanceStruct@@@Z 0000000180068b40 f   c1_ex_DLModel_28.obj
 0001:00067b70       ??0c1_MWSwishLayer_c1_Yolov9t0_ex_DLModel_280110@@QEAA@XZ 0000000180068b70 f   c1_ex_DLModel_28.obj
 0001:00067bb0       ?c1_createCustomLayer@c1_MWSwishLayer_c1_Yolov9t0_ex_DLModel_280110@@QEAAXPEAVMWTargetNetworkImpl@MWCudnnTarget@@PEAVMWTensorBase@@PEBD22QEAPEBD32H@Z 0000000180068bb0 f   c1_ex_DLModel_28.obj
 0001:00067c20       ?propagateSize@c1_MWSwishLayer_c1_Yolov9t0_ex_DLModel_280110@@UEAAXXZ 0000000180068c20 f   c1_ex_DLModel_28.obj
 0001:00067cd0       ?cleanupLayer@c1_MWSwishLayer_c1_Yolov9t0_ex_DLModel_280110@@UEAAXXZ 0000000180068cd0 f   c1_ex_DLModel_28.obj
 0001:00067ce0       ?predict@c1_MWSwishLayer_c1_Yolov9t0_ex_DLModel_280110@@UEAAXXZ 0000000180068ce0 f   c1_ex_DLModel_28.obj
 0001:00067d50       ?setChartInstancePtr@c1_MWSwishLayer_c1_Yolov9t0_ex_DLModel_280110@@QEAAXPEAUSFc1_ex_DLModel_28InstanceStruct@@@Z 0000000180068d50 f   c1_ex_DLModel_28.obj
 0001:00067d80       ??0c1_MWSwishLayer_c1_Yolov9t0_ex_DLModel_280111@@QEAA@XZ 0000000180068d80 f   c1_ex_DLModel_28.obj
 0001:00067dc0       ?c1_createCustomLayer@c1_MWSwishLayer_c1_Yolov9t0_ex_DLModel_280111@@QEAAXPEAVMWTargetNetworkImpl@MWCudnnTarget@@PEAVMWTensorBase@@PEBD22QEAPEBD32H@Z 0000000180068dc0 f   c1_ex_DLModel_28.obj
 0001:00067e30       ?propagateSize@c1_MWSwishLayer_c1_Yolov9t0_ex_DLModel_280111@@UEAAXXZ 0000000180068e30 f   c1_ex_DLModel_28.obj
 0001:00067ee0       ?cleanupLayer@c1_MWSwishLayer_c1_Yolov9t0_ex_DLModel_280111@@UEAAXXZ 0000000180068ee0 f   c1_ex_DLModel_28.obj
 0001:00067ef0       ?predict@c1_MWSwishLayer_c1_Yolov9t0_ex_DLModel_280111@@UEAAXXZ 0000000180068ef0 f   c1_ex_DLModel_28.obj
 0001:00067f60       ?setChartInstancePtr@c1_MWSwishLayer_c1_Yolov9t0_ex_DLModel_280111@@QEAAXPEAUSFc1_ex_DLModel_28InstanceStruct@@@Z 0000000180068f60 f   c1_ex_DLModel_28.obj
 0001:00067f90       ??0c1_MWSwishLayer_c1_Yolov9t0_ex_DLModel_280112@@QEAA@XZ 0000000180068f90 f   c1_ex_DLModel_28.obj
 0001:00067fd0       ?c1_createCustomLayer@c1_MWSwishLayer_c1_Yolov9t0_ex_DLModel_280112@@QEAAXPEAVMWTargetNetworkImpl@MWCudnnTarget@@PEAVMWTensorBase@@PEBD22QEAPEBD32H@Z 0000000180068fd0 f   c1_ex_DLModel_28.obj
 0001:00068040       ?propagateSize@c1_MWSwishLayer_c1_Yolov9t0_ex_DLModel_280112@@UEAAXXZ 0000000180069040 f   c1_ex_DLModel_28.obj
 0001:000680f0       ?cleanupLayer@c1_MWSwishLayer_c1_Yolov9t0_ex_DLModel_280112@@UEAAXXZ 00000001800690f0 f   c1_ex_DLModel_28.obj
 0001:00068100       ?predict@c1_MWSwishLayer_c1_Yolov9t0_ex_DLModel_280112@@UEAAXXZ 0000000180069100 f   c1_ex_DLModel_28.obj
 0001:00068170       ?setChartInstancePtr@c1_MWSwishLayer_c1_Yolov9t0_ex_DLModel_280112@@QEAAXPEAUSFc1_ex_DLModel_28InstanceStruct@@@Z 0000000180069170 f   c1_ex_DLModel_28.obj
 0001:000681a0       ??0c1_MWSwishLayer_c1_Yolov9t0_ex_DLModel_280113@@QEAA@XZ 00000001800691a0 f   c1_ex_DLModel_28.obj
 0001:000681e0       ?c1_createCustomLayer@c1_MWSwishLayer_c1_Yolov9t0_ex_DLModel_280113@@QEAAXPEAVMWTargetNetworkImpl@MWCudnnTarget@@PEAVMWTensorBase@@PEBD22QEAPEBD32H@Z 00000001800691e0 f   c1_ex_DLModel_28.obj
 0001:00068250       ?propagateSize@c1_MWSwishLayer_c1_Yolov9t0_ex_DLModel_280113@@UEAAXXZ 0000000180069250 f   c1_ex_DLModel_28.obj
 0001:00068300       ?cleanupLayer@c1_MWSwishLayer_c1_Yolov9t0_ex_DLModel_280113@@UEAAXXZ 0000000180069300 f   c1_ex_DLModel_28.obj
 0001:00068310       ?predict@c1_MWSwishLayer_c1_Yolov9t0_ex_DLModel_280113@@UEAAXXZ 0000000180069310 f   c1_ex_DLModel_28.obj
 0001:00068380       ?setChartInstancePtr@c1_MWSwishLayer_c1_Yolov9t0_ex_DLModel_280113@@QEAAXPEAUSFc1_ex_DLModel_28InstanceStruct@@@Z 0000000180069380 f   c1_ex_DLModel_28.obj
 0001:000683b0       ??0c1_MWSwishLayer_c1_Yolov9t0_ex_DLModel_280114@@QEAA@XZ 00000001800693b0 f   c1_ex_DLModel_28.obj
 0001:000683f0       ?c1_createCustomLayer@c1_MWSwishLayer_c1_Yolov9t0_ex_DLModel_280114@@QEAAXPEAVMWTargetNetworkImpl@MWCudnnTarget@@PEAVMWTensorBase@@PEBD22QEAPEBD32H@Z 00000001800693f0 f   c1_ex_DLModel_28.obj
 0001:00068460       ?propagateSize@c1_MWSwishLayer_c1_Yolov9t0_ex_DLModel_280114@@UEAAXXZ 0000000180069460 f   c1_ex_DLModel_28.obj
 0001:00068510       ?cleanupLayer@c1_MWSwishLayer_c1_Yolov9t0_ex_DLModel_280114@@UEAAXXZ 0000000180069510 f   c1_ex_DLModel_28.obj
 0001:00068520       ?predict@c1_MWSwishLayer_c1_Yolov9t0_ex_DLModel_280114@@UEAAXXZ 0000000180069520 f   c1_ex_DLModel_28.obj
 0001:00068590       ?setChartInstancePtr@c1_MWSwishLayer_c1_Yolov9t0_ex_DLModel_280114@@QEAAXPEAUSFc1_ex_DLModel_28InstanceStruct@@@Z 0000000180069590 f   c1_ex_DLModel_28.obj
 0001:000685c0       ??0c1_MWSwishLayer_c1_Yolov9t0_ex_DLModel_280115@@QEAA@XZ 00000001800695c0 f   c1_ex_DLModel_28.obj
 0001:00068600       ?c1_createCustomLayer@c1_MWSwishLayer_c1_Yolov9t0_ex_DLModel_280115@@QEAAXPEAVMWTargetNetworkImpl@MWCudnnTarget@@PEAVMWTensorBase@@PEBD22QEAPEBD32H@Z 0000000180069600 f   c1_ex_DLModel_28.obj
 0001:00068670       ?propagateSize@c1_MWSwishLayer_c1_Yolov9t0_ex_DLModel_280115@@UEAAXXZ 0000000180069670 f   c1_ex_DLModel_28.obj
 0001:00068720       ?cleanupLayer@c1_MWSwishLayer_c1_Yolov9t0_ex_DLModel_280115@@UEAAXXZ 0000000180069720 f   c1_ex_DLModel_28.obj
 0001:00068730       ?predict@c1_MWSwishLayer_c1_Yolov9t0_ex_DLModel_280115@@UEAAXXZ 0000000180069730 f   c1_ex_DLModel_28.obj
 0001:000687a0       ?setChartInstancePtr@c1_MWSwishLayer_c1_Yolov9t0_ex_DLModel_280115@@QEAAXPEAUSFc1_ex_DLModel_28InstanceStruct@@@Z 00000001800697a0 f   c1_ex_DLModel_28.obj
 0001:000687d0       ??0c1_MWSwishLayer_c1_Yolov9t0_ex_DLModel_280116@@QEAA@XZ 00000001800697d0 f   c1_ex_DLModel_28.obj
 0001:00068810       ?c1_createCustomLayer@c1_MWSwishLayer_c1_Yolov9t0_ex_DLModel_280116@@QEAAXPEAVMWTargetNetworkImpl@MWCudnnTarget@@PEAVMWTensorBase@@PEBD22QEAPEBD32H@Z 0000000180069810 f   c1_ex_DLModel_28.obj
 0001:00068880       ?propagateSize@c1_MWSwishLayer_c1_Yolov9t0_ex_DLModel_280116@@UEAAXXZ 0000000180069880 f   c1_ex_DLModel_28.obj
 0001:00068930       ?cleanupLayer@c1_MWSwishLayer_c1_Yolov9t0_ex_DLModel_280116@@UEAAXXZ 0000000180069930 f   c1_ex_DLModel_28.obj
 0001:00068940       ?predict@c1_MWSwishLayer_c1_Yolov9t0_ex_DLModel_280116@@UEAAXXZ 0000000180069940 f   c1_ex_DLModel_28.obj
 0001:000689b0       ?setChartInstancePtr@c1_MWSwishLayer_c1_Yolov9t0_ex_DLModel_280116@@QEAAXPEAUSFc1_ex_DLModel_28InstanceStruct@@@Z 00000001800699b0 f   c1_ex_DLModel_28.obj
 0001:000689e0       ??0c1_MWSwishLayer_c1_Yolov9t0_ex_DLModel_280117@@QEAA@XZ 00000001800699e0 f   c1_ex_DLModel_28.obj
 0001:00068a20       ?c1_createCustomLayer@c1_MWSwishLayer_c1_Yolov9t0_ex_DLModel_280117@@QEAAXPEAVMWTargetNetworkImpl@MWCudnnTarget@@PEAVMWTensorBase@@PEBD22QEAPEBD32H@Z 0000000180069a20 f   c1_ex_DLModel_28.obj
 0001:00068a90       ?propagateSize@c1_MWSwishLayer_c1_Yolov9t0_ex_DLModel_280117@@UEAAXXZ 0000000180069a90 f   c1_ex_DLModel_28.obj
 0001:00068b40       ?cleanupLayer@c1_MWSwishLayer_c1_Yolov9t0_ex_DLModel_280117@@UEAAXXZ 0000000180069b40 f   c1_ex_DLModel_28.obj
 0001:00068b50       ?predict@c1_MWSwishLayer_c1_Yolov9t0_ex_DLModel_280117@@UEAAXXZ 0000000180069b50 f   c1_ex_DLModel_28.obj
 0001:00068bc0       ?setChartInstancePtr@c1_MWSwishLayer_c1_Yolov9t0_ex_DLModel_280117@@QEAAXPEAUSFc1_ex_DLModel_28InstanceStruct@@@Z 0000000180069bc0 f   c1_ex_DLModel_28.obj
 0001:00068bf0       ??0c1_MWSwishLayer_c1_Yolov9t0_ex_DLModel_280118@@QEAA@XZ 0000000180069bf0 f   c1_ex_DLModel_28.obj
 0001:00068c30       ?c1_createCustomLayer@c1_MWSwishLayer_c1_Yolov9t0_ex_DLModel_280118@@QEAAXPEAVMWTargetNetworkImpl@MWCudnnTarget@@PEAVMWTensorBase@@PEBD22QEAPEBD32H@Z 0000000180069c30 f   c1_ex_DLModel_28.obj
 0001:00068ca0       ?propagateSize@c1_MWSwishLayer_c1_Yolov9t0_ex_DLModel_280118@@UEAAXXZ 0000000180069ca0 f   c1_ex_DLModel_28.obj
 0001:00068d50       ?cleanupLayer@c1_MWSwishLayer_c1_Yolov9t0_ex_DLModel_280118@@UEAAXXZ 0000000180069d50 f   c1_ex_DLModel_28.obj
 0001:00068d60       ?predict@c1_MWSwishLayer_c1_Yolov9t0_ex_DLModel_280118@@UEAAXXZ 0000000180069d60 f   c1_ex_DLModel_28.obj
 0001:00068dd0       ?setChartInstancePtr@c1_MWSwishLayer_c1_Yolov9t0_ex_DLModel_280118@@QEAAXPEAUSFc1_ex_DLModel_28InstanceStruct@@@Z 0000000180069dd0 f   c1_ex_DLModel_28.obj
 0001:00068e00       ??0c1_MWSwishLayer_c1_Yolov9t0_ex_DLModel_280119@@QEAA@XZ 0000000180069e00 f   c1_ex_DLModel_28.obj
 0001:00068e40       ?c1_createCustomLayer@c1_MWSwishLayer_c1_Yolov9t0_ex_DLModel_280119@@QEAAXPEAVMWTargetNetworkImpl@MWCudnnTarget@@PEAVMWTensorBase@@PEBD22QEAPEBD32H@Z 0000000180069e40 f   c1_ex_DLModel_28.obj
 0001:00068eb0       ?propagateSize@c1_MWSwishLayer_c1_Yolov9t0_ex_DLModel_280119@@UEAAXXZ 0000000180069eb0 f   c1_ex_DLModel_28.obj
 0001:00068f60       ?cleanupLayer@c1_MWSwishLayer_c1_Yolov9t0_ex_DLModel_280119@@UEAAXXZ 0000000180069f60 f   c1_ex_DLModel_28.obj
 0001:00068f70       ?predict@c1_MWSwishLayer_c1_Yolov9t0_ex_DLModel_280119@@UEAAXXZ 0000000180069f70 f   c1_ex_DLModel_28.obj
 0001:00068fe0       ?setChartInstancePtr@c1_MWSwishLayer_c1_Yolov9t0_ex_DLModel_280119@@QEAAXPEAUSFc1_ex_DLModel_28InstanceStruct@@@Z 0000000180069fe0 f   c1_ex_DLModel_28.obj
 0001:00069010       ??0c1_MWSwishLayer_c1_Yolov9t0_ex_DLModel_280120@@QEAA@XZ 000000018006a010 f   c1_ex_DLModel_28.obj
 0001:00069050       ?c1_createCustomLayer@c1_MWSwishLayer_c1_Yolov9t0_ex_DLModel_280120@@QEAAXPEAVMWTargetNetworkImpl@MWCudnnTarget@@PEAVMWTensorBase@@PEBD22QEAPEBD32H@Z 000000018006a050 f   c1_ex_DLModel_28.obj
 0001:000690c0       ?propagateSize@c1_MWSwishLayer_c1_Yolov9t0_ex_DLModel_280120@@UEAAXXZ 000000018006a0c0 f   c1_ex_DLModel_28.obj
 0001:00069170       ?cleanupLayer@c1_MWSwishLayer_c1_Yolov9t0_ex_DLModel_280120@@UEAAXXZ 000000018006a170 f   c1_ex_DLModel_28.obj
 0001:00069180       ?predict@c1_MWSwishLayer_c1_Yolov9t0_ex_DLModel_280120@@UEAAXXZ 000000018006a180 f   c1_ex_DLModel_28.obj
 0001:000691f0       ?setChartInstancePtr@c1_MWSwishLayer_c1_Yolov9t0_ex_DLModel_280120@@QEAAXPEAUSFc1_ex_DLModel_28InstanceStruct@@@Z 000000018006a1f0 f   c1_ex_DLModel_28.obj
 0001:00069220       ??0c1_MWSwishLayer_c1_Yolov9t0_ex_DLModel_280121@@QEAA@XZ 000000018006a220 f   c1_ex_DLModel_28.obj
 0001:00069260       ?c1_createCustomLayer@c1_MWSwishLayer_c1_Yolov9t0_ex_DLModel_280121@@QEAAXPEAVMWTargetNetworkImpl@MWCudnnTarget@@PEAVMWTensorBase@@PEBD22QEAPEBD32H@Z 000000018006a260 f   c1_ex_DLModel_28.obj
 0001:000692d0       ?propagateSize@c1_MWSwishLayer_c1_Yolov9t0_ex_DLModel_280121@@UEAAXXZ 000000018006a2d0 f   c1_ex_DLModel_28.obj
 0001:00069380       ?cleanupLayer@c1_MWSwishLayer_c1_Yolov9t0_ex_DLModel_280121@@UEAAXXZ 000000018006a380 f   c1_ex_DLModel_28.obj
 0001:00069390       ?predict@c1_MWSwishLayer_c1_Yolov9t0_ex_DLModel_280121@@UEAAXXZ 000000018006a390 f   c1_ex_DLModel_28.obj
 0001:00069400       ?setChartInstancePtr@c1_MWSwishLayer_c1_Yolov9t0_ex_DLModel_280121@@QEAAXPEAUSFc1_ex_DLModel_28InstanceStruct@@@Z 000000018006a400 f   c1_ex_DLModel_28.obj
 0001:00069430       ??0c1_MWSwishLayer_c1_Yolov9t0_ex_DLModel_280168@@QEAA@XZ 000000018006a430 f   c1_ex_DLModel_28.obj
 0001:00069470       ?c1_createCustomLayer@c1_MWSwishLayer_c1_Yolov9t0_ex_DLModel_280168@@QEAAXPEAVMWTargetNetworkImpl@MWCudnnTarget@@PEAVMWTensorBase@@PEBD22QEAPEBD32H@Z 000000018006a470 f   c1_ex_DLModel_28.obj
 0001:000694e0       ?propagateSize@c1_MWSwishLayer_c1_Yolov9t0_ex_DLModel_280168@@UEAAXXZ 000000018006a4e0 f   c1_ex_DLModel_28.obj
 0001:00069590       ?cleanupLayer@c1_MWSwishLayer_c1_Yolov9t0_ex_DLModel_280168@@UEAAXXZ 000000018006a590 f   c1_ex_DLModel_28.obj
 0001:000695a0       ?predict@c1_MWSwishLayer_c1_Yolov9t0_ex_DLModel_280168@@UEAAXXZ 000000018006a5a0 f   c1_ex_DLModel_28.obj
 0001:00069610       ?setChartInstancePtr@c1_MWSwishLayer_c1_Yolov9t0_ex_DLModel_280168@@QEAAXPEAUSFc1_ex_DLModel_28InstanceStruct@@@Z 000000018006a610 f   c1_ex_DLModel_28.obj
 0001:00069640       ??0c1_MWSwishLayer_c1_Yolov9t0_ex_DLModel_280169@@QEAA@XZ 000000018006a640 f   c1_ex_DLModel_28.obj
 0001:00069680       ?c1_createCustomLayer@c1_MWSwishLayer_c1_Yolov9t0_ex_DLModel_280169@@QEAAXPEAVMWTargetNetworkImpl@MWCudnnTarget@@PEAVMWTensorBase@@PEBD22QEAPEBD32H@Z 000000018006a680 f   c1_ex_DLModel_28.obj
 0001:000696f0       ?propagateSize@c1_MWSwishLayer_c1_Yolov9t0_ex_DLModel_280169@@UEAAXXZ 000000018006a6f0 f   c1_ex_DLModel_28.obj
 0001:000697a0       ?cleanupLayer@c1_MWSwishLayer_c1_Yolov9t0_ex_DLModel_280169@@UEAAXXZ 000000018006a7a0 f   c1_ex_DLModel_28.obj
 0001:000697b0       ?predict@c1_MWSwishLayer_c1_Yolov9t0_ex_DLModel_280169@@UEAAXXZ 000000018006a7b0 f   c1_ex_DLModel_28.obj
 0001:00069820       ?setChartInstancePtr@c1_MWSwishLayer_c1_Yolov9t0_ex_DLModel_280169@@QEAAXPEAUSFc1_ex_DLModel_28InstanceStruct@@@Z 000000018006a820 f   c1_ex_DLModel_28.obj
 0001:00069850       ??0c1_MWSwishLayer_c1_Yolov9t0_ex_DLModel_280170@@QEAA@XZ 000000018006a850 f   c1_ex_DLModel_28.obj
 0001:00069890       ?c1_createCustomLayer@c1_MWSwishLayer_c1_Yolov9t0_ex_DLModel_280170@@QEAAXPEAVMWTargetNetworkImpl@MWCudnnTarget@@PEAVMWTensorBase@@PEBD22QEAPEBD32H@Z 000000018006a890 f   c1_ex_DLModel_28.obj
 0001:00069900       ?propagateSize@c1_MWSwishLayer_c1_Yolov9t0_ex_DLModel_280170@@UEAAXXZ 000000018006a900 f   c1_ex_DLModel_28.obj
 0001:000699b0       ?cleanupLayer@c1_MWSwishLayer_c1_Yolov9t0_ex_DLModel_280170@@UEAAXXZ 000000018006a9b0 f   c1_ex_DLModel_28.obj
 0001:000699c0       ?predict@c1_MWSwishLayer_c1_Yolov9t0_ex_DLModel_280170@@UEAAXXZ 000000018006a9c0 f   c1_ex_DLModel_28.obj
 0001:00069a30       ?setChartInstancePtr@c1_MWSwishLayer_c1_Yolov9t0_ex_DLModel_280170@@QEAAXPEAUSFc1_ex_DLModel_28InstanceStruct@@@Z 000000018006aa30 f   c1_ex_DLModel_28.obj
 0001:00069a60       ??0c1_MWSwishLayer_c1_Yolov9t0_ex_DLModel_280171@@QEAA@XZ 000000018006aa60 f   c1_ex_DLModel_28.obj
 0001:00069aa0       ?c1_createCustomLayer@c1_MWSwishLayer_c1_Yolov9t0_ex_DLModel_280171@@QEAAXPEAVMWTargetNetworkImpl@MWCudnnTarget@@PEAVMWTensorBase@@PEBD22QEAPEBD32H@Z 000000018006aaa0 f   c1_ex_DLModel_28.obj
 0001:00069b10       ?propagateSize@c1_MWSwishLayer_c1_Yolov9t0_ex_DLModel_280171@@UEAAXXZ 000000018006ab10 f   c1_ex_DLModel_28.obj
 0001:00069bc0       ?cleanupLayer@c1_MWSwishLayer_c1_Yolov9t0_ex_DLModel_280171@@UEAAXXZ 000000018006abc0 f   c1_ex_DLModel_28.obj
 0001:00069bd0       ?predict@c1_MWSwishLayer_c1_Yolov9t0_ex_DLModel_280171@@UEAAXXZ 000000018006abd0 f   c1_ex_DLModel_28.obj
 0001:00069c40       ?setChartInstancePtr@c1_MWSwishLayer_c1_Yolov9t0_ex_DLModel_280171@@QEAAXPEAUSFc1_ex_DLModel_28InstanceStruct@@@Z 000000018006ac40 f   c1_ex_DLModel_28.obj
 0001:00069c70       ??0c1_MWSwishLayer_c1_Yolov9t0_ex_DLModel_280122@@QEAA@XZ 000000018006ac70 f   c1_ex_DLModel_28.obj
 0001:00069cb0       ?c1_createCustomLayer@c1_MWSwishLayer_c1_Yolov9t0_ex_DLModel_280122@@QEAAXPEAVMWTargetNetworkImpl@MWCudnnTarget@@PEAVMWTensorBase@@PEBD22QEAPEBD32H@Z 000000018006acb0 f   c1_ex_DLModel_28.obj
 0001:00069d20       ?propagateSize@c1_MWSwishLayer_c1_Yolov9t0_ex_DLModel_280122@@UEAAXXZ 000000018006ad20 f   c1_ex_DLModel_28.obj
 0001:00069dd0       ?cleanupLayer@c1_MWSwishLayer_c1_Yolov9t0_ex_DLModel_280122@@UEAAXXZ 000000018006add0 f   c1_ex_DLModel_28.obj
 0001:00069de0       ?predict@c1_MWSwishLayer_c1_Yolov9t0_ex_DLModel_280122@@UEAAXXZ 000000018006ade0 f   c1_ex_DLModel_28.obj
 0001:00069e50       ?setChartInstancePtr@c1_MWSwishLayer_c1_Yolov9t0_ex_DLModel_280122@@QEAAXPEAUSFc1_ex_DLModel_28InstanceStruct@@@Z 000000018006ae50 f   c1_ex_DLModel_28.obj
 0001:00069e80       ??0c1_MWSwishLayer_c1_Yolov9t0_ex_DLModel_280123@@QEAA@XZ 000000018006ae80 f   c1_ex_DLModel_28.obj
 0001:00069ec0       ?c1_createCustomLayer@c1_MWSwishLayer_c1_Yolov9t0_ex_DLModel_280123@@QEAAXPEAVMWTargetNetworkImpl@MWCudnnTarget@@PEAVMWTensorBase@@PEBD22QEAPEBD32H@Z 000000018006aec0 f   c1_ex_DLModel_28.obj
 0001:00069f30       ?propagateSize@c1_MWSwishLayer_c1_Yolov9t0_ex_DLModel_280123@@UEAAXXZ 000000018006af30 f   c1_ex_DLModel_28.obj
 0001:00069fe0       ?cleanupLayer@c1_MWSwishLayer_c1_Yolov9t0_ex_DLModel_280123@@UEAAXXZ 000000018006afe0 f   c1_ex_DLModel_28.obj
 0001:00069ff0       ?predict@c1_MWSwishLayer_c1_Yolov9t0_ex_DLModel_280123@@UEAAXXZ 000000018006aff0 f   c1_ex_DLModel_28.obj
 0001:0006a060       ?setChartInstancePtr@c1_MWSwishLayer_c1_Yolov9t0_ex_DLModel_280123@@QEAAXPEAUSFc1_ex_DLModel_28InstanceStruct@@@Z 000000018006b060 f   c1_ex_DLModel_28.obj
 0001:0006a090       ??0c1_MWCustomSliceLayer_c1_Yolov9t0_ex_DLModel_2807@@QEAA@XZ 000000018006b090 f   c1_ex_DLModel_28.obj
 0001:0006a0d0       ?c1_createCustomLayer@c1_MWCustomSliceLayer_c1_Yolov9t0_ex_DLModel_2807@@QEAAXPEAVMWTargetNetworkImpl@MWCudnnTarget@@PEAVMWTensorBase@@PEBDQEAPEBD322HH@Z 000000018006b0d0 f   c1_ex_DLModel_28.obj
 0001:0006a150       ?propagateSize@c1_MWCustomSliceLayer_c1_Yolov9t0_ex_DLModel_2807@@UEAAXXZ 000000018006b150 f   c1_ex_DLModel_28.obj
 0001:0006a350       ?cleanupLayer@c1_MWCustomSliceLayer_c1_Yolov9t0_ex_DLModel_2807@@UEAAXXZ 000000018006b350 f   c1_ex_DLModel_28.obj
 0001:0006a360       ?predict@c1_MWCustomSliceLayer_c1_Yolov9t0_ex_DLModel_2807@@UEAAXXZ 000000018006b360 f   c1_ex_DLModel_28.obj
 0001:0006a440       ?setChartInstancePtr@c1_MWCustomSliceLayer_c1_Yolov9t0_ex_DLModel_2807@@QEAAXPEAUSFc1_ex_DLModel_28InstanceStruct@@@Z 000000018006b440 f   c1_ex_DLModel_28.obj
 0001:0006a470       ??0c1_MWSwishLayer_c1_Yolov9t0_ex_DLModel_280124@@QEAA@XZ 000000018006b470 f   c1_ex_DLModel_28.obj
 0001:0006a4b0       ?c1_createCustomLayer@c1_MWSwishLayer_c1_Yolov9t0_ex_DLModel_280124@@QEAAXPEAVMWTargetNetworkImpl@MWCudnnTarget@@PEAVMWTensorBase@@PEBD22QEAPEBD32H@Z 000000018006b4b0 f   c1_ex_DLModel_28.obj
 0001:0006a520       ?propagateSize@c1_MWSwishLayer_c1_Yolov9t0_ex_DLModel_280124@@UEAAXXZ 000000018006b520 f   c1_ex_DLModel_28.obj
 0001:0006a5d0       ?cleanupLayer@c1_MWSwishLayer_c1_Yolov9t0_ex_DLModel_280124@@UEAAXXZ 000000018006b5d0 f   c1_ex_DLModel_28.obj
 0001:0006a5e0       ?predict@c1_MWSwishLayer_c1_Yolov9t0_ex_DLModel_280124@@UEAAXXZ 000000018006b5e0 f   c1_ex_DLModel_28.obj
 0001:0006a650       ?setChartInstancePtr@c1_MWSwishLayer_c1_Yolov9t0_ex_DLModel_280124@@QEAAXPEAUSFc1_ex_DLModel_28InstanceStruct@@@Z 000000018006b650 f   c1_ex_DLModel_28.obj
 0001:0006a680       ??0c1_MWSwishLayer_c1_Yolov9t0_ex_DLModel_280125@@QEAA@XZ 000000018006b680 f   c1_ex_DLModel_28.obj
 0001:0006a6c0       ?c1_createCustomLayer@c1_MWSwishLayer_c1_Yolov9t0_ex_DLModel_280125@@QEAAXPEAVMWTargetNetworkImpl@MWCudnnTarget@@PEAVMWTensorBase@@PEBD22QEAPEBD32H@Z 000000018006b6c0 f   c1_ex_DLModel_28.obj
 0001:0006a730       ?propagateSize@c1_MWSwishLayer_c1_Yolov9t0_ex_DLModel_280125@@UEAAXXZ 000000018006b730 f   c1_ex_DLModel_28.obj
 0001:0006a7e0       ?cleanupLayer@c1_MWSwishLayer_c1_Yolov9t0_ex_DLModel_280125@@UEAAXXZ 000000018006b7e0 f   c1_ex_DLModel_28.obj
 0001:0006a7f0       ?predict@c1_MWSwishLayer_c1_Yolov9t0_ex_DLModel_280125@@UEAAXXZ 000000018006b7f0 f   c1_ex_DLModel_28.obj
 0001:0006a860       ?setChartInstancePtr@c1_MWSwishLayer_c1_Yolov9t0_ex_DLModel_280125@@QEAAXPEAUSFc1_ex_DLModel_28InstanceStruct@@@Z 000000018006b860 f   c1_ex_DLModel_28.obj
 0001:0006a890       ??0c1_MWSwishLayer_c1_Yolov9t0_ex_DLModel_280126@@QEAA@XZ 000000018006b890 f   c1_ex_DLModel_28.obj
 0001:0006a8d0       ?c1_createCustomLayer@c1_MWSwishLayer_c1_Yolov9t0_ex_DLModel_280126@@QEAAXPEAVMWTargetNetworkImpl@MWCudnnTarget@@PEAVMWTensorBase@@PEBD22QEAPEBD32H@Z 000000018006b8d0 f   c1_ex_DLModel_28.obj
 0001:0006a940       ?propagateSize@c1_MWSwishLayer_c1_Yolov9t0_ex_DLModel_280126@@UEAAXXZ 000000018006b940 f   c1_ex_DLModel_28.obj
 0001:0006a9f0       ?cleanupLayer@c1_MWSwishLayer_c1_Yolov9t0_ex_DLModel_280126@@UEAAXXZ 000000018006b9f0 f   c1_ex_DLModel_28.obj
 0001:0006aa00       ?predict@c1_MWSwishLayer_c1_Yolov9t0_ex_DLModel_280126@@UEAAXXZ 000000018006ba00 f   c1_ex_DLModel_28.obj
 0001:0006aa70       ?setChartInstancePtr@c1_MWSwishLayer_c1_Yolov9t0_ex_DLModel_280126@@QEAAXPEAUSFc1_ex_DLModel_28InstanceStruct@@@Z 000000018006ba70 f   c1_ex_DLModel_28.obj
 0001:0006aaa0       ??0c1_MWSwishLayer_c1_Yolov9t0_ex_DLModel_280127@@QEAA@XZ 000000018006baa0 f   c1_ex_DLModel_28.obj
 0001:0006aae0       ?c1_createCustomLayer@c1_MWSwishLayer_c1_Yolov9t0_ex_DLModel_280127@@QEAAXPEAVMWTargetNetworkImpl@MWCudnnTarget@@PEAVMWTensorBase@@PEBD22QEAPEBD32H@Z 000000018006bae0 f   c1_ex_DLModel_28.obj
 0001:0006ab50       ?propagateSize@c1_MWSwishLayer_c1_Yolov9t0_ex_DLModel_280127@@UEAAXXZ 000000018006bb50 f   c1_ex_DLModel_28.obj
 0001:0006ac00       ?cleanupLayer@c1_MWSwishLayer_c1_Yolov9t0_ex_DLModel_280127@@UEAAXXZ 000000018006bc00 f   c1_ex_DLModel_28.obj
 0001:0006ac10       ?predict@c1_MWSwishLayer_c1_Yolov9t0_ex_DLModel_280127@@UEAAXXZ 000000018006bc10 f   c1_ex_DLModel_28.obj
 0001:0006ac80       ?setChartInstancePtr@c1_MWSwishLayer_c1_Yolov9t0_ex_DLModel_280127@@QEAAXPEAUSFc1_ex_DLModel_28InstanceStruct@@@Z 000000018006bc80 f   c1_ex_DLModel_28.obj
 0001:0006acb0       ??0c1_MWSwishLayer_c1_Yolov9t0_ex_DLModel_280128@@QEAA@XZ 000000018006bcb0 f   c1_ex_DLModel_28.obj
 0001:0006acf0       ?c1_createCustomLayer@c1_MWSwishLayer_c1_Yolov9t0_ex_DLModel_280128@@QEAAXPEAVMWTargetNetworkImpl@MWCudnnTarget@@PEAVMWTensorBase@@PEBD22QEAPEBD32H@Z 000000018006bcf0 f   c1_ex_DLModel_28.obj
 0001:0006ad60       ?propagateSize@c1_MWSwishLayer_c1_Yolov9t0_ex_DLModel_280128@@UEAAXXZ 000000018006bd60 f   c1_ex_DLModel_28.obj
 0001:0006ae10       ?cleanupLayer@c1_MWSwishLayer_c1_Yolov9t0_ex_DLModel_280128@@UEAAXXZ 000000018006be10 f   c1_ex_DLModel_28.obj
 0001:0006ae20       ?predict@c1_MWSwishLayer_c1_Yolov9t0_ex_DLModel_280128@@UEAAXXZ 000000018006be20 f   c1_ex_DLModel_28.obj
 0001:0006ae90       ?setChartInstancePtr@c1_MWSwishLayer_c1_Yolov9t0_ex_DLModel_280128@@QEAAXPEAUSFc1_ex_DLModel_28InstanceStruct@@@Z 000000018006be90 f   c1_ex_DLModel_28.obj
 0001:0006aec0       ??0c1_MWSwishLayer_c1_Yolov9t0_ex_DLModel_280129@@QEAA@XZ 000000018006bec0 f   c1_ex_DLModel_28.obj
 0001:0006af00       ?c1_createCustomLayer@c1_MWSwishLayer_c1_Yolov9t0_ex_DLModel_280129@@QEAAXPEAVMWTargetNetworkImpl@MWCudnnTarget@@PEAVMWTensorBase@@PEBD22QEAPEBD32H@Z 000000018006bf00 f   c1_ex_DLModel_28.obj
 0001:0006af70       ?propagateSize@c1_MWSwishLayer_c1_Yolov9t0_ex_DLModel_280129@@UEAAXXZ 000000018006bf70 f   c1_ex_DLModel_28.obj
 0001:0006b020       ?cleanupLayer@c1_MWSwishLayer_c1_Yolov9t0_ex_DLModel_280129@@UEAAXXZ 000000018006c020 f   c1_ex_DLModel_28.obj
 0001:0006b030       ?predict@c1_MWSwishLayer_c1_Yolov9t0_ex_DLModel_280129@@UEAAXXZ 000000018006c030 f   c1_ex_DLModel_28.obj
 0001:0006b0a0       ?setChartInstancePtr@c1_MWSwishLayer_c1_Yolov9t0_ex_DLModel_280129@@QEAAXPEAUSFc1_ex_DLModel_28InstanceStruct@@@Z 000000018006c0a0 f   c1_ex_DLModel_28.obj
 0001:0006b0d0       ??0c1_MWSwishLayer_c1_Yolov9t0_ex_DLModel_280130@@QEAA@XZ 000000018006c0d0 f   c1_ex_DLModel_28.obj
 0001:0006b110       ?c1_createCustomLayer@c1_MWSwishLayer_c1_Yolov9t0_ex_DLModel_280130@@QEAAXPEAVMWTargetNetworkImpl@MWCudnnTarget@@PEAVMWTensorBase@@PEBD22QEAPEBD32H@Z 000000018006c110 f   c1_ex_DLModel_28.obj
 0001:0006b180       ?propagateSize@c1_MWSwishLayer_c1_Yolov9t0_ex_DLModel_280130@@UEAAXXZ 000000018006c180 f   c1_ex_DLModel_28.obj
 0001:0006b230       ?cleanupLayer@c1_MWSwishLayer_c1_Yolov9t0_ex_DLModel_280130@@UEAAXXZ 000000018006c230 f   c1_ex_DLModel_28.obj
 0001:0006b240       ?predict@c1_MWSwishLayer_c1_Yolov9t0_ex_DLModel_280130@@UEAAXXZ 000000018006c240 f   c1_ex_DLModel_28.obj
 0001:0006b2b0       ?setChartInstancePtr@c1_MWSwishLayer_c1_Yolov9t0_ex_DLModel_280130@@QEAAXPEAUSFc1_ex_DLModel_28InstanceStruct@@@Z 000000018006c2b0 f   c1_ex_DLModel_28.obj
 0001:0006b2e0       ??0c1_MWSwishLayer_c1_Yolov9t0_ex_DLModel_280131@@QEAA@XZ 000000018006c2e0 f   c1_ex_DLModel_28.obj
 0001:0006b320       ?c1_createCustomLayer@c1_MWSwishLayer_c1_Yolov9t0_ex_DLModel_280131@@QEAAXPEAVMWTargetNetworkImpl@MWCudnnTarget@@PEAVMWTensorBase@@PEBD22QEAPEBD32H@Z 000000018006c320 f   c1_ex_DLModel_28.obj
 0001:0006b390       ?propagateSize@c1_MWSwishLayer_c1_Yolov9t0_ex_DLModel_280131@@UEAAXXZ 000000018006c390 f   c1_ex_DLModel_28.obj
 0001:0006b440       ?cleanupLayer@c1_MWSwishLayer_c1_Yolov9t0_ex_DLModel_280131@@UEAAXXZ 000000018006c440 f   c1_ex_DLModel_28.obj
 0001:0006b450       ?predict@c1_MWSwishLayer_c1_Yolov9t0_ex_DLModel_280131@@UEAAXXZ 000000018006c450 f   c1_ex_DLModel_28.obj
 0001:0006b4c0       ?setChartInstancePtr@c1_MWSwishLayer_c1_Yolov9t0_ex_DLModel_280131@@QEAAXPEAUSFc1_ex_DLModel_28InstanceStruct@@@Z 000000018006c4c0 f   c1_ex_DLModel_28.obj
 0001:0006b4f0       ??0c1_MWSwishLayer_c1_Yolov9t0_ex_DLModel_280132@@QEAA@XZ 000000018006c4f0 f   c1_ex_DLModel_28.obj
 0001:0006b530       ?c1_createCustomLayer@c1_MWSwishLayer_c1_Yolov9t0_ex_DLModel_280132@@QEAAXPEAVMWTargetNetworkImpl@MWCudnnTarget@@PEAVMWTensorBase@@PEBD22QEAPEBD32H@Z 000000018006c530 f   c1_ex_DLModel_28.obj
 0001:0006b5a0       ?propagateSize@c1_MWSwishLayer_c1_Yolov9t0_ex_DLModel_280132@@UEAAXXZ 000000018006c5a0 f   c1_ex_DLModel_28.obj
 0001:0006b650       ?cleanupLayer@c1_MWSwishLayer_c1_Yolov9t0_ex_DLModel_280132@@UEAAXXZ 000000018006c650 f   c1_ex_DLModel_28.obj
 0001:0006b660       ?predict@c1_MWSwishLayer_c1_Yolov9t0_ex_DLModel_280132@@UEAAXXZ 000000018006c660 f   c1_ex_DLModel_28.obj
 0001:0006b6d0       ?setChartInstancePtr@c1_MWSwishLayer_c1_Yolov9t0_ex_DLModel_280132@@QEAAXPEAUSFc1_ex_DLModel_28InstanceStruct@@@Z 000000018006c6d0 f   c1_ex_DLModel_28.obj
 0001:0006b700       ??0c1_MWSwishLayer_c1_Yolov9t0_ex_DLModel_280133@@QEAA@XZ 000000018006c700 f   c1_ex_DLModel_28.obj
 0001:0006b740       ?c1_createCustomLayer@c1_MWSwishLayer_c1_Yolov9t0_ex_DLModel_280133@@QEAAXPEAVMWTargetNetworkImpl@MWCudnnTarget@@PEAVMWTensorBase@@PEBD22QEAPEBD32H@Z 000000018006c740 f   c1_ex_DLModel_28.obj
 0001:0006b7b0       ?propagateSize@c1_MWSwishLayer_c1_Yolov9t0_ex_DLModel_280133@@UEAAXXZ 000000018006c7b0 f   c1_ex_DLModel_28.obj
 0001:0006b860       ?cleanupLayer@c1_MWSwishLayer_c1_Yolov9t0_ex_DLModel_280133@@UEAAXXZ 000000018006c860 f   c1_ex_DLModel_28.obj
 0001:0006b870       ?predict@c1_MWSwishLayer_c1_Yolov9t0_ex_DLModel_280133@@UEAAXXZ 000000018006c870 f   c1_ex_DLModel_28.obj
 0001:0006b8e0       ?setChartInstancePtr@c1_MWSwishLayer_c1_Yolov9t0_ex_DLModel_280133@@QEAAXPEAUSFc1_ex_DLModel_28InstanceStruct@@@Z 000000018006c8e0 f   c1_ex_DLModel_28.obj
 0001:0006b910       ??0c1_MWSwishLayer_c1_Yolov9t0_ex_DLModel_280134@@QEAA@XZ 000000018006c910 f   c1_ex_DLModel_28.obj
 0001:0006b950       ?c1_createCustomLayer@c1_MWSwishLayer_c1_Yolov9t0_ex_DLModel_280134@@QEAAXPEAVMWTargetNetworkImpl@MWCudnnTarget@@PEAVMWTensorBase@@PEBD22QEAPEBD32H@Z 000000018006c950 f   c1_ex_DLModel_28.obj
 0001:0006b9c0       ?propagateSize@c1_MWSwishLayer_c1_Yolov9t0_ex_DLModel_280134@@UEAAXXZ 000000018006c9c0 f   c1_ex_DLModel_28.obj
 0001:0006ba70       ?cleanupLayer@c1_MWSwishLayer_c1_Yolov9t0_ex_DLModel_280134@@UEAAXXZ 000000018006ca70 f   c1_ex_DLModel_28.obj
 0001:0006ba80       ?predict@c1_MWSwishLayer_c1_Yolov9t0_ex_DLModel_280134@@UEAAXXZ 000000018006ca80 f   c1_ex_DLModel_28.obj
 0001:0006baf0       ?setChartInstancePtr@c1_MWSwishLayer_c1_Yolov9t0_ex_DLModel_280134@@QEAAXPEAUSFc1_ex_DLModel_28InstanceStruct@@@Z 000000018006caf0 f   c1_ex_DLModel_28.obj
 0001:0006bb20       ??0c1_MWSwishLayer_c1_Yolov9t0_ex_DLModel_280135@@QEAA@XZ 000000018006cb20 f   c1_ex_DLModel_28.obj
 0001:0006bb60       ?c1_createCustomLayer@c1_MWSwishLayer_c1_Yolov9t0_ex_DLModel_280135@@QEAAXPEAVMWTargetNetworkImpl@MWCudnnTarget@@PEAVMWTensorBase@@PEBD22QEAPEBD32H@Z 000000018006cb60 f   c1_ex_DLModel_28.obj
 0001:0006bbd0       ?propagateSize@c1_MWSwishLayer_c1_Yolov9t0_ex_DLModel_280135@@UEAAXXZ 000000018006cbd0 f   c1_ex_DLModel_28.obj
 0001:0006bc80       ?cleanupLayer@c1_MWSwishLayer_c1_Yolov9t0_ex_DLModel_280135@@UEAAXXZ 000000018006cc80 f   c1_ex_DLModel_28.obj
 0001:0006bc90       ?predict@c1_MWSwishLayer_c1_Yolov9t0_ex_DLModel_280135@@UEAAXXZ 000000018006cc90 f   c1_ex_DLModel_28.obj
 0001:0006bd00       ?setChartInstancePtr@c1_MWSwishLayer_c1_Yolov9t0_ex_DLModel_280135@@QEAAXPEAUSFc1_ex_DLModel_28InstanceStruct@@@Z 000000018006cd00 f   c1_ex_DLModel_28.obj
 0001:0006bd30       ??0c1_MWSwishLayer_c1_Yolov9t0_ex_DLModel_280136@@QEAA@XZ 000000018006cd30 f   c1_ex_DLModel_28.obj
 0001:0006bd70       ?c1_createCustomLayer@c1_MWSwishLayer_c1_Yolov9t0_ex_DLModel_280136@@QEAAXPEAVMWTargetNetworkImpl@MWCudnnTarget@@PEAVMWTensorBase@@PEBD22QEAPEBD32H@Z 000000018006cd70 f   c1_ex_DLModel_28.obj
 0001:0006bde0       ?propagateSize@c1_MWSwishLayer_c1_Yolov9t0_ex_DLModel_280136@@UEAAXXZ 000000018006cde0 f   c1_ex_DLModel_28.obj
 0001:0006be90       ?cleanupLayer@c1_MWSwishLayer_c1_Yolov9t0_ex_DLModel_280136@@UEAAXXZ 000000018006ce90 f   c1_ex_DLModel_28.obj
 0001:0006bea0       ?predict@c1_MWSwishLayer_c1_Yolov9t0_ex_DLModel_280136@@UEAAXXZ 000000018006cea0 f   c1_ex_DLModel_28.obj
 0001:0006bf10       ?setChartInstancePtr@c1_MWSwishLayer_c1_Yolov9t0_ex_DLModel_280136@@QEAAXPEAUSFc1_ex_DLModel_28InstanceStruct@@@Z 000000018006cf10 f   c1_ex_DLModel_28.obj
 0001:0006bf40       ??0c1_MWSwishLayer_c1_Yolov9t0_ex_DLModel_280137@@QEAA@XZ 000000018006cf40 f   c1_ex_DLModel_28.obj
 0001:0006bf80       ?c1_createCustomLayer@c1_MWSwishLayer_c1_Yolov9t0_ex_DLModel_280137@@QEAAXPEAVMWTargetNetworkImpl@MWCudnnTarget@@PEAVMWTensorBase@@PEBD22QEAPEBD32H@Z 000000018006cf80 f   c1_ex_DLModel_28.obj
 0001:0006bff0       ?propagateSize@c1_MWSwishLayer_c1_Yolov9t0_ex_DLModel_280137@@UEAAXXZ 000000018006cff0 f   c1_ex_DLModel_28.obj
 0001:0006c0a0       ?cleanupLayer@c1_MWSwishLayer_c1_Yolov9t0_ex_DLModel_280137@@UEAAXXZ 000000018006d0a0 f   c1_ex_DLModel_28.obj
 0001:0006c0b0       ?predict@c1_MWSwishLayer_c1_Yolov9t0_ex_DLModel_280137@@UEAAXXZ 000000018006d0b0 f   c1_ex_DLModel_28.obj
 0001:0006c120       ?setChartInstancePtr@c1_MWSwishLayer_c1_Yolov9t0_ex_DLModel_280137@@QEAAXPEAUSFc1_ex_DLModel_28InstanceStruct@@@Z 000000018006d120 f   c1_ex_DLModel_28.obj
 0001:0006c150       ??0c1_MWSwishLayer_c1_Yolov9t0_ex_DLModel_280138@@QEAA@XZ 000000018006d150 f   c1_ex_DLModel_28.obj
 0001:0006c190       ?c1_createCustomLayer@c1_MWSwishLayer_c1_Yolov9t0_ex_DLModel_280138@@QEAAXPEAVMWTargetNetworkImpl@MWCudnnTarget@@PEAVMWTensorBase@@PEBD22QEAPEBD32H@Z 000000018006d190 f   c1_ex_DLModel_28.obj
 0001:0006c200       ?propagateSize@c1_MWSwishLayer_c1_Yolov9t0_ex_DLModel_280138@@UEAAXXZ 000000018006d200 f   c1_ex_DLModel_28.obj
 0001:0006c2b0       ?cleanupLayer@c1_MWSwishLayer_c1_Yolov9t0_ex_DLModel_280138@@UEAAXXZ 000000018006d2b0 f   c1_ex_DLModel_28.obj
 0001:0006c2c0       ?predict@c1_MWSwishLayer_c1_Yolov9t0_ex_DLModel_280138@@UEAAXXZ 000000018006d2c0 f   c1_ex_DLModel_28.obj
 0001:0006c330       ?setChartInstancePtr@c1_MWSwishLayer_c1_Yolov9t0_ex_DLModel_280138@@QEAAXPEAUSFc1_ex_DLModel_28InstanceStruct@@@Z 000000018006d330 f   c1_ex_DLModel_28.obj
 0001:0006c360       ??0c1_MWSwishLayer_c1_Yolov9t0_ex_DLModel_280139@@QEAA@XZ 000000018006d360 f   c1_ex_DLModel_28.obj
 0001:0006c3a0       ?c1_createCustomLayer@c1_MWSwishLayer_c1_Yolov9t0_ex_DLModel_280139@@QEAAXPEAVMWTargetNetworkImpl@MWCudnnTarget@@PEAVMWTensorBase@@PEBD22QEAPEBD32H@Z 000000018006d3a0 f   c1_ex_DLModel_28.obj
 0001:0006c410       ?propagateSize@c1_MWSwishLayer_c1_Yolov9t0_ex_DLModel_280139@@UEAAXXZ 000000018006d410 f   c1_ex_DLModel_28.obj
 0001:0006c4c0       ?cleanupLayer@c1_MWSwishLayer_c1_Yolov9t0_ex_DLModel_280139@@UEAAXXZ 000000018006d4c0 f   c1_ex_DLModel_28.obj
 0001:0006c4d0       ?predict@c1_MWSwishLayer_c1_Yolov9t0_ex_DLModel_280139@@UEAAXXZ 000000018006d4d0 f   c1_ex_DLModel_28.obj
 0001:0006c540       ?setChartInstancePtr@c1_MWSwishLayer_c1_Yolov9t0_ex_DLModel_280139@@QEAAXPEAUSFc1_ex_DLModel_28InstanceStruct@@@Z 000000018006d540 f   c1_ex_DLModel_28.obj
 0001:0006c570       ??0c1_MWSwishLayer_c1_Yolov9t0_ex_DLModel_280140@@QEAA@XZ 000000018006d570 f   c1_ex_DLModel_28.obj
 0001:0006c5b0       ?c1_createCustomLayer@c1_MWSwishLayer_c1_Yolov9t0_ex_DLModel_280140@@QEAAXPEAVMWTargetNetworkImpl@MWCudnnTarget@@PEAVMWTensorBase@@PEBD22QEAPEBD32H@Z 000000018006d5b0 f   c1_ex_DLModel_28.obj
 0001:0006c620       ?propagateSize@c1_MWSwishLayer_c1_Yolov9t0_ex_DLModel_280140@@UEAAXXZ 000000018006d620 f   c1_ex_DLModel_28.obj
 0001:0006c6d0       ?cleanupLayer@c1_MWSwishLayer_c1_Yolov9t0_ex_DLModel_280140@@UEAAXXZ 000000018006d6d0 f   c1_ex_DLModel_28.obj
 0001:0006c6e0       ?predict@c1_MWSwishLayer_c1_Yolov9t0_ex_DLModel_280140@@UEAAXXZ 000000018006d6e0 f   c1_ex_DLModel_28.obj
 0001:0006c750       ?setChartInstancePtr@c1_MWSwishLayer_c1_Yolov9t0_ex_DLModel_280140@@QEAAXPEAUSFc1_ex_DLModel_28InstanceStruct@@@Z 000000018006d750 f   c1_ex_DLModel_28.obj
 0001:0006c780       ??0c1_MWSwishLayer_c1_Yolov9t0_ex_DLModel_280141@@QEAA@XZ 000000018006d780 f   c1_ex_DLModel_28.obj
 0001:0006c7c0       ?c1_createCustomLayer@c1_MWSwishLayer_c1_Yolov9t0_ex_DLModel_280141@@QEAAXPEAVMWTargetNetworkImpl@MWCudnnTarget@@PEAVMWTensorBase@@PEBD22QEAPEBD32H@Z 000000018006d7c0 f   c1_ex_DLModel_28.obj
 0001:0006c830       ?propagateSize@c1_MWSwishLayer_c1_Yolov9t0_ex_DLModel_280141@@UEAAXXZ 000000018006d830 f   c1_ex_DLModel_28.obj
 0001:0006c8e0       ?cleanupLayer@c1_MWSwishLayer_c1_Yolov9t0_ex_DLModel_280141@@UEAAXXZ 000000018006d8e0 f   c1_ex_DLModel_28.obj
 0001:0006c8f0       ?predict@c1_MWSwishLayer_c1_Yolov9t0_ex_DLModel_280141@@UEAAXXZ 000000018006d8f0 f   c1_ex_DLModel_28.obj
 0001:0006c960       ?setChartInstancePtr@c1_MWSwishLayer_c1_Yolov9t0_ex_DLModel_280141@@QEAAXPEAUSFc1_ex_DLModel_28InstanceStruct@@@Z 000000018006d960 f   c1_ex_DLModel_28.obj
 0001:0006c990       ??0c1_MWSwishLayer_c1_Yolov9t0_ex_DLModel_280142@@QEAA@XZ 000000018006d990 f   c1_ex_DLModel_28.obj
 0001:0006c9d0       ?c1_createCustomLayer@c1_MWSwishLayer_c1_Yolov9t0_ex_DLModel_280142@@QEAAXPEAVMWTargetNetworkImpl@MWCudnnTarget@@PEAVMWTensorBase@@PEBD22QEAPEBD32H@Z 000000018006d9d0 f   c1_ex_DLModel_28.obj
 0001:0006ca40       ?propagateSize@c1_MWSwishLayer_c1_Yolov9t0_ex_DLModel_280142@@UEAAXXZ 000000018006da40 f   c1_ex_DLModel_28.obj
 0001:0006caf0       ?cleanupLayer@c1_MWSwishLayer_c1_Yolov9t0_ex_DLModel_280142@@UEAAXXZ 000000018006daf0 f   c1_ex_DLModel_28.obj
 0001:0006cb00       ?predict@c1_MWSwishLayer_c1_Yolov9t0_ex_DLModel_280142@@UEAAXXZ 000000018006db00 f   c1_ex_DLModel_28.obj
 0001:0006cb70       ?setChartInstancePtr@c1_MWSwishLayer_c1_Yolov9t0_ex_DLModel_280142@@QEAAXPEAUSFc1_ex_DLModel_28InstanceStruct@@@Z 000000018006db70 f   c1_ex_DLModel_28.obj
 0001:0006cba0       ??0c1_MWSwishLayer_c1_Yolov9t0_ex_DLModel_280143@@QEAA@XZ 000000018006dba0 f   c1_ex_DLModel_28.obj
 0001:0006cbe0       ?c1_createCustomLayer@c1_MWSwishLayer_c1_Yolov9t0_ex_DLModel_280143@@QEAAXPEAVMWTargetNetworkImpl@MWCudnnTarget@@PEAVMWTensorBase@@PEBD22QEAPEBD32H@Z 000000018006dbe0 f   c1_ex_DLModel_28.obj
 0001:0006cc50       ?propagateSize@c1_MWSwishLayer_c1_Yolov9t0_ex_DLModel_280143@@UEAAXXZ 000000018006dc50 f   c1_ex_DLModel_28.obj
 0001:0006cd00       ?cleanupLayer@c1_MWSwishLayer_c1_Yolov9t0_ex_DLModel_280143@@UEAAXXZ 000000018006dd00 f   c1_ex_DLModel_28.obj
 0001:0006cd10       ?predict@c1_MWSwishLayer_c1_Yolov9t0_ex_DLModel_280143@@UEAAXXZ 000000018006dd10 f   c1_ex_DLModel_28.obj
 0001:0006cd80       ?setChartInstancePtr@c1_MWSwishLayer_c1_Yolov9t0_ex_DLModel_280143@@QEAAXPEAUSFc1_ex_DLModel_28InstanceStruct@@@Z 000000018006dd80 f   c1_ex_DLModel_28.obj
 0001:0006cdb0       ??0c1_MWSwishLayer_c1_Yolov9t0_ex_DLModel_280144@@QEAA@XZ 000000018006ddb0 f   c1_ex_DLModel_28.obj
 0001:0006cdf0       ?c1_createCustomLayer@c1_MWSwishLayer_c1_Yolov9t0_ex_DLModel_280144@@QEAAXPEAVMWTargetNetworkImpl@MWCudnnTarget@@PEAVMWTensorBase@@PEBD22QEAPEBD32H@Z 000000018006ddf0 f   c1_ex_DLModel_28.obj
 0001:0006ce60       ?propagateSize@c1_MWSwishLayer_c1_Yolov9t0_ex_DLModel_280144@@UEAAXXZ 000000018006de60 f   c1_ex_DLModel_28.obj
 0001:0006cf10       ?cleanupLayer@c1_MWSwishLayer_c1_Yolov9t0_ex_DLModel_280144@@UEAAXXZ 000000018006df10 f   c1_ex_DLModel_28.obj
 0001:0006cf20       ?predict@c1_MWSwishLayer_c1_Yolov9t0_ex_DLModel_280144@@UEAAXXZ 000000018006df20 f   c1_ex_DLModel_28.obj
 0001:0006cf90       ?setChartInstancePtr@c1_MWSwishLayer_c1_Yolov9t0_ex_DLModel_280144@@QEAAXPEAUSFc1_ex_DLModel_28InstanceStruct@@@Z 000000018006df90 f   c1_ex_DLModel_28.obj
 0001:0006cfc0       ??0c1_MWSwishLayer_c1_Yolov9t0_ex_DLModel_280172@@QEAA@XZ 000000018006dfc0 f   c1_ex_DLModel_28.obj
 0001:0006d000       ?c1_createCustomLayer@c1_MWSwishLayer_c1_Yolov9t0_ex_DLModel_280172@@QEAAXPEAVMWTargetNetworkImpl@MWCudnnTarget@@PEAVMWTensorBase@@PEBD22QEAPEBD32H@Z 000000018006e000 f   c1_ex_DLModel_28.obj
 0001:0006d070       ?propagateSize@c1_MWSwishLayer_c1_Yolov9t0_ex_DLModel_280172@@UEAAXXZ 000000018006e070 f   c1_ex_DLModel_28.obj
 0001:0006d120       ?cleanupLayer@c1_MWSwishLayer_c1_Yolov9t0_ex_DLModel_280172@@UEAAXXZ 000000018006e120 f   c1_ex_DLModel_28.obj
 0001:0006d130       ?predict@c1_MWSwishLayer_c1_Yolov9t0_ex_DLModel_280172@@UEAAXXZ 000000018006e130 f   c1_ex_DLModel_28.obj
 0001:0006d1a0       ?setChartInstancePtr@c1_MWSwishLayer_c1_Yolov9t0_ex_DLModel_280172@@QEAAXPEAUSFc1_ex_DLModel_28InstanceStruct@@@Z 000000018006e1a0 f   c1_ex_DLModel_28.obj
 0001:0006d1d0       ??0c1_MWSwishLayer_c1_Yolov9t0_ex_DLModel_280173@@QEAA@XZ 000000018006e1d0 f   c1_ex_DLModel_28.obj
 0001:0006d210       ?c1_createCustomLayer@c1_MWSwishLayer_c1_Yolov9t0_ex_DLModel_280173@@QEAAXPEAVMWTargetNetworkImpl@MWCudnnTarget@@PEAVMWTensorBase@@PEBD22QEAPEBD32H@Z 000000018006e210 f   c1_ex_DLModel_28.obj
 0001:0006d280       ?propagateSize@c1_MWSwishLayer_c1_Yolov9t0_ex_DLModel_280173@@UEAAXXZ 000000018006e280 f   c1_ex_DLModel_28.obj
 0001:0006d330       ?cleanupLayer@c1_MWSwishLayer_c1_Yolov9t0_ex_DLModel_280173@@UEAAXXZ 000000018006e330 f   c1_ex_DLModel_28.obj
 0001:0006d340       ?predict@c1_MWSwishLayer_c1_Yolov9t0_ex_DLModel_280173@@UEAAXXZ 000000018006e340 f   c1_ex_DLModel_28.obj
 0001:0006d3b0       ?setChartInstancePtr@c1_MWSwishLayer_c1_Yolov9t0_ex_DLModel_280173@@QEAAXPEAUSFc1_ex_DLModel_28InstanceStruct@@@Z 000000018006e3b0 f   c1_ex_DLModel_28.obj
 0001:0006d3e0       ??0c1_MWSwishLayer_c1_Yolov9t0_ex_DLModel_280174@@QEAA@XZ 000000018006e3e0 f   c1_ex_DLModel_28.obj
 0001:0006d420       ?c1_createCustomLayer@c1_MWSwishLayer_c1_Yolov9t0_ex_DLModel_280174@@QEAAXPEAVMWTargetNetworkImpl@MWCudnnTarget@@PEAVMWTensorBase@@PEBD22QEAPEBD32H@Z 000000018006e420 f   c1_ex_DLModel_28.obj
 0001:0006d490       ?propagateSize@c1_MWSwishLayer_c1_Yolov9t0_ex_DLModel_280174@@UEAAXXZ 000000018006e490 f   c1_ex_DLModel_28.obj
 0001:0006d540       ?cleanupLayer@c1_MWSwishLayer_c1_Yolov9t0_ex_DLModel_280174@@UEAAXXZ 000000018006e540 f   c1_ex_DLModel_28.obj
 0001:0006d550       ?predict@c1_MWSwishLayer_c1_Yolov9t0_ex_DLModel_280174@@UEAAXXZ 000000018006e550 f   c1_ex_DLModel_28.obj
 0001:0006d5c0       ?setChartInstancePtr@c1_MWSwishLayer_c1_Yolov9t0_ex_DLModel_280174@@QEAAXPEAUSFc1_ex_DLModel_28InstanceStruct@@@Z 000000018006e5c0 f   c1_ex_DLModel_28.obj
 0001:0006d5f0       ??0c1_MWSwishLayer_c1_Yolov9t0_ex_DLModel_280175@@QEAA@XZ 000000018006e5f0 f   c1_ex_DLModel_28.obj
 0001:0006d630       ?c1_createCustomLayer@c1_MWSwishLayer_c1_Yolov9t0_ex_DLModel_280175@@QEAAXPEAVMWTargetNetworkImpl@MWCudnnTarget@@PEAVMWTensorBase@@PEBD22QEAPEBD32H@Z 000000018006e630 f   c1_ex_DLModel_28.obj
 0001:0006d6a0       ?propagateSize@c1_MWSwishLayer_c1_Yolov9t0_ex_DLModel_280175@@UEAAXXZ 000000018006e6a0 f   c1_ex_DLModel_28.obj
 0001:0006d750       ?cleanupLayer@c1_MWSwishLayer_c1_Yolov9t0_ex_DLModel_280175@@UEAAXXZ 000000018006e750 f   c1_ex_DLModel_28.obj
 0001:0006d760       ?predict@c1_MWSwishLayer_c1_Yolov9t0_ex_DLModel_280175@@UEAAXXZ 000000018006e760 f   c1_ex_DLModel_28.obj
 0001:0006d7d0       ?setChartInstancePtr@c1_MWSwishLayer_c1_Yolov9t0_ex_DLModel_280175@@QEAAXPEAUSFc1_ex_DLModel_28InstanceStruct@@@Z 000000018006e7d0 f   c1_ex_DLModel_28.obj
 0001:0006d800       ??0c1_MWSwishLayer_c1_Yolov9t0_ex_DLModel_280145@@QEAA@XZ 000000018006e800 f   c1_ex_DLModel_28.obj
 0001:0006d840       ?c1_createCustomLayer@c1_MWSwishLayer_c1_Yolov9t0_ex_DLModel_280145@@QEAAXPEAVMWTargetNetworkImpl@MWCudnnTarget@@PEAVMWTensorBase@@PEBD22QEAPEBD32H@Z 000000018006e840 f   c1_ex_DLModel_28.obj
 0001:0006d8b0       ?propagateSize@c1_MWSwishLayer_c1_Yolov9t0_ex_DLModel_280145@@UEAAXXZ 000000018006e8b0 f   c1_ex_DLModel_28.obj
 0001:0006d960       ?cleanupLayer@c1_MWSwishLayer_c1_Yolov9t0_ex_DLModel_280145@@UEAAXXZ 000000018006e960 f   c1_ex_DLModel_28.obj
 0001:0006d970       ?predict@c1_MWSwishLayer_c1_Yolov9t0_ex_DLModel_280145@@UEAAXXZ 000000018006e970 f   c1_ex_DLModel_28.obj
 0001:0006d9e0       ?setChartInstancePtr@c1_MWSwishLayer_c1_Yolov9t0_ex_DLModel_280145@@QEAAXPEAUSFc1_ex_DLModel_28InstanceStruct@@@Z 000000018006e9e0 f   c1_ex_DLModel_28.obj
 0001:0006da10       ??0c1_MWSwishLayer_c1_Yolov9t0_ex_DLModel_280146@@QEAA@XZ 000000018006ea10 f   c1_ex_DLModel_28.obj
 0001:0006da50       ?c1_createCustomLayer@c1_MWSwishLayer_c1_Yolov9t0_ex_DLModel_280146@@QEAAXPEAVMWTargetNetworkImpl@MWCudnnTarget@@PEAVMWTensorBase@@PEBD22QEAPEBD32H@Z 000000018006ea50 f   c1_ex_DLModel_28.obj
 0001:0006dac0       ?propagateSize@c1_MWSwishLayer_c1_Yolov9t0_ex_DLModel_280146@@UEAAXXZ 000000018006eac0 f   c1_ex_DLModel_28.obj
 0001:0006db70       ?cleanupLayer@c1_MWSwishLayer_c1_Yolov9t0_ex_DLModel_280146@@UEAAXXZ 000000018006eb70 f   c1_ex_DLModel_28.obj
 0001:0006db80       ?predict@c1_MWSwishLayer_c1_Yolov9t0_ex_DLModel_280146@@UEAAXXZ 000000018006eb80 f   c1_ex_DLModel_28.obj
 0001:0006dbf0       ?setChartInstancePtr@c1_MWSwishLayer_c1_Yolov9t0_ex_DLModel_280146@@QEAAXPEAUSFc1_ex_DLModel_28InstanceStruct@@@Z 000000018006ebf0 f   c1_ex_DLModel_28.obj
 0001:0006dc20       ??0c1_MWCustomSliceLayer_c1_Yolov9t0_ex_DLModel_2808@@QEAA@XZ 000000018006ec20 f   c1_ex_DLModel_28.obj
 0001:0006dc60       ?c1_createCustomLayer@c1_MWCustomSliceLayer_c1_Yolov9t0_ex_DLModel_2808@@QEAAXPEAVMWTargetNetworkImpl@MWCudnnTarget@@PEAVMWTensorBase@@PEBDQEAPEBD322HH@Z 000000018006ec60 f   c1_ex_DLModel_28.obj
 0001:0006dce0       ?propagateSize@c1_MWCustomSliceLayer_c1_Yolov9t0_ex_DLModel_2808@@UEAAXXZ 000000018006ece0 f   c1_ex_DLModel_28.obj
 0001:0006dee0       ?cleanupLayer@c1_MWCustomSliceLayer_c1_Yolov9t0_ex_DLModel_2808@@UEAAXXZ 000000018006eee0 f   c1_ex_DLModel_28.obj
 0001:0006def0       ?predict@c1_MWCustomSliceLayer_c1_Yolov9t0_ex_DLModel_2808@@UEAAXXZ 000000018006eef0 f   c1_ex_DLModel_28.obj
 0001:0006dfd0       ?setChartInstancePtr@c1_MWCustomSliceLayer_c1_Yolov9t0_ex_DLModel_2808@@QEAAXPEAUSFc1_ex_DLModel_28InstanceStruct@@@Z 000000018006efd0 f   c1_ex_DLModel_28.obj
 0001:0006e000       ??0c1_MWSwishLayer_c1_Yolov9t0_ex_DLModel_280147@@QEAA@XZ 000000018006f000 f   c1_ex_DLModel_28.obj
 0001:0006e040       ?c1_createCustomLayer@c1_MWSwishLayer_c1_Yolov9t0_ex_DLModel_280147@@QEAAXPEAVMWTargetNetworkImpl@MWCudnnTarget@@PEAVMWTensorBase@@PEBD22QEAPEBD32H@Z 000000018006f040 f   c1_ex_DLModel_28.obj
 0001:0006e0b0       ?propagateSize@c1_MWSwishLayer_c1_Yolov9t0_ex_DLModel_280147@@UEAAXXZ 000000018006f0b0 f   c1_ex_DLModel_28.obj
 0001:0006e160       ?cleanupLayer@c1_MWSwishLayer_c1_Yolov9t0_ex_DLModel_280147@@UEAAXXZ 000000018006f160 f   c1_ex_DLModel_28.obj
 0001:0006e170       ?predict@c1_MWSwishLayer_c1_Yolov9t0_ex_DLModel_280147@@UEAAXXZ 000000018006f170 f   c1_ex_DLModel_28.obj
 0001:0006e1e0       ?setChartInstancePtr@c1_MWSwishLayer_c1_Yolov9t0_ex_DLModel_280147@@QEAAXPEAUSFc1_ex_DLModel_28InstanceStruct@@@Z 000000018006f1e0 f   c1_ex_DLModel_28.obj
 0001:0006e210       ??0c1_MWSwishLayer_c1_Yolov9t0_ex_DLModel_280148@@QEAA@XZ 000000018006f210 f   c1_ex_DLModel_28.obj
 0001:0006e250       ?c1_createCustomLayer@c1_MWSwishLayer_c1_Yolov9t0_ex_DLModel_280148@@QEAAXPEAVMWTargetNetworkImpl@MWCudnnTarget@@PEAVMWTensorBase@@PEBD22QEAPEBD32H@Z 000000018006f250 f   c1_ex_DLModel_28.obj
 0001:0006e2c0       ?propagateSize@c1_MWSwishLayer_c1_Yolov9t0_ex_DLModel_280148@@UEAAXXZ 000000018006f2c0 f   c1_ex_DLModel_28.obj
 0001:0006e370       ?cleanupLayer@c1_MWSwishLayer_c1_Yolov9t0_ex_DLModel_280148@@UEAAXXZ 000000018006f370 f   c1_ex_DLModel_28.obj
 0001:0006e380       ?predict@c1_MWSwishLayer_c1_Yolov9t0_ex_DLModel_280148@@UEAAXXZ 000000018006f380 f   c1_ex_DLModel_28.obj
 0001:0006e3f0       ?setChartInstancePtr@c1_MWSwishLayer_c1_Yolov9t0_ex_DLModel_280148@@QEAAXPEAUSFc1_ex_DLModel_28InstanceStruct@@@Z 000000018006f3f0 f   c1_ex_DLModel_28.obj
 0001:0006e420       ??0c1_MWSwishLayer_c1_Yolov9t0_ex_DLModel_280149@@QEAA@XZ 000000018006f420 f   c1_ex_DLModel_28.obj
 0001:0006e460       ?c1_createCustomLayer@c1_MWSwishLayer_c1_Yolov9t0_ex_DLModel_280149@@QEAAXPEAVMWTargetNetworkImpl@MWCudnnTarget@@PEAVMWTensorBase@@PEBD22QEAPEBD32H@Z 000000018006f460 f   c1_ex_DLModel_28.obj
 0001:0006e4d0       ?propagateSize@c1_MWSwishLayer_c1_Yolov9t0_ex_DLModel_280149@@UEAAXXZ 000000018006f4d0 f   c1_ex_DLModel_28.obj
 0001:0006e580       ?cleanupLayer@c1_MWSwishLayer_c1_Yolov9t0_ex_DLModel_280149@@UEAAXXZ 000000018006f580 f   c1_ex_DLModel_28.obj
 0001:0006e590       ?predict@c1_MWSwishLayer_c1_Yolov9t0_ex_DLModel_280149@@UEAAXXZ 000000018006f590 f   c1_ex_DLModel_28.obj
 0001:0006e600       ?setChartInstancePtr@c1_MWSwishLayer_c1_Yolov9t0_ex_DLModel_280149@@QEAAXPEAUSFc1_ex_DLModel_28InstanceStruct@@@Z 000000018006f600 f   c1_ex_DLModel_28.obj
 0001:0006e630       ??0c1_MWSwishLayer_c1_Yolov9t0_ex_DLModel_280150@@QEAA@XZ 000000018006f630 f   c1_ex_DLModel_28.obj
 0001:0006e670       ?c1_createCustomLayer@c1_MWSwishLayer_c1_Yolov9t0_ex_DLModel_280150@@QEAAXPEAVMWTargetNetworkImpl@MWCudnnTarget@@PEAVMWTensorBase@@PEBD22QEAPEBD32H@Z 000000018006f670 f   c1_ex_DLModel_28.obj
 0001:0006e6e0       ?propagateSize@c1_MWSwishLayer_c1_Yolov9t0_ex_DLModel_280150@@UEAAXXZ 000000018006f6e0 f   c1_ex_DLModel_28.obj
 0001:0006e790       ?cleanupLayer@c1_MWSwishLayer_c1_Yolov9t0_ex_DLModel_280150@@UEAAXXZ 000000018006f790 f   c1_ex_DLModel_28.obj
 0001:0006e7a0       ?predict@c1_MWSwishLayer_c1_Yolov9t0_ex_DLModel_280150@@UEAAXXZ 000000018006f7a0 f   c1_ex_DLModel_28.obj
 0001:0006e810       ?setChartInstancePtr@c1_MWSwishLayer_c1_Yolov9t0_ex_DLModel_280150@@QEAAXPEAUSFc1_ex_DLModel_28InstanceStruct@@@Z 000000018006f810 f   c1_ex_DLModel_28.obj
 0001:0006e840       ??0c1_MWSwishLayer_c1_Yolov9t0_ex_DLModel_280151@@QEAA@XZ 000000018006f840 f   c1_ex_DLModel_28.obj
 0001:0006e880       ?c1_createCustomLayer@c1_MWSwishLayer_c1_Yolov9t0_ex_DLModel_280151@@QEAAXPEAVMWTargetNetworkImpl@MWCudnnTarget@@PEAVMWTensorBase@@PEBD22QEAPEBD32H@Z 000000018006f880 f   c1_ex_DLModel_28.obj
 0001:0006e8f0       ?propagateSize@c1_MWSwishLayer_c1_Yolov9t0_ex_DLModel_280151@@UEAAXXZ 000000018006f8f0 f   c1_ex_DLModel_28.obj
 0001:0006e9a0       ?cleanupLayer@c1_MWSwishLayer_c1_Yolov9t0_ex_DLModel_280151@@UEAAXXZ 000000018006f9a0 f   c1_ex_DLModel_28.obj
 0001:0006e9b0       ?predict@c1_MWSwishLayer_c1_Yolov9t0_ex_DLModel_280151@@UEAAXXZ 000000018006f9b0 f   c1_ex_DLModel_28.obj
 0001:0006ea20       ?setChartInstancePtr@c1_MWSwishLayer_c1_Yolov9t0_ex_DLModel_280151@@QEAAXPEAUSFc1_ex_DLModel_28InstanceStruct@@@Z 000000018006fa20 f   c1_ex_DLModel_28.obj
 0001:0006ea50       ??0c1_MWSwishLayer_c1_Yolov9t0_ex_DLModel_280152@@QEAA@XZ 000000018006fa50 f   c1_ex_DLModel_28.obj
 0001:0006ea90       ?c1_createCustomLayer@c1_MWSwishLayer_c1_Yolov9t0_ex_DLModel_280152@@QEAAXPEAVMWTargetNetworkImpl@MWCudnnTarget@@PEAVMWTensorBase@@PEBD22QEAPEBD32H@Z 000000018006fa90 f   c1_ex_DLModel_28.obj
 0001:0006eb00       ?propagateSize@c1_MWSwishLayer_c1_Yolov9t0_ex_DLModel_280152@@UEAAXXZ 000000018006fb00 f   c1_ex_DLModel_28.obj
 0001:0006ebb0       ?cleanupLayer@c1_MWSwishLayer_c1_Yolov9t0_ex_DLModel_280152@@UEAAXXZ 000000018006fbb0 f   c1_ex_DLModel_28.obj
 0001:0006ebc0       ?predict@c1_MWSwishLayer_c1_Yolov9t0_ex_DLModel_280152@@UEAAXXZ 000000018006fbc0 f   c1_ex_DLModel_28.obj
 0001:0006ec30       ?setChartInstancePtr@c1_MWSwishLayer_c1_Yolov9t0_ex_DLModel_280152@@QEAAXPEAUSFc1_ex_DLModel_28InstanceStruct@@@Z 000000018006fc30 f   c1_ex_DLModel_28.obj
 0001:0006ec60       ??0c1_MWSwishLayer_c1_Yolov9t0_ex_DLModel_280153@@QEAA@XZ 000000018006fc60 f   c1_ex_DLModel_28.obj
 0001:0006eca0       ?c1_createCustomLayer@c1_MWSwishLayer_c1_Yolov9t0_ex_DLModel_280153@@QEAAXPEAVMWTargetNetworkImpl@MWCudnnTarget@@PEAVMWTensorBase@@PEBD22QEAPEBD32H@Z 000000018006fca0 f   c1_ex_DLModel_28.obj
 0001:0006ed10       ?propagateSize@c1_MWSwishLayer_c1_Yolov9t0_ex_DLModel_280153@@UEAAXXZ 000000018006fd10 f   c1_ex_DLModel_28.obj
 0001:0006edc0       ?cleanupLayer@c1_MWSwishLayer_c1_Yolov9t0_ex_DLModel_280153@@UEAAXXZ 000000018006fdc0 f   c1_ex_DLModel_28.obj
 0001:0006edd0       ?predict@c1_MWSwishLayer_c1_Yolov9t0_ex_DLModel_280153@@UEAAXXZ 000000018006fdd0 f   c1_ex_DLModel_28.obj
 0001:0006ee40       ?setChartInstancePtr@c1_MWSwishLayer_c1_Yolov9t0_ex_DLModel_280153@@QEAAXPEAUSFc1_ex_DLModel_28InstanceStruct@@@Z 000000018006fe40 f   c1_ex_DLModel_28.obj
 0001:0006ee70       ??0c1_MWSwishLayer_c1_Yolov9t0_ex_DLModel_280154@@QEAA@XZ 000000018006fe70 f   c1_ex_DLModel_28.obj
 0001:0006eeb0       ?c1_createCustomLayer@c1_MWSwishLayer_c1_Yolov9t0_ex_DLModel_280154@@QEAAXPEAVMWTargetNetworkImpl@MWCudnnTarget@@PEAVMWTensorBase@@PEBD22QEAPEBD32H@Z 000000018006feb0 f   c1_ex_DLModel_28.obj
 0001:0006ef20       ?propagateSize@c1_MWSwishLayer_c1_Yolov9t0_ex_DLModel_280154@@UEAAXXZ 000000018006ff20 f   c1_ex_DLModel_28.obj
 0001:0006efd0       ?cleanupLayer@c1_MWSwishLayer_c1_Yolov9t0_ex_DLModel_280154@@UEAAXXZ 000000018006ffd0 f   c1_ex_DLModel_28.obj
 0001:0006efe0       ?predict@c1_MWSwishLayer_c1_Yolov9t0_ex_DLModel_280154@@UEAAXXZ 000000018006ffe0 f   c1_ex_DLModel_28.obj
 0001:0006f050       ?setChartInstancePtr@c1_MWSwishLayer_c1_Yolov9t0_ex_DLModel_280154@@QEAAXPEAUSFc1_ex_DLModel_28InstanceStruct@@@Z 0000000180070050 f   c1_ex_DLModel_28.obj
 0001:0006f080       ??0c1_MWSwishLayer_c1_Yolov9t0_ex_DLModel_280155@@QEAA@XZ 0000000180070080 f   c1_ex_DLModel_28.obj
 0001:0006f0c0       ?c1_createCustomLayer@c1_MWSwishLayer_c1_Yolov9t0_ex_DLModel_280155@@QEAAXPEAVMWTargetNetworkImpl@MWCudnnTarget@@PEAVMWTensorBase@@PEBD22QEAPEBD32H@Z 00000001800700c0 f   c1_ex_DLModel_28.obj
 0001:0006f130       ?propagateSize@c1_MWSwishLayer_c1_Yolov9t0_ex_DLModel_280155@@UEAAXXZ 0000000180070130 f   c1_ex_DLModel_28.obj
 0001:0006f1e0       ?cleanupLayer@c1_MWSwishLayer_c1_Yolov9t0_ex_DLModel_280155@@UEAAXXZ 00000001800701e0 f   c1_ex_DLModel_28.obj
 0001:0006f1f0       ?predict@c1_MWSwishLayer_c1_Yolov9t0_ex_DLModel_280155@@UEAAXXZ 00000001800701f0 f   c1_ex_DLModel_28.obj
 0001:0006f260       ?setChartInstancePtr@c1_MWSwishLayer_c1_Yolov9t0_ex_DLModel_280155@@QEAAXPEAUSFc1_ex_DLModel_28InstanceStruct@@@Z 0000000180070260 f   c1_ex_DLModel_28.obj
 0001:0006f290       ??0c1_MWSwishLayer_c1_Yolov9t0_ex_DLModel_280156@@QEAA@XZ 0000000180070290 f   c1_ex_DLModel_28.obj
 0001:0006f2d0       ?c1_createCustomLayer@c1_MWSwishLayer_c1_Yolov9t0_ex_DLModel_280156@@QEAAXPEAVMWTargetNetworkImpl@MWCudnnTarget@@PEAVMWTensorBase@@PEBD22QEAPEBD32H@Z 00000001800702d0 f   c1_ex_DLModel_28.obj
 0001:0006f340       ?propagateSize@c1_MWSwishLayer_c1_Yolov9t0_ex_DLModel_280156@@UEAAXXZ 0000000180070340 f   c1_ex_DLModel_28.obj
 0001:0006f3f0       ?cleanupLayer@c1_MWSwishLayer_c1_Yolov9t0_ex_DLModel_280156@@UEAAXXZ 00000001800703f0 f   c1_ex_DLModel_28.obj
 0001:0006f400       ?predict@c1_MWSwishLayer_c1_Yolov9t0_ex_DLModel_280156@@UEAAXXZ 0000000180070400 f   c1_ex_DLModel_28.obj
 0001:0006f470       ?setChartInstancePtr@c1_MWSwishLayer_c1_Yolov9t0_ex_DLModel_280156@@QEAAXPEAUSFc1_ex_DLModel_28InstanceStruct@@@Z 0000000180070470 f   c1_ex_DLModel_28.obj
 0001:0006f4a0       ??0c1_MWSwishLayer_c1_Yolov9t0_ex_DLModel_280157@@QEAA@XZ 00000001800704a0 f   c1_ex_DLModel_28.obj
 0001:0006f4e0       ?c1_createCustomLayer@c1_MWSwishLayer_c1_Yolov9t0_ex_DLModel_280157@@QEAAXPEAVMWTargetNetworkImpl@MWCudnnTarget@@PEAVMWTensorBase@@PEBD22QEAPEBD32H@Z 00000001800704e0 f   c1_ex_DLModel_28.obj
 0001:0006f550       ?propagateSize@c1_MWSwishLayer_c1_Yolov9t0_ex_DLModel_280157@@UEAAXXZ 0000000180070550 f   c1_ex_DLModel_28.obj
 0001:0006f600       ?cleanupLayer@c1_MWSwishLayer_c1_Yolov9t0_ex_DLModel_280157@@UEAAXXZ 0000000180070600 f   c1_ex_DLModel_28.obj
 0001:0006f610       ?predict@c1_MWSwishLayer_c1_Yolov9t0_ex_DLModel_280157@@UEAAXXZ 0000000180070610 f   c1_ex_DLModel_28.obj
 0001:0006f680       ?setChartInstancePtr@c1_MWSwishLayer_c1_Yolov9t0_ex_DLModel_280157@@QEAAXPEAUSFc1_ex_DLModel_28InstanceStruct@@@Z 0000000180070680 f   c1_ex_DLModel_28.obj
 0001:0006f6b0       ??0c1_MWSwishLayer_c1_Yolov9t0_ex_DLModel_280158@@QEAA@XZ 00000001800706b0 f   c1_ex_DLModel_28.obj
 0001:0006f6f0       ?c1_createCustomLayer@c1_MWSwishLayer_c1_Yolov9t0_ex_DLModel_280158@@QEAAXPEAVMWTargetNetworkImpl@MWCudnnTarget@@PEAVMWTensorBase@@PEBD22QEAPEBD32H@Z 00000001800706f0 f   c1_ex_DLModel_28.obj
 0001:0006f760       ?propagateSize@c1_MWSwishLayer_c1_Yolov9t0_ex_DLModel_280158@@UEAAXXZ 0000000180070760 f   c1_ex_DLModel_28.obj
 0001:0006f810       ?cleanupLayer@c1_MWSwishLayer_c1_Yolov9t0_ex_DLModel_280158@@UEAAXXZ 0000000180070810 f   c1_ex_DLModel_28.obj
 0001:0006f820       ?predict@c1_MWSwishLayer_c1_Yolov9t0_ex_DLModel_280158@@UEAAXXZ 0000000180070820 f   c1_ex_DLModel_28.obj
 0001:0006f890       ?setChartInstancePtr@c1_MWSwishLayer_c1_Yolov9t0_ex_DLModel_280158@@QEAAXPEAUSFc1_ex_DLModel_28InstanceStruct@@@Z 0000000180070890 f   c1_ex_DLModel_28.obj
 0001:0006f8c0       ??0c1_MWSwishLayer_c1_Yolov9t0_ex_DLModel_280159@@QEAA@XZ 00000001800708c0 f   c1_ex_DLModel_28.obj
 0001:0006f900       ?c1_createCustomLayer@c1_MWSwishLayer_c1_Yolov9t0_ex_DLModel_280159@@QEAAXPEAVMWTargetNetworkImpl@MWCudnnTarget@@PEAVMWTensorBase@@PEBD22QEAPEBD32H@Z 0000000180070900 f   c1_ex_DLModel_28.obj
 0001:0006f970       ?propagateSize@c1_MWSwishLayer_c1_Yolov9t0_ex_DLModel_280159@@UEAAXXZ 0000000180070970 f   c1_ex_DLModel_28.obj
 0001:0006fa20       ?cleanupLayer@c1_MWSwishLayer_c1_Yolov9t0_ex_DLModel_280159@@UEAAXXZ 0000000180070a20 f   c1_ex_DLModel_28.obj
 0001:0006fa30       ?predict@c1_MWSwishLayer_c1_Yolov9t0_ex_DLModel_280159@@UEAAXXZ 0000000180070a30 f   c1_ex_DLModel_28.obj
 0001:0006faa0       ?setChartInstancePtr@c1_MWSwishLayer_c1_Yolov9t0_ex_DLModel_280159@@QEAAXPEAUSFc1_ex_DLModel_28InstanceStruct@@@Z 0000000180070aa0 f   c1_ex_DLModel_28.obj
 0001:0006fad0       ??0c1_MWSwishLayer_c1_Yolov9t0_ex_DLModel_280160@@QEAA@XZ 0000000180070ad0 f   c1_ex_DLModel_28.obj
 0001:0006fb10       ?c1_createCustomLayer@c1_MWSwishLayer_c1_Yolov9t0_ex_DLModel_280160@@QEAAXPEAVMWTargetNetworkImpl@MWCudnnTarget@@PEAVMWTensorBase@@PEBD22QEAPEBD32H@Z 0000000180070b10 f   c1_ex_DLModel_28.obj
 0001:0006fb80       ?propagateSize@c1_MWSwishLayer_c1_Yolov9t0_ex_DLModel_280160@@UEAAXXZ 0000000180070b80 f   c1_ex_DLModel_28.obj
 0001:0006fc30       ?cleanupLayer@c1_MWSwishLayer_c1_Yolov9t0_ex_DLModel_280160@@UEAAXXZ 0000000180070c30 f   c1_ex_DLModel_28.obj
 0001:0006fc40       ?predict@c1_MWSwishLayer_c1_Yolov9t0_ex_DLModel_280160@@UEAAXXZ 0000000180070c40 f   c1_ex_DLModel_28.obj
 0001:0006fcb0       ?setChartInstancePtr@c1_MWSwishLayer_c1_Yolov9t0_ex_DLModel_280160@@QEAAXPEAUSFc1_ex_DLModel_28InstanceStruct@@@Z 0000000180070cb0 f   c1_ex_DLModel_28.obj
 0001:0006fce0       ??0c1_MWSwishLayer_c1_Yolov9t0_ex_DLModel_280161@@QEAA@XZ 0000000180070ce0 f   c1_ex_DLModel_28.obj
 0001:0006fd20       ?c1_createCustomLayer@c1_MWSwishLayer_c1_Yolov9t0_ex_DLModel_280161@@QEAAXPEAVMWTargetNetworkImpl@MWCudnnTarget@@PEAVMWTensorBase@@PEBD22QEAPEBD32H@Z 0000000180070d20 f   c1_ex_DLModel_28.obj
 0001:0006fd90       ?propagateSize@c1_MWSwishLayer_c1_Yolov9t0_ex_DLModel_280161@@UEAAXXZ 0000000180070d90 f   c1_ex_DLModel_28.obj
 0001:0006fe40       ?cleanupLayer@c1_MWSwishLayer_c1_Yolov9t0_ex_DLModel_280161@@UEAAXXZ 0000000180070e40 f   c1_ex_DLModel_28.obj
 0001:0006fe50       ?predict@c1_MWSwishLayer_c1_Yolov9t0_ex_DLModel_280161@@UEAAXXZ 0000000180070e50 f   c1_ex_DLModel_28.obj
 0001:0006fec0       ?setChartInstancePtr@c1_MWSwishLayer_c1_Yolov9t0_ex_DLModel_280161@@QEAAXPEAUSFc1_ex_DLModel_28InstanceStruct@@@Z 0000000180070ec0 f   c1_ex_DLModel_28.obj
 0001:0006fef0       ??0c1_MWSwishLayer_c1_Yolov9t0_ex_DLModel_280162@@QEAA@XZ 0000000180070ef0 f   c1_ex_DLModel_28.obj
 0001:0006ff30       ?c1_createCustomLayer@c1_MWSwishLayer_c1_Yolov9t0_ex_DLModel_280162@@QEAAXPEAVMWTargetNetworkImpl@MWCudnnTarget@@PEAVMWTensorBase@@PEBD22QEAPEBD32H@Z 0000000180070f30 f   c1_ex_DLModel_28.obj
 0001:0006ffa0       ?propagateSize@c1_MWSwishLayer_c1_Yolov9t0_ex_DLModel_280162@@UEAAXXZ 0000000180070fa0 f   c1_ex_DLModel_28.obj
 0001:00070050       ?cleanupLayer@c1_MWSwishLayer_c1_Yolov9t0_ex_DLModel_280162@@UEAAXXZ 0000000180071050 f   c1_ex_DLModel_28.obj
 0001:00070060       ?predict@c1_MWSwishLayer_c1_Yolov9t0_ex_DLModel_280162@@UEAAXXZ 0000000180071060 f   c1_ex_DLModel_28.obj
 0001:000700d0       ?setChartInstancePtr@c1_MWSwishLayer_c1_Yolov9t0_ex_DLModel_280162@@QEAAXPEAUSFc1_ex_DLModel_28InstanceStruct@@@Z 00000001800710d0 f   c1_ex_DLModel_28.obj
 0001:00070100       ??0c1_MWSwishLayer_c1_Yolov9t0_ex_DLModel_280163@@QEAA@XZ 0000000180071100 f   c1_ex_DLModel_28.obj
 0001:00070140       ?c1_createCustomLayer@c1_MWSwishLayer_c1_Yolov9t0_ex_DLModel_280163@@QEAAXPEAVMWTargetNetworkImpl@MWCudnnTarget@@PEAVMWTensorBase@@PEBD22QEAPEBD32H@Z 0000000180071140 f   c1_ex_DLModel_28.obj
 0001:000701b0       ?propagateSize@c1_MWSwishLayer_c1_Yolov9t0_ex_DLModel_280163@@UEAAXXZ 00000001800711b0 f   c1_ex_DLModel_28.obj
 0001:00070260       ?cleanupLayer@c1_MWSwishLayer_c1_Yolov9t0_ex_DLModel_280163@@UEAAXXZ 0000000180071260 f   c1_ex_DLModel_28.obj
 0001:00070270       ?predict@c1_MWSwishLayer_c1_Yolov9t0_ex_DLModel_280163@@UEAAXXZ 0000000180071270 f   c1_ex_DLModel_28.obj
 0001:000702e0       ?setChartInstancePtr@c1_MWSwishLayer_c1_Yolov9t0_ex_DLModel_280163@@QEAAXPEAUSFc1_ex_DLModel_28InstanceStruct@@@Z 00000001800712e0 f   c1_ex_DLModel_28.obj
 0001:00070310       ??0c1_MWSwishLayer_c1_Yolov9t0_ex_DLModel_280164@@QEAA@XZ 0000000180071310 f   c1_ex_DLModel_28.obj
 0001:00070350       ?c1_createCustomLayer@c1_MWSwishLayer_c1_Yolov9t0_ex_DLModel_280164@@QEAAXPEAVMWTargetNetworkImpl@MWCudnnTarget@@PEAVMWTensorBase@@PEBD22QEAPEBD32H@Z 0000000180071350 f   c1_ex_DLModel_28.obj
 0001:000703c0       ?propagateSize@c1_MWSwishLayer_c1_Yolov9t0_ex_DLModel_280164@@UEAAXXZ 00000001800713c0 f   c1_ex_DLModel_28.obj
 0001:00070470       ?cleanupLayer@c1_MWSwishLayer_c1_Yolov9t0_ex_DLModel_280164@@UEAAXXZ 0000000180071470 f   c1_ex_DLModel_28.obj
 0001:00070480       ?predict@c1_MWSwishLayer_c1_Yolov9t0_ex_DLModel_280164@@UEAAXXZ 0000000180071480 f   c1_ex_DLModel_28.obj
 0001:000704f0       ?setChartInstancePtr@c1_MWSwishLayer_c1_Yolov9t0_ex_DLModel_280164@@QEAAXPEAUSFc1_ex_DLModel_28InstanceStruct@@@Z 00000001800714f0 f   c1_ex_DLModel_28.obj
 0001:00070520       ??0c1_MWSwishLayer_c1_Yolov9t0_ex_DLModel_280165@@QEAA@XZ 0000000180071520 f   c1_ex_DLModel_28.obj
 0001:00070560       ?c1_createCustomLayer@c1_MWSwishLayer_c1_Yolov9t0_ex_DLModel_280165@@QEAAXPEAVMWTargetNetworkImpl@MWCudnnTarget@@PEAVMWTensorBase@@PEBD22QEAPEBD32H@Z 0000000180071560 f   c1_ex_DLModel_28.obj
 0001:000705d0       ?propagateSize@c1_MWSwishLayer_c1_Yolov9t0_ex_DLModel_280165@@UEAAXXZ 00000001800715d0 f   c1_ex_DLModel_28.obj
 0001:00070680       ?cleanupLayer@c1_MWSwishLayer_c1_Yolov9t0_ex_DLModel_280165@@UEAAXXZ 0000000180071680 f   c1_ex_DLModel_28.obj
 0001:00070690       ?predict@c1_MWSwishLayer_c1_Yolov9t0_ex_DLModel_280165@@UEAAXXZ 0000000180071690 f   c1_ex_DLModel_28.obj
 0001:00070700       ?setChartInstancePtr@c1_MWSwishLayer_c1_Yolov9t0_ex_DLModel_280165@@QEAAXPEAUSFc1_ex_DLModel_28InstanceStruct@@@Z 0000000180071700 f   c1_ex_DLModel_28.obj
 0001:00070730       ??0c1_MWSwishLayer_c1_Yolov9t0_ex_DLModel_280166@@QEAA@XZ 0000000180071730 f   c1_ex_DLModel_28.obj
 0001:00070770       ?c1_createCustomLayer@c1_MWSwishLayer_c1_Yolov9t0_ex_DLModel_280166@@QEAAXPEAVMWTargetNetworkImpl@MWCudnnTarget@@PEAVMWTensorBase@@PEBD22QEAPEBD32H@Z 0000000180071770 f   c1_ex_DLModel_28.obj
 0001:000707e0       ?propagateSize@c1_MWSwishLayer_c1_Yolov9t0_ex_DLModel_280166@@UEAAXXZ 00000001800717e0 f   c1_ex_DLModel_28.obj
 0001:00070890       ?cleanupLayer@c1_MWSwishLayer_c1_Yolov9t0_ex_DLModel_280166@@UEAAXXZ 0000000180071890 f   c1_ex_DLModel_28.obj
 0001:000708a0       ?predict@c1_MWSwishLayer_c1_Yolov9t0_ex_DLModel_280166@@UEAAXXZ 00000001800718a0 f   c1_ex_DLModel_28.obj
 0001:00070910       ?setChartInstancePtr@c1_MWSwishLayer_c1_Yolov9t0_ex_DLModel_280166@@QEAAXPEAUSFc1_ex_DLModel_28InstanceStruct@@@Z 0000000180071910 f   c1_ex_DLModel_28.obj
 0001:00070940       ??0c1_MWSwishLayer_c1_Yolov9t0_ex_DLModel_280167@@QEAA@XZ 0000000180071940 f   c1_ex_DLModel_28.obj
 0001:00070980       ?c1_createCustomLayer@c1_MWSwishLayer_c1_Yolov9t0_ex_DLModel_280167@@QEAAXPEAVMWTargetNetworkImpl@MWCudnnTarget@@PEAVMWTensorBase@@PEBD22QEAPEBD32H@Z 0000000180071980 f   c1_ex_DLModel_28.obj
 0001:000709f0       ?propagateSize@c1_MWSwishLayer_c1_Yolov9t0_ex_DLModel_280167@@UEAAXXZ 00000001800719f0 f   c1_ex_DLModel_28.obj
 0001:00070aa0       ?cleanupLayer@c1_MWSwishLayer_c1_Yolov9t0_ex_DLModel_280167@@UEAAXXZ 0000000180071aa0 f   c1_ex_DLModel_28.obj
 0001:00070ab0       ?predict@c1_MWSwishLayer_c1_Yolov9t0_ex_DLModel_280167@@UEAAXXZ 0000000180071ab0 f   c1_ex_DLModel_28.obj
 0001:00070b20       ?setChartInstancePtr@c1_MWSwishLayer_c1_Yolov9t0_ex_DLModel_280167@@QEAAXPEAUSFc1_ex_DLModel_28InstanceStruct@@@Z 0000000180071b20 f   c1_ex_DLModel_28.obj
 0001:00070b50       ??0c1_MWSwishLayer_c1_Yolov9t0_ex_DLModel_280176@@QEAA@XZ 0000000180071b50 f   c1_ex_DLModel_28.obj
 0001:00070b90       ?c1_createCustomLayer@c1_MWSwishLayer_c1_Yolov9t0_ex_DLModel_280176@@QEAAXPEAVMWTargetNetworkImpl@MWCudnnTarget@@PEAVMWTensorBase@@PEBD22QEAPEBD32H@Z 0000000180071b90 f   c1_ex_DLModel_28.obj
 0001:00070c00       ?propagateSize@c1_MWSwishLayer_c1_Yolov9t0_ex_DLModel_280176@@UEAAXXZ 0000000180071c00 f   c1_ex_DLModel_28.obj
 0001:00070cb0       ?cleanupLayer@c1_MWSwishLayer_c1_Yolov9t0_ex_DLModel_280176@@UEAAXXZ 0000000180071cb0 f   c1_ex_DLModel_28.obj
 0001:00070cc0       ?predict@c1_MWSwishLayer_c1_Yolov9t0_ex_DLModel_280176@@UEAAXXZ 0000000180071cc0 f   c1_ex_DLModel_28.obj
 0001:00070d30       ?setChartInstancePtr@c1_MWSwishLayer_c1_Yolov9t0_ex_DLModel_280176@@QEAAXPEAUSFc1_ex_DLModel_28InstanceStruct@@@Z 0000000180071d30 f   c1_ex_DLModel_28.obj
 0001:00070d60       ??0c1_MWSwishLayer_c1_Yolov9t0_ex_DLModel_280177@@QEAA@XZ 0000000180071d60 f   c1_ex_DLModel_28.obj
 0001:00070da0       ?c1_createCustomLayer@c1_MWSwishLayer_c1_Yolov9t0_ex_DLModel_280177@@QEAAXPEAVMWTargetNetworkImpl@MWCudnnTarget@@PEAVMWTensorBase@@PEBD22QEAPEBD32H@Z 0000000180071da0 f   c1_ex_DLModel_28.obj
 0001:00070e10       ?propagateSize@c1_MWSwishLayer_c1_Yolov9t0_ex_DLModel_280177@@UEAAXXZ 0000000180071e10 f   c1_ex_DLModel_28.obj
 0001:00070ec0       ?cleanupLayer@c1_MWSwishLayer_c1_Yolov9t0_ex_DLModel_280177@@UEAAXXZ 0000000180071ec0 f   c1_ex_DLModel_28.obj
 0001:00070ed0       ?predict@c1_MWSwishLayer_c1_Yolov9t0_ex_DLModel_280177@@UEAAXXZ 0000000180071ed0 f   c1_ex_DLModel_28.obj
 0001:00070f40       ?setChartInstancePtr@c1_MWSwishLayer_c1_Yolov9t0_ex_DLModel_280177@@QEAAXPEAUSFc1_ex_DLModel_28InstanceStruct@@@Z 0000000180071f40 f   c1_ex_DLModel_28.obj
 0001:00070f70       ??0c1_MWSwishLayer_c1_Yolov9t0_ex_DLModel_280178@@QEAA@XZ 0000000180071f70 f   c1_ex_DLModel_28.obj
 0001:00070fb0       ?c1_createCustomLayer@c1_MWSwishLayer_c1_Yolov9t0_ex_DLModel_280178@@QEAAXPEAVMWTargetNetworkImpl@MWCudnnTarget@@PEAVMWTensorBase@@PEBD22QEAPEBD32H@Z 0000000180071fb0 f   c1_ex_DLModel_28.obj
 0001:00071020       ?propagateSize@c1_MWSwishLayer_c1_Yolov9t0_ex_DLModel_280178@@UEAAXXZ 0000000180072020 f   c1_ex_DLModel_28.obj
 0001:000710d0       ?cleanupLayer@c1_MWSwishLayer_c1_Yolov9t0_ex_DLModel_280178@@UEAAXXZ 00000001800720d0 f   c1_ex_DLModel_28.obj
 0001:000710e0       ?predict@c1_MWSwishLayer_c1_Yolov9t0_ex_DLModel_280178@@UEAAXXZ 00000001800720e0 f   c1_ex_DLModel_28.obj
 0001:00071150       ?setChartInstancePtr@c1_MWSwishLayer_c1_Yolov9t0_ex_DLModel_280178@@QEAAXPEAUSFc1_ex_DLModel_28InstanceStruct@@@Z 0000000180072150 f   c1_ex_DLModel_28.obj
 0001:00071180       ??0c1_MWSwishLayer_c1_Yolov9t0_ex_DLModel_280179@@QEAA@XZ 0000000180072180 f   c1_ex_DLModel_28.obj
 0001:000711c0       ?c1_createCustomLayer@c1_MWSwishLayer_c1_Yolov9t0_ex_DLModel_280179@@QEAAXPEAVMWTargetNetworkImpl@MWCudnnTarget@@PEAVMWTensorBase@@PEBD22QEAPEBD32H@Z 00000001800721c0 f   c1_ex_DLModel_28.obj
 0001:00071230       ?propagateSize@c1_MWSwishLayer_c1_Yolov9t0_ex_DLModel_280179@@UEAAXXZ 0000000180072230 f   c1_ex_DLModel_28.obj
 0001:000712e0       ?cleanupLayer@c1_MWSwishLayer_c1_Yolov9t0_ex_DLModel_280179@@UEAAXXZ 00000001800722e0 f   c1_ex_DLModel_28.obj
 0001:000712f0       ?predict@c1_MWSwishLayer_c1_Yolov9t0_ex_DLModel_280179@@UEAAXXZ 00000001800722f0 f   c1_ex_DLModel_28.obj
 0001:00071360       ?setChartInstancePtr@c1_MWSwishLayer_c1_Yolov9t0_ex_DLModel_280179@@QEAAXPEAUSFc1_ex_DLModel_28InstanceStruct@@@Z 0000000180072360 f   c1_ex_DLModel_28.obj
 0001:00071390       ?sf_c1_ex_DLModel_28_get_eml_resolved_functions_info@@YAPEBUmxArray_tag@@XZ 0000000180072390 f   c1_ex_DLModel_28.obj
 0001:00071490       ?sf_c1_ex_DLModel_28_get_check_sum@@YAXQEAPEAUmxArray_tag@@@Z 0000000180072490 f   c1_ex_DLModel_28.obj
 0001:00071560       ?c1_ex_DLModel_28_method_dispatcher@@YAXPEAUSimStruct_tag@@HPEAX@Z 0000000180072560 f   c1_ex_DLModel_28.obj
 0001:00080bd0       ?sf_c1_ex_DLModel_28_third_party_uses_info@@YAPEAUmxArray_tag@@XZ 0000000180081bd0 f   c1_ex_DLModel_28.obj
 0001:00080c20       ?sf_c1_ex_DLModel_28_jit_fallback_info@@YAPEAUmxArray_tag@@XZ 0000000180081c20 f   c1_ex_DLModel_28.obj
 0001:00080db0       ?sf_c1_ex_DLModel_28_updateBuildInfo_args_info@@YAPEAUmxArray_tag@@XZ 0000000180081db0 f   c1_ex_DLModel_28.obj
 0001:00081020       ?sf_c1_ex_DLModel_28_get_post_codegen_info@@YAPEBDXZ 0000000180082020 f   c1_ex_DLModel_28.obj
 0001:000a1100       ??$?0$$V@?$_Compressed_pair@V?$allocator@D@std@@V?$_String_val@U?$_Simple_types@D@std@@@2@$00@std@@QEAA@U_Zero_then_variadic_args_t@1@@Z 00000001800a2100 f i c1_ex_DLModel_28.obj
 0001:000a1130       ??$?0AEBH$$Z$$V@?$pair@$$CBHH@std@@QEAA@Upiecewise_construct_t@1@V?$tuple@AEBH@1@V?$tuple@$$V@1@@Z 00000001800a2130 f i c1_ex_DLModel_28.obj
 0001:000a11a0       ??$?0AEBH$0A@@?$tuple@AEBH@std@@QEAA@AEBH@Z 00000001800a21a0 f i c1_ex_DLModel_28.obj
 0001:000a11d0       ??$?0AEBH@?$_Tuple_val@AEBH@std@@QEAA@AEBH@Z 00000001800a21d0 f i c1_ex_DLModel_28.obj
 0001:000a1200       ??$?0AEBQEAU?$_Tree_node@U?$pair@$$CBHH@std@@PEAX@std@@_N$0A@@?$pair@PEAU?$_Tree_node@U?$pair@$$CBHH@std@@PEAX@std@@_N@std@@QEAA@AEBQEAU?$_Tree_node@U?$pair@$$CBHH@std@@PEAX@1@$$QEA_N@Z 00000001800a2200 f i c1_ex_DLModel_28.obj
 0001:000a1250       ??$?0AEBUpiecewise_construct_t@std@@V?$tuple@AEBH@1@V?$tuple@$$V@1@@?$_Tree_temp_node@V?$allocator@U?$_Tree_node@U?$pair@$$CBHH@std@@PEAX@std@@@std@@@std@@QEAA@AEAV?$allocator@U?$_Tree_node@U?$pair@$$CBHH@std@@PEAX@std@@@1@PEAU?$_Tree_node@U?$pair@$$CBHH@std@@PEAX@1@AEBUpiecewise_construct_t@1@$$QEAV?$tuple@AEBH@1@$$QEAV?$tuple@$$V@1@@Z 00000001800a2250 f i c1_ex_DLModel_28.obj
 0001:000a1360       ??$?0PEAU?$_Tree_node@U?$pair@$$CBHH@std@@PEAX@std@@_N$0A@@?$pair@PEAU?$_Tree_node@U?$pair@$$CBHH@std@@PEAX@std@@_N@std@@QEAA@$$QEAPEAU?$_Tree_node@U?$pair@$$CBHH@std@@PEAX@1@$$QEA_N@Z 00000001800a2360 f i c1_ex_DLModel_28.obj
 0001:000a13b0       ??$?0QEAHQEAN$$CBUnull_type@thrust@@$$CBU01@$$CBU01@$$CBU01@$$CBU01@$$CBU01@$$CBU01@$$CBU01@@?$cons@PEAHU?$cons@PEANUnull_type@thrust@@@detail@thrust@@@detail@thrust@@QEAA@AEBQEAHAEBQEANAEBUnull_type@2@2222222@Z 00000001800a23b0 f i c1_ex_DLModel_28.obj
 0001:000a1470       ??$?0QEAN@?$cons@PEANUnull_type@thrust@@@detail@thrust@@QEAA@AEBQEANAEBUnull_type@2@11111111@Z 00000001800a2470 f i c1_ex_DLModel_28.obj
 0001:000a14a0       ??$?0U?$specialize_plan@UPtxPlan@?$ParallelForAgent@U?$functor@PEANH@__fill@cuda_cub@thrust@@_J@__parallel_for@cuda_cub@thrust@@Usm30@core@45@@core@cuda_cub@thrust@@@AgentPlan@core@cuda_cub@thrust@@QEAA@U?$specialize_plan@UPtxPlan@?$ParallelForAgent@U?$functor@PEANH@__fill@cuda_cub@thrust@@_J@__parallel_for@cuda_cub@thrust@@Usm30@core@45@@123@PEAX@Z 00000001800a24a0 f i c1_ex_DLModel_28.obj
 0001:000a14f0       ??$?0U?$specialize_plan@UPtxPlan@?$ParallelForAgent@U?$functor@PEANH@__fill@cuda_cub@thrust@@_J@__parallel_for@cuda_cub@thrust@@Usm35@core@45@@core@cuda_cub@thrust@@@AgentPlan@core@cuda_cub@thrust@@QEAA@U?$specialize_plan@UPtxPlan@?$ParallelForAgent@U?$functor@PEANH@__fill@cuda_cub@thrust@@_J@__parallel_for@cuda_cub@thrust@@Usm35@core@45@@123@PEAX@Z 00000001800a24f0 f i c1_ex_DLModel_28.obj
 0001:000a1540       ??$?0U?$specialize_plan@UPtxPlan@?$ParallelForAgent@U?$functor@PEANH@__fill@cuda_cub@thrust@@_J@__parallel_for@cuda_cub@thrust@@Usm52@core@45@@core@cuda_cub@thrust@@@AgentPlan@core@cuda_cub@thrust@@QEAA@U?$specialize_plan@UPtxPlan@?$ParallelForAgent@U?$functor@PEANH@__fill@cuda_cub@thrust@@_J@__parallel_for@cuda_cub@thrust@@Usm52@core@45@@123@PEAX@Z 00000001800a2540 f i c1_ex_DLModel_28.obj
 0001:000a1590       ??$?0U?$specialize_plan@UPtxPlan@?$ParallelForAgent@U?$functor@PEANH@__fill@cuda_cub@thrust@@_J@__parallel_for@cuda_cub@thrust@@Usm60@core@45@@core@cuda_cub@thrust@@@AgentPlan@core@cuda_cub@thrust@@QEAA@U?$specialize_plan@UPtxPlan@?$ParallelForAgent@U?$functor@PEANH@__fill@cuda_cub@thrust@@_J@__parallel_for@cuda_cub@thrust@@Usm60@core@45@@123@PEAX@Z 00000001800a2590 f i c1_ex_DLModel_28.obj
 0001:000a15e0       ??$?0U?$specialize_plan@UPtxPlan@?$ParallelForAgent@U?$functor@PEANU?$compute_sequence_value@HX@detail@generic@2system@thrust@@_J@__tabulate@cuda_cub@thrust@@_J@__parallel_for@cuda_cub@thrust@@Usm30@core@45@@core@cuda_cub@thrust@@@AgentPlan@core@cuda_cub@thrust@@QEAA@U?$specialize_plan@UPtxPlan@?$ParallelForAgent@U?$functor@PEANU?$compute_sequence_value@HX@detail@generic@2system@thrust@@_J@__tabulate@cuda_cub@thrust@@_J@__parallel_for@cuda_cub@thrust@@Usm30@core@45@@123@PEAX@Z 00000001800a25e0 f i c1_ex_DLModel_28.obj
 0001:000a1630       ??$?0U?$specialize_plan@UPtxPlan@?$ParallelForAgent@U?$functor@PEANU?$compute_sequence_value@HX@detail@generic@2system@thrust@@_J@__tabulate@cuda_cub@thrust@@_J@__parallel_for@cuda_cub@thrust@@Usm35@core@45@@core@cuda_cub@thrust@@@AgentPlan@core@cuda_cub@thrust@@QEAA@U?$specialize_plan@UPtxPlan@?$ParallelForAgent@U?$functor@PEANU?$compute_sequence_value@HX@detail@generic@2system@thrust@@_J@__tabulate@cuda_cub@thrust@@_J@__parallel_for@cuda_cub@thrust@@Usm35@core@45@@123@PEAX@Z 00000001800a2630 f i c1_ex_DLModel_28.obj
 0001:000a1680       ??$?0U?$specialize_plan@UPtxPlan@?$ParallelForAgent@U?$functor@PEANU?$compute_sequence_value@HX@detail@generic@2system@thrust@@_J@__tabulate@cuda_cub@thrust@@_J@__parallel_for@cuda_cub@thrust@@Usm52@core@45@@core@cuda_cub@thrust@@@AgentPlan@core@cuda_cub@thrust@@QEAA@U?$specialize_plan@UPtxPlan@?$ParallelForAgent@U?$functor@PEANU?$compute_sequence_value@HX@detail@generic@2system@thrust@@_J@__tabulate@cuda_cub@thrust@@_J@__parallel_for@cuda_cub@thrust@@Usm52@core@45@@123@PEAX@Z 00000001800a2680 f i c1_ex_DLModel_28.obj
 0001:000a16d0       ??$?0U?$specialize_plan@UPtxPlan@?$ParallelForAgent@U?$functor@PEANU?$compute_sequence_value@HX@detail@generic@2system@thrust@@_J@__tabulate@cuda_cub@thrust@@_J@__parallel_for@cuda_cub@thrust@@Usm60@core@45@@core@cuda_cub@thrust@@@AgentPlan@core@cuda_cub@thrust@@QEAA@U?$specialize_plan@UPtxPlan@?$ParallelForAgent@U?$functor@PEANU?$compute_sequence_value@HX@detail@generic@2system@thrust@@_J@__tabulate@cuda_cub@thrust@@_J@__parallel_for@cuda_cub@thrust@@Usm60@core@45@@123@PEAX@Z 00000001800a26d0 f i c1_ex_DLModel_28.obj
 0001:000a1720       ??$?0U_Exact_args_t@std@@$0A@@?$tuple@$$V@std@@QEAA@U_Exact_args_t@1@@Z 00000001800a2720 f i c1_ex_DLModel_28.obj
 0001:000a1730       ??$?0U_Exact_args_t@std@@AEBH$$V$0A@@?$tuple@AEBH@std@@QEAA@U_Exact_args_t@1@AEBH@Z 00000001800a2730 f i c1_ex_DLModel_28.obj
 0001:000a1780       ??$?0V?$allocator@D@std@@$$V@?$_Compressed_pair@V?$allocator@D@std@@V?$_String_val@U?$_Simple_types@D@std@@@2@$00@std@@QEAA@U_One_then_variadic_args_t@1@$$QEAV?$allocator@D@1@@Z 00000001800a2780 f i c1_ex_DLModel_28.obj
 0001:000a17c0       ??$?0V?$tuple@AEBH@std@@V?$tuple@$$V@1@$0A@$$Z$S@?$pair@$$CBHH@std@@QEAA@AEAV?$tuple@AEBH@1@AEAV?$tuple@$$V@1@U?$integer_sequence@_K$0A@@1@U?$integer_sequence@_K$S@1@@Z 00000001800a27c0 f i c1_ex_DLModel_28.obj
 0001:000a1810       ??$?0_J@?$AgentLauncher@U?$ParallelForAgent@U?$functor@PEANH@__fill@cuda_cub@thrust@@_J@__parallel_for@cuda_cub@thrust@@@core@cuda_cub@thrust@@QEAA@UAgentPlan@123@_JPEAUCUstream_st@@PEBD@Z 00000001800a2810 f i c1_ex_DLModel_28.obj
 0001:000a1940       ??$?0_J@?$AgentLauncher@U?$ParallelForAgent@U?$functor@PEANU?$compute_sequence_value@HX@detail@generic@2system@thrust@@_J@__tabulate@cuda_cub@thrust@@_J@__parallel_for@cuda_cub@thrust@@@core@cuda_cub@thrust@@QEAA@UAgentPlan@123@_JPEAUCUstream_st@@PEBD@Z 00000001800a2940 f i c1_ex_DLModel_28.obj
 0001:000a1a70       ??$?HDU?$char_traits@D@std@@V?$allocator@D@1@@std@@YA?AV?$basic_string@DU?$char_traits@D@std@@V?$allocator@D@2@@0@$$QEAV10@QEBD@Z 00000001800a2a70 f i c1_ex_DLModel_28.obj
 0001:000a1ad0       ??$?RV<lambda_8e42fde9b3efe5cab16583d698397035>@@@PerDeviceAttributeCache@CUB_200200_890_NS@cub@@QEAA?AUDevicePayload@012@$$QEAV<lambda_8e42fde9b3efe5cab16583d698397035>@@H@Z 00000001800a2ad0 f i c1_ex_DLModel_28.obj
 0001:000a1c30       ??$AliasTemporaries@$02@CUB_200200_890_NS@cub@@YA?AW4cudaError@@PEAXAEA_KAEAY02PEAXAEAY02_K@Z 00000001800a2c30 f i c1_ex_DLModel_28.obj
 0001:000a1da0       ??$AliasTemporaries@$03@CUB_200200_890_NS@cub@@YA?AW4cudaError@@PEAXAEA_KAEAY03PEAXAEAY03_K@Z 00000001800a2da0 f i c1_ex_DLModel_28.obj
 0001:000a1f20       ??$AliasTemporaries@$04@CUB_200200_890_NS@cub@@YA?AW4cudaError@@PEAXAEA_KAEAY04PEAXAEAY04_K@Z 00000001800a2f20 f i c1_ex_DLModel_28.obj
 0001:000a20a0       ??$DivideAndRoundUp@HH@CUB_200200_890_NS@cub@@YAHHH@Z 00000001800a30a0 f i c1_ex_DLModel_28.obj
 0001:000a20e0       ??$DivideAndRoundUp@IH@CUB_200200_890_NS@cub@@YAIIH@Z 00000001800a30e0 f i c1_ex_DLModel_28.obj
 0001:000a2120       ??$GetPerDeviceAttributeCache@UPtxVersionCacheTag@CUB_200200_890_NS@cub@@@CUB_200200_890_NS@cub@@YAAEAUPerDeviceAttributeCache@01@XZ 00000001800a3120 f i c1_ex_DLModel_28.obj
 0001:000a2190       ??$Init@U?$AgentRadixSortDownsweepPolicy@$0BAA@$0BA@U?$ValueIndexPair@N@@$0A@$04$00$00$05U?$RegBoundScaling@$0BAA@$0BA@U?$ValueIndexPair@N@@@CUB_200200_890_NS@cub@@@CUB_200200_890_NS@cub@@P6AXPEBHPEAHPEBU?$ValueIndexPair@N@@PEAU4@PEAIIHHU?$GridEvenShare@I@23@Uidentity_decomposer_t@detail@23@@Z@KernelConfig@CUB_200200_890_NS@cub@@QEAA?AW4cudaError@@P6AXPEBHPEAHPEBU?$ValueIndexPair@N@@PEAU4@PEAIIHHU?$GridEvenShare@I@12@Uidentity_decomposer_t@detail@12@@Z@Z 00000001800a3190 f i c1_ex_DLModel_28.obj
 0001:000a2200       ??$Init@U?$AgentRadixSortDownsweepPolicy@$0BAA@$0BA@U?$ValueIndexPair@N@@$0A@$04$00$00$05U?$RegBoundScaling@$0BAA@$0BA@U?$ValueIndexPair@N@@@CUB_200200_890_NS@cub@@@CUB_200200_890_NS@cub@@P6AXPEBHPEAIIHHU?$GridEvenShare@I@23@Uidentity_decomposer_t@detail@23@@Z@KernelConfig@CUB_200200_890_NS@cub@@QEAA?AW4cudaError@@P6AXPEBHPEAIIHHU?$GridEvenShare@I@12@Uidentity_decomposer_t@detail@12@@Z@Z 00000001800a3200 f i c1_ex_DLModel_28.obj
 0001:000a2270       ??$Init@U?$AgentRadixSortDownsweepPolicy@$0IA@$08U?$ValueIndexPair@N@@$03$04$01$01$05U?$RegBoundScaling@$0IA@$08U?$ValueIndexPair@N@@@CUB_200200_890_NS@cub@@@CUB_200200_890_NS@cub@@P6AXPEBHPEAHPEBU?$ValueIndexPair@N@@PEAU4@PEAIIHHU?$GridEvenShare@I@23@Uidentity_decomposer_t@detail@23@@Z@KernelConfig@CUB_200200_890_NS@cub@@QEAA?AW4cudaError@@P6AXPEBHPEAHPEBU?$ValueIndexPair@N@@PEAU4@PEAIIHHU?$GridEvenShare@I@12@Uidentity_decomposer_t@detail@12@@Z@Z 00000001800a3270 f i c1_ex_DLModel_28.obj
 0001:000a22e0       ??$Init@U?$AgentRadixSortDownsweepPolicy@$0IA@$08U?$ValueIndexPair@N@@$03$04$01$01$05U?$RegBoundScaling@$0IA@$08U?$ValueIndexPair@N@@@CUB_200200_890_NS@cub@@@CUB_200200_890_NS@cub@@P6AXPEBHPEAIIHHU?$GridEvenShare@I@23@Uidentity_decomposer_t@detail@23@@Z@KernelConfig@CUB_200200_890_NS@cub@@QEAA?AW4cudaError@@P6AXPEBHPEAIIHHU?$GridEvenShare@I@12@Uidentity_decomposer_t@detail@12@@Z@Z 00000001800a32e0 f i c1_ex_DLModel_28.obj
 0001:000a2350       ??$Init@U?$AgentRadixSortDownsweepPolicy@$0IA@$0P@U?$ValueIndexPair@N@@$0A@$04$00$01$04U?$RegBoundScaling@$0IA@$0P@U?$ValueIndexPair@N@@@CUB_200200_890_NS@cub@@@CUB_200200_890_NS@cub@@P6AXPEBHPEAHPEBU?$ValueIndexPair@N@@PEAU4@PEAIIHHU?$GridEvenShare@I@23@Uidentity_decomposer_t@detail@23@@Z@KernelConfig@CUB_200200_890_NS@cub@@QEAA?AW4cudaError@@P6AXPEBHPEAHPEBU?$ValueIndexPair@N@@PEAU4@PEAIIHHU?$GridEvenShare@I@12@Uidentity_decomposer_t@detail@12@@Z@Z 00000001800a3350 f i c1_ex_DLModel_28.obj
 0001:000a23c0       ??$Init@U?$AgentRadixSortDownsweepPolicy@$0IA@$0P@U?$ValueIndexPair@N@@$0A@$04$00$01$04U?$RegBoundScaling@$0IA@$0P@U?$ValueIndexPair@N@@@CUB_200200_890_NS@cub@@@CUB_200200_890_NS@cub@@P6AXPEBHPEAIIHHU?$GridEvenShare@I@23@Uidentity_decomposer_t@detail@23@@Z@KernelConfig@CUB_200200_890_NS@cub@@QEAA?AW4cudaError@@P6AXPEBHPEAIIHHU?$GridEvenShare@I@12@Uidentity_decomposer_t@detail@12@@Z@Z 00000001800a33c0 f i c1_ex_DLModel_28.obj
 0001:000a2430       ??$Init@U?$AgentRadixSortDownsweepPolicy@$0KA@$0CH@U?$ValueIndexPair@N@@$03$0A@$0A@$01$06U?$RegBoundScaling@$0KA@$0CH@U?$ValueIndexPair@N@@@CUB_200200_890_NS@cub@@@CUB_200200_890_NS@cub@@P6AXPEBHPEAHPEBU?$ValueIndexPair@N@@PEAU4@PEAIIHHU?$GridEvenShare@I@23@Uidentity_decomposer_t@detail@23@@Z@KernelConfig@CUB_200200_890_NS@cub@@QEAA?AW4cudaError@@P6AXPEBHPEAHPEBU?$ValueIndexPair@N@@PEAU4@PEAIIHHU?$GridEvenShare@I@12@Uidentity_decomposer_t@detail@12@@Z@Z 00000001800a3430 f i c1_ex_DLModel_28.obj
 0001:000a24a0       ??$Init@U?$AgentRadixSortDownsweepPolicy@$0KA@$0CH@U?$ValueIndexPair@N@@$03$0A@$0A@$01$06U?$RegBoundScaling@$0KA@$0CH@U?$ValueIndexPair@N@@@CUB_200200_890_NS@cub@@@CUB_200200_890_NS@cub@@P6AXPEBHPEAIIHHU?$GridEvenShare@I@23@Uidentity_decomposer_t@detail@23@@Z@KernelConfig@CUB_200200_890_NS@cub@@QEAA?AW4cudaError@@P6AXPEBHPEAIIHHU?$GridEvenShare@I@12@Uidentity_decomposer_t@detail@12@@Z@Z 00000001800a34a0 f i c1_ex_DLModel_28.obj
 0001:000a2510       ??$Init@U?$AgentScanPolicy@$0CAA@$0BH@I$03$0A@$03$00U?$MemBoundScaling@$0CAA@$0BH@I@CUB_200200_890_NS@cub@@U?$fixed_delay_constructor_t@$0BFO@$0BMC@@detail@23@@CUB_200200_890_NS@cub@@P6AXPEAIH@Z@KernelConfig@CUB_200200_890_NS@cub@@QEAA?AW4cudaError@@P6AXPEAIH@Z@Z 00000001800a3510 f i c1_ex_DLModel_28.obj
 0001:000a2580       ??$Init@U?$AgentScanPolicy@$0EAA@$03I$01$0A@$01$01U?$MemBoundScaling@$0EAA@$03I@CUB_200200_890_NS@cub@@U?$fixed_delay_constructor_t@$0BFO@$0BMC@@detail@23@@CUB_200200_890_NS@cub@@P6AXPEAIH@Z@KernelConfig@CUB_200200_890_NS@cub@@QEAA?AW4cudaError@@P6AXPEAIH@Z@Z 00000001800a3580 f i c1_ex_DLModel_28.obj
 0001:000a25f0       ??$InitPassConfig@U?$AgentRadixSortDownsweepPolicy@$0BAA@$0BA@U?$ValueIndexPair@N@@$0A@$04$00$00$05U?$RegBoundScaling@$0BAA@$0BA@U?$ValueIndexPair@N@@@CUB_200200_890_NS@cub@@@CUB_200200_890_NS@cub@@U?$AgentScanPolicy@$0CAA@$0BH@I$03$0A@$03$00U?$MemBoundScaling@$0CAA@$0BH@I@CUB_200200_890_NS@cub@@U?$fixed_delay_constructor_t@$0BFO@$0BMC@@detail@23@@23@U123@@?$PassConfig@P6AXPEBHPEAIIHHU?$GridEvenShare@I@CUB_200200_890_NS@cub@@Uidentity_decomposer_t@detail@23@@ZP6AX1H@ZP6AX0PEAHPEBU?$ValueIndexPair@N@@PEAU6@1IHH23@Z@?$DispatchRadixSort@$0A@HU?$ValueIndexPair@N@@IU?$DeviceRadixSortPolicy@HU?$ValueIndexPair@N@@I@CUB_200200_890_NS@cub@@Uidentity_decomposer_t@detail@34@@CUB_200200_890_NS@cub@@QEAA?AW4cudaError@@P6AXPEBHPEAIIHHU?$GridEvenShare@I@23@Uidentity_decomposer_t@detail@23@@ZP6AX1H@ZP6AX0PEAHPEBU?$ValueIndexPair@N@@PEAU8@1IHH23@ZHHI@Z 00000001800a35f0 f i c1_ex_DLModel_28.obj
 0001:000a2790       ??$InitPassConfig@U?$AgentRadixSortDownsweepPolicy@$0IA@$08U?$ValueIndexPair@N@@$03$04$01$01$05U?$RegBoundScaling@$0IA@$08U?$ValueIndexPair@N@@@CUB_200200_890_NS@cub@@@CUB_200200_890_NS@cub@@U?$AgentScanPolicy@$0EAA@$03I$01$0A@$01$01U?$MemBoundScaling@$0EAA@$03I@CUB_200200_890_NS@cub@@U?$fixed_delay_constructor_t@$0BFO@$0BMC@@detail@23@@23@U123@@?$PassConfig@P6AXPEBHPEAIIHHU?$GridEvenShare@I@CUB_200200_890_NS@cub@@Uidentity_decomposer_t@detail@23@@ZP6AX1H@ZP6AX0PEAHPEBU?$ValueIndexPair@N@@PEAU6@1IHH23@Z@?$DispatchRadixSort@$0A@HU?$ValueIndexPair@N@@IU?$DeviceRadixSortPolicy@HU?$ValueIndexPair@N@@I@CUB_200200_890_NS@cub@@Uidentity_decomposer_t@detail@34@@CUB_200200_890_NS@cub@@QEAA?AW4cudaError@@P6AXPEBHPEAIIHHU?$GridEvenShare@I@23@Uidentity_decomposer_t@detail@23@@ZP6AX1H@ZP6AX0PEAHPEBU?$ValueIndexPair@N@@PEAU8@1IHH23@ZHHI@Z 00000001800a3790 f i c1_ex_DLModel_28.obj
 0001:000a2930       ??$InitPassConfig@U?$AgentRadixSortDownsweepPolicy@$0IA@$0P@U?$ValueIndexPair@N@@$0A@$04$00$01$04U?$RegBoundScaling@$0IA@$0P@U?$ValueIndexPair@N@@@CUB_200200_890_NS@cub@@@CUB_200200_890_NS@cub@@U?$AgentScanPolicy@$0EAA@$03I$01$0A@$01$01U?$MemBoundScaling@$0EAA@$03I@CUB_200200_890_NS@cub@@U?$fixed_delay_constructor_t@$0BFO@$0BMC@@detail@23@@23@U123@@?$PassConfig@P6AXPEBHPEAIIHHU?$GridEvenShare@I@CUB_200200_890_NS@cub@@Uidentity_decomposer_t@detail@23@@ZP6AX1H@ZP6AX0PEAHPEBU?$ValueIndexPair@N@@PEAU6@1IHH23@Z@?$DispatchRadixSort@$0A@HU?$ValueIndexPair@N@@IU?$DeviceRadixSortPolicy@HU?$ValueIndexPair@N@@I@CUB_200200_890_NS@cub@@Uidentity_decomposer_t@detail@34@@CUB_200200_890_NS@cub@@QEAA?AW4cudaError@@P6AXPEBHPEAIIHHU?$GridEvenShare@I@23@Uidentity_decomposer_t@detail@23@@ZP6AX1H@ZP6AX0PEAHPEBU?$ValueIndexPair@N@@PEAU8@1IHH23@ZHHI@Z 00000001800a3930 f i c1_ex_DLModel_28.obj
 0001:000a2ad0       ??$InitPassConfig@U?$AgentRadixSortDownsweepPolicy@$0KA@$0CH@U?$ValueIndexPair@N@@$03$0A@$0A@$01$06U?$RegBoundScaling@$0KA@$0CH@U?$ValueIndexPair@N@@@CUB_200200_890_NS@cub@@@CUB_200200_890_NS@cub@@U?$AgentScanPolicy@$0CAA@$0BH@I$03$0A@$03$00U?$MemBoundScaling@$0CAA@$0BH@I@CUB_200200_890_NS@cub@@U?$fixed_delay_constructor_t@$0BFO@$0BMC@@detail@23@@23@U123@@?$PassConfig@P6AXPEBHPEAIIHHU?$GridEvenShare@I@CUB_200200_890_NS@cub@@Uidentity_decomposer_t@detail@23@@ZP6AX1H@ZP6AX0PEAHPEBU?$ValueIndexPair@N@@PEAU6@1IHH23@Z@?$DispatchRadixSort@$0A@HU?$ValueIndexPair@N@@IU?$DeviceRadixSortPolicy@HU?$ValueIndexPair@N@@I@CUB_200200_890_NS@cub@@Uidentity_decomposer_t@detail@34@@CUB_200200_890_NS@cub@@QEAA?AW4cudaError@@P6AXPEBHPEAIIHHU?$GridEvenShare@I@23@Uidentity_decomposer_t@detail@23@@ZP6AX1H@ZP6AX0PEAHPEBU?$ValueIndexPair@N@@PEAU8@1IHH23@ZHHI@Z 00000001800a3ad0 f i c1_ex_DLModel_28.obj
 0001:000a2c70       ??$Invoke@U?$DispatchMergeSort@PEANPEANPEANPEANHU?$customGreater@N@@U?$DeviceMergeSortPolicy@PEAN@CUB_200200_890_NS@cub@@@CUB_200200_890_NS@cub@@@?$ChainedPolicy@$0BFO@UPolicy350@?$DeviceMergeSortPolicy@PEAN@CUB_200200_890_NS@cub@@U1234@@CUB_200200_890_NS@cub@@SA?AW4cudaError@@HAEAU?$DispatchMergeSort@PEANPEANPEANPEANHU?$customGreater@N@@U?$DeviceMergeSortPolicy@PEAN@CUB_200200_890_NS@cub@@@12@@Z 00000001800a3c70 f i c1_ex_DLModel_28.obj
 0001:000a2c90       ??$Invoke@U?$DispatchMergeSort@PEANPEANPEANPEANHU?$customGreater@N@@U?$DeviceMergeSortPolicy@PEAN@CUB_200200_890_NS@cub@@@CUB_200200_890_NS@cub@@@?$ChainedPolicy@$0CAI@UPolicy520@?$DeviceMergeSortPolicy@PEAN@CUB_200200_890_NS@cub@@UPolicy350@234@@CUB_200200_890_NS@cub@@SA?AW4cudaError@@HAEAU?$DispatchMergeSort@PEANPEANPEANPEANHU?$customGreater@N@@U?$DeviceMergeSortPolicy@PEAN@CUB_200200_890_NS@cub@@@12@@Z 00000001800a3c90 f i c1_ex_DLModel_28.obj
 0001:000a2cd0       ??$Invoke@U?$DispatchMergeSort@PEANPEANPEANPEANHU?$customGreater@N@@U?$DeviceMergeSortPolicy@PEAN@CUB_200200_890_NS@cub@@@CUB_200200_890_NS@cub@@@?$ChainedPolicy@$0CFI@UPolicy600@?$DeviceMergeSortPolicy@PEAN@CUB_200200_890_NS@cub@@UPolicy520@234@@CUB_200200_890_NS@cub@@SA?AW4cudaError@@HAEAU?$DispatchMergeSort@PEANPEANPEANPEANHU?$customGreater@N@@U?$DeviceMergeSortPolicy@PEAN@CUB_200200_890_NS@cub@@@12@@Z 00000001800a3cd0 f i c1_ex_DLModel_28.obj
 0001:000a2d10       ??$Invoke@U?$DispatchMergeSort@PEANPEANPEANPEANHU?$customLesser@N@@U?$DeviceMergeSortPolicy@PEAN@CUB_200200_890_NS@cub@@@CUB_200200_890_NS@cub@@@?$ChainedPolicy@$0BFO@UPolicy350@?$DeviceMergeSortPolicy@PEAN@CUB_200200_890_NS@cub@@U1234@@CUB_200200_890_NS@cub@@SA?AW4cudaError@@HAEAU?$DispatchMergeSort@PEANPEANPEANPEANHU?$customLesser@N@@U?$DeviceMergeSortPolicy@PEAN@CUB_200200_890_NS@cub@@@12@@Z 00000001800a3d10 f i c1_ex_DLModel_28.obj
 0001:000a2d30       ??$Invoke@U?$DispatchMergeSort@PEANPEANPEANPEANHU?$customLesser@N@@U?$DeviceMergeSortPolicy@PEAN@CUB_200200_890_NS@cub@@@CUB_200200_890_NS@cub@@@?$ChainedPolicy@$0CAI@UPolicy520@?$DeviceMergeSortPolicy@PEAN@CUB_200200_890_NS@cub@@UPolicy350@234@@CUB_200200_890_NS@cub@@SA?AW4cudaError@@HAEAU?$DispatchMergeSort@PEANPEANPEANPEANHU?$customLesser@N@@U?$DeviceMergeSortPolicy@PEAN@CUB_200200_890_NS@cub@@@12@@Z 00000001800a3d30 f i c1_ex_DLModel_28.obj
 0001:000a2d70       ??$Invoke@U?$DispatchMergeSort@PEANPEANPEANPEANHU?$customLesser@N@@U?$DeviceMergeSortPolicy@PEAN@CUB_200200_890_NS@cub@@@CUB_200200_890_NS@cub@@@?$ChainedPolicy@$0CFI@UPolicy600@?$DeviceMergeSortPolicy@PEAN@CUB_200200_890_NS@cub@@UPolicy520@234@@CUB_200200_890_NS@cub@@SA?AW4cudaError@@HAEAU?$DispatchMergeSort@PEANPEANPEANPEANHU?$customLesser@N@@U?$DeviceMergeSortPolicy@PEAN@CUB_200200_890_NS@cub@@@12@@Z 00000001800a3d70 f i c1_ex_DLModel_28.obj
 0001:000a2db0       ??$Invoke@U?$DispatchMergeSort@PEANV?$zip_iterator@V?$tuple@PEAHPEANUnull_type@thrust@@U12@U12@U12@U12@U12@U12@U12@@thrust@@@thrust@@PEANV12@HU?$customGreater@N@@U?$DeviceMergeSortPolicy@PEAN@CUB_200200_890_NS@cub@@@CUB_200200_890_NS@cub@@@?$ChainedPolicy@$0BFO@UPolicy350@?$DeviceMergeSortPolicy@PEAN@CUB_200200_890_NS@cub@@U1234@@CUB_200200_890_NS@cub@@SA?AW4cudaError@@HAEAU?$DispatchMergeSort@PEANV?$zip_iterator@V?$tuple@PEAHPEANUnull_type@thrust@@U12@U12@U12@U12@U12@U12@U12@@thrust@@@thrust@@PEANV12@HU?$customGreater@N@@U?$DeviceMergeSortPolicy@PEAN@CUB_200200_890_NS@cub@@@12@@Z 00000001800a3db0 f i c1_ex_DLModel_28.obj
 0001:000a2dd0       ??$Invoke@U?$DispatchMergeSort@PEANV?$zip_iterator@V?$tuple@PEAHPEANUnull_type@thrust@@U12@U12@U12@U12@U12@U12@U12@@thrust@@@thrust@@PEANV12@HU?$customGreater@N@@U?$DeviceMergeSortPolicy@PEAN@CUB_200200_890_NS@cub@@@CUB_200200_890_NS@cub@@@?$ChainedPolicy@$0CAI@UPolicy520@?$DeviceMergeSortPolicy@PEAN@CUB_200200_890_NS@cub@@UPolicy350@234@@CUB_200200_890_NS@cub@@SA?AW4cudaError@@HAEAU?$DispatchMergeSort@PEANV?$zip_iterator@V?$tuple@PEAHPEANUnull_type@thrust@@U12@U12@U12@U12@U12@U12@U12@@thrust@@@thrust@@PEANV12@HU?$customGreater@N@@U?$DeviceMergeSortPolicy@PEAN@CUB_200200_890_NS@cub@@@12@@Z 00000001800a3dd0 f i c1_ex_DLModel_28.obj
 0001:000a2e10       ??$Invoke@U?$DispatchMergeSort@PEANV?$zip_iterator@V?$tuple@PEAHPEANUnull_type@thrust@@U12@U12@U12@U12@U12@U12@U12@@thrust@@@thrust@@PEANV12@HU?$customGreater@N@@U?$DeviceMergeSortPolicy@PEAN@CUB_200200_890_NS@cub@@@CUB_200200_890_NS@cub@@@?$ChainedPolicy@$0CFI@UPolicy600@?$DeviceMergeSortPolicy@PEAN@CUB_200200_890_NS@cub@@UPolicy520@234@@CUB_200200_890_NS@cub@@SA?AW4cudaError@@HAEAU?$DispatchMergeSort@PEANV?$zip_iterator@V?$tuple@PEAHPEANUnull_type@thrust@@U12@U12@U12@U12@U12@U12@U12@@thrust@@@thrust@@PEANV12@HU?$customGreater@N@@U?$DeviceMergeSortPolicy@PEAN@CUB_200200_890_NS@cub@@@12@@Z 00000001800a3e10 f i c1_ex_DLModel_28.obj
 0001:000a2e50       ??$Invoke@U?$DispatchMergeSort@PEANV?$zip_iterator@V?$tuple@PEAHPEANUnull_type@thrust@@U12@U12@U12@U12@U12@U12@U12@@thrust@@@thrust@@PEANV12@HU?$customLesser@N@@U?$DeviceMergeSortPolicy@PEAN@CUB_200200_890_NS@cub@@@CUB_200200_890_NS@cub@@@?$ChainedPolicy@$0BFO@UPolicy350@?$DeviceMergeSortPolicy@PEAN@CUB_200200_890_NS@cub@@U1234@@CUB_200200_890_NS@cub@@SA?AW4cudaError@@HAEAU?$DispatchMergeSort@PEANV?$zip_iterator@V?$tuple@PEAHPEANUnull_type@thrust@@U12@U12@U12@U12@U12@U12@U12@@thrust@@@thrust@@PEANV12@HU?$customLesser@N@@U?$DeviceMergeSortPolicy@PEAN@CUB_200200_890_NS@cub@@@12@@Z 00000001800a3e50 f i c1_ex_DLModel_28.obj
 0001:000a2e70       ??$Invoke@U?$DispatchMergeSort@PEANV?$zip_iterator@V?$tuple@PEAHPEANUnull_type@thrust@@U12@U12@U12@U12@U12@U12@U12@@thrust@@@thrust@@PEANV12@HU?$customLesser@N@@U?$DeviceMergeSortPolicy@PEAN@CUB_200200_890_NS@cub@@@CUB_200200_890_NS@cub@@@?$ChainedPolicy@$0CAI@UPolicy520@?$DeviceMergeSortPolicy@PEAN@CUB_200200_890_NS@cub@@UPolicy350@234@@CUB_200200_890_NS@cub@@SA?AW4cudaError@@HAEAU?$DispatchMergeSort@PEANV?$zip_iterator@V?$tuple@PEAHPEANUnull_type@thrust@@U12@U12@U12@U12@U12@U12@U12@@thrust@@@thrust@@PEANV12@HU?$customLesser@N@@U?$DeviceMergeSortPolicy@PEAN@CUB_200200_890_NS@cub@@@12@@Z 00000001800a3e70 f i c1_ex_DLModel_28.obj
 0001:000a2eb0       ??$Invoke@U?$DispatchMergeSort@PEANV?$zip_iterator@V?$tuple@PEAHPEANUnull_type@thrust@@U12@U12@U12@U12@U12@U12@U12@@thrust@@@thrust@@PEANV12@HU?$customLesser@N@@U?$DeviceMergeSortPolicy@PEAN@CUB_200200_890_NS@cub@@@CUB_200200_890_NS@cub@@@?$ChainedPolicy@$0CFI@UPolicy600@?$DeviceMergeSortPolicy@PEAN@CUB_200200_890_NS@cub@@UPolicy520@234@@CUB_200200_890_NS@cub@@SA?AW4cudaError@@HAEAU?$DispatchMergeSort@PEANV?$zip_iterator@V?$tuple@PEAHPEANUnull_type@thrust@@U12@U12@U12@U12@U12@U12@U12@@thrust@@@thrust@@PEANV12@HU?$customLesser@N@@U?$DeviceMergeSortPolicy@PEAN@CUB_200200_890_NS@cub@@@12@@Z 00000001800a3eb0 f i c1_ex_DLModel_28.obj
 0001:000a2ef0       ??$Invoke@U?$DispatchRadixSort@$0A@HU?$ValueIndexPair@N@@IU?$DeviceRadixSortPolicy@HU?$ValueIndexPair@N@@I@CUB_200200_890_NS@cub@@Uidentity_decomposer_t@detail@34@@CUB_200200_890_NS@cub@@@?$ChainedPolicy@$0BFO@UPolicy350@?$DeviceRadixSortPolicy@HU?$ValueIndexPair@N@@I@CUB_200200_890_NS@cub@@U1234@@CUB_200200_890_NS@cub@@SA?AW4cudaError@@HAEAU?$DispatchRadixSort@$0A@HU?$ValueIndexPair@N@@IU?$DeviceRadixSortPolicy@HU?$ValueIndexPair@N@@I@CUB_200200_890_NS@cub@@Uidentity_decomposer_t@detail@34@@12@@Z 00000001800a3ef0 f i c1_ex_DLModel_28.obj
 0001:000a2f10       ??$Invoke@U?$DispatchRadixSort@$0A@HU?$ValueIndexPair@N@@IU?$DeviceRadixSortPolicy@HU?$ValueIndexPair@N@@I@CUB_200200_890_NS@cub@@Uidentity_decomposer_t@detail@34@@CUB_200200_890_NS@cub@@@?$ChainedPolicy@$0BPE@UPolicy500@?$DeviceRadixSortPolicy@HU?$ValueIndexPair@N@@I@CUB_200200_890_NS@cub@@UPolicy350@234@@CUB_200200_890_NS@cub@@SA?AW4cudaError@@HAEAU?$DispatchRadixSort@$0A@HU?$ValueIndexPair@N@@IU?$DeviceRadixSortPolicy@HU?$ValueIndexPair@N@@I@CUB_200200_890_NS@cub@@Uidentity_decomposer_t@detail@34@@12@@Z 00000001800a3f10 f i c1_ex_DLModel_28.obj
 0001:000a2f50       ??$Invoke@U?$DispatchRadixSort@$0A@HU?$ValueIndexPair@N@@IU?$DeviceRadixSortPolicy@HU?$ValueIndexPair@N@@I@CUB_200200_890_NS@cub@@Uidentity_decomposer_t@detail@34@@CUB_200200_890_NS@cub@@@?$ChainedPolicy@$0CFI@UPolicy600@?$DeviceRadixSortPolicy@HU?$ValueIndexPair@N@@I@CUB_200200_890_NS@cub@@UPolicy500@234@@CUB_200200_890_NS@cub@@SA?AW4cudaError@@HAEAU?$DispatchRadixSort@$0A@HU?$ValueIndexPair@N@@IU?$DeviceRadixSortPolicy@HU?$ValueIndexPair@N@@I@CUB_200200_890_NS@cub@@Uidentity_decomposer_t@detail@34@@12@@Z 00000001800a3f50 f i c1_ex_DLModel_28.obj
 0001:000a2f90       ??$Invoke@U?$DispatchRadixSort@$0A@HU?$ValueIndexPair@N@@IU?$DeviceRadixSortPolicy@HU?$ValueIndexPair@N@@I@CUB_200200_890_NS@cub@@Uidentity_decomposer_t@detail@34@@CUB_200200_890_NS@cub@@@?$ChainedPolicy@$0CGC@UPolicy610@?$DeviceRadixSortPolicy@HU?$ValueIndexPair@N@@I@CUB_200200_890_NS@cub@@UPolicy600@234@@CUB_200200_890_NS@cub@@SA?AW4cudaError@@HAEAU?$DispatchRadixSort@$0A@HU?$ValueIndexPair@N@@IU?$DeviceRadixSortPolicy@HU?$ValueIndexPair@N@@I@CUB_200200_890_NS@cub@@Uidentity_decomposer_t@detail@34@@12@@Z 00000001800a3f90 f i c1_ex_DLModel_28.obj
 0001:000a2fd0       ??$Invoke@U?$DispatchRadixSort@$0A@HU?$ValueIndexPair@N@@IU?$DeviceRadixSortPolicy@HU?$ValueIndexPair@N@@I@CUB_200200_890_NS@cub@@Uidentity_decomposer_t@detail@34@@CUB_200200_890_NS@cub@@@?$ChainedPolicy@$0CGM@UPolicy620@?$DeviceRadixSortPolicy@HU?$ValueIndexPair@N@@I@CUB_200200_890_NS@cub@@UPolicy610@234@@CUB_200200_890_NS@cub@@SA?AW4cudaError@@HAEAU?$DispatchRadixSort@$0A@HU?$ValueIndexPair@N@@IU?$DeviceRadixSortPolicy@HU?$ValueIndexPair@N@@I@CUB_200200_890_NS@cub@@Uidentity_decomposer_t@detail@34@@12@@Z 00000001800a3fd0 f i c1_ex_DLModel_28.obj
 0001:000a3010       ??$Invoke@U?$DispatchRadixSort@$0A@HU?$ValueIndexPair@N@@IU?$DeviceRadixSortPolicy@HU?$ValueIndexPair@N@@I@CUB_200200_890_NS@cub@@Uidentity_decomposer_t@detail@34@@CUB_200200_890_NS@cub@@@?$ChainedPolicy@$0CLM@UPolicy700@?$DeviceRadixSortPolicy@HU?$ValueIndexPair@N@@I@CUB_200200_890_NS@cub@@UPolicy620@234@@CUB_200200_890_NS@cub@@SA?AW4cudaError@@HAEAU?$DispatchRadixSort@$0A@HU?$ValueIndexPair@N@@IU?$DeviceRadixSortPolicy@HU?$ValueIndexPair@N@@I@CUB_200200_890_NS@cub@@Uidentity_decomposer_t@detail@34@@12@@Z 00000001800a4010 f i c1_ex_DLModel_28.obj
 0001:000a3050       ??$Invoke@U?$DispatchRadixSort@$0A@HU?$ValueIndexPair@N@@IU?$DeviceRadixSortPolicy@HU?$ValueIndexPair@N@@I@CUB_200200_890_NS@cub@@Uidentity_decomposer_t@detail@34@@CUB_200200_890_NS@cub@@@?$ChainedPolicy@$0DCA@UPolicy800@?$DeviceRadixSortPolicy@HU?$ValueIndexPair@N@@I@CUB_200200_890_NS@cub@@UPolicy700@234@@CUB_200200_890_NS@cub@@SA?AW4cudaError@@HAEAU?$DispatchRadixSort@$0A@HU?$ValueIndexPair@N@@IU?$DeviceRadixSortPolicy@HU?$ValueIndexPair@N@@I@CUB_200200_890_NS@cub@@Uidentity_decomposer_t@detail@34@@12@@Z 00000001800a4050 f i c1_ex_DLModel_28.obj
 0001:000a3090       ??$Invoke@U?$DispatchRadixSort@$0A@HU?$ValueIndexPair@N@@IU?$DeviceRadixSortPolicy@HU?$ValueIndexPair@N@@I@CUB_200200_890_NS@cub@@Uidentity_decomposer_t@detail@34@@CUB_200200_890_NS@cub@@@?$ChainedPolicy@$0DIE@UPolicy900@?$DeviceRadixSortPolicy@HU?$ValueIndexPair@N@@I@CUB_200200_890_NS@cub@@UPolicy800@234@@CUB_200200_890_NS@cub@@SA?AW4cudaError@@HAEAU?$DispatchRadixSort@$0A@HU?$ValueIndexPair@N@@IU?$DeviceRadixSortPolicy@HU?$ValueIndexPair@N@@I@CUB_200200_890_NS@cub@@Uidentity_decomposer_t@detail@34@@12@@Z 00000001800a4090 f i c1_ex_DLModel_28.obj
 0001:000a30d0       ??$Invoke@UPolicy350@?$DeviceMergeSortPolicy@PEAN@CUB_200200_890_NS@cub@@@?$DispatchMergeSort@PEANPEANPEANPEANHU?$customGreater@N@@U?$DeviceMergeSortPolicy@PEAN@CUB_200200_890_NS@cub@@@CUB_200200_890_NS@cub@@QEAA?AW4cudaError@@XZ 00000001800a40d0 f i c1_ex_DLModel_28.obj
 0001:000a39d0       ??$Invoke@UPolicy350@?$DeviceMergeSortPolicy@PEAN@CUB_200200_890_NS@cub@@@?$DispatchMergeSort@PEANPEANPEANPEANHU?$customLesser@N@@U?$DeviceMergeSortPolicy@PEAN@CUB_200200_890_NS@cub@@@CUB_200200_890_NS@cub@@QEAA?AW4cudaError@@XZ 00000001800a49d0 f i c1_ex_DLModel_28.obj
 0001:000a42d0       ??$Invoke@UPolicy350@?$DeviceMergeSortPolicy@PEAN@CUB_200200_890_NS@cub@@@?$DispatchMergeSort@PEANV?$zip_iterator@V?$tuple@PEAHPEANUnull_type@thrust@@U12@U12@U12@U12@U12@U12@U12@@thrust@@@thrust@@PEANV12@HU?$customGreater@N@@U?$DeviceMergeSortPolicy@PEAN@CUB_200200_890_NS@cub@@@CUB_200200_890_NS@cub@@QEAA?AW4cudaError@@XZ 00000001800a52d0 f i c1_ex_DLModel_28.obj
 0001:000a4c20       ??$Invoke@UPolicy350@?$DeviceMergeSortPolicy@PEAN@CUB_200200_890_NS@cub@@@?$DispatchMergeSort@PEANV?$zip_iterator@V?$tuple@PEAHPEANUnull_type@thrust@@U12@U12@U12@U12@U12@U12@U12@@thrust@@@thrust@@PEANV12@HU?$customLesser@N@@U?$DeviceMergeSortPolicy@PEAN@CUB_200200_890_NS@cub@@@CUB_200200_890_NS@cub@@QEAA?AW4cudaError@@XZ 00000001800a5c20 f i c1_ex_DLModel_28.obj
 0001:000a5570       ??$Invoke@UPolicy350@?$DeviceRadixSortPolicy@HU?$ValueIndexPair@N@@I@CUB_200200_890_NS@cub@@@?$DispatchRadixSort@$0A@HU?$ValueIndexPair@N@@IU?$DeviceRadixSortPolicy@HU?$ValueIndexPair@N@@I@CUB_200200_890_NS@cub@@Uidentity_decomposer_t@detail@34@@CUB_200200_890_NS@cub@@QEAA?AW4cudaError@@XZ 00000001800a6570 f i c1_ex_DLModel_28.obj
 0001:000a5640       ??$Invoke@UPolicy500@?$DeviceRadixSortPolicy@HU?$ValueIndexPair@N@@I@CUB_200200_890_NS@cub@@@?$DispatchRadixSort@$0A@HU?$ValueIndexPair@N@@IU?$DeviceRadixSortPolicy@HU?$ValueIndexPair@N@@I@CUB_200200_890_NS@cub@@Uidentity_decomposer_t@detail@34@@CUB_200200_890_NS@cub@@QEAA?AW4cudaError@@XZ 00000001800a6640 f i c1_ex_DLModel_28.obj
 0001:000a5710       ??$Invoke@UPolicy520@?$DeviceMergeSortPolicy@PEAN@CUB_200200_890_NS@cub@@@?$DispatchMergeSort@PEANPEANPEANPEANHU?$customGreater@N@@U?$DeviceMergeSortPolicy@PEAN@CUB_200200_890_NS@cub@@@CUB_200200_890_NS@cub@@QEAA?AW4cudaError@@XZ 00000001800a6710 f i c1_ex_DLModel_28.obj
 0001:000a6010       ??$Invoke@UPolicy520@?$DeviceMergeSortPolicy@PEAN@CUB_200200_890_NS@cub@@@?$DispatchMergeSort@PEANPEANPEANPEANHU?$customLesser@N@@U?$DeviceMergeSortPolicy@PEAN@CUB_200200_890_NS@cub@@@CUB_200200_890_NS@cub@@QEAA?AW4cudaError@@XZ 00000001800a7010 f i c1_ex_DLModel_28.obj
 0001:000a6910       ??$Invoke@UPolicy520@?$DeviceMergeSortPolicy@PEAN@CUB_200200_890_NS@cub@@@?$DispatchMergeSort@PEANV?$zip_iterator@V?$tuple@PEAHPEANUnull_type@thrust@@U12@U12@U12@U12@U12@U12@U12@@thrust@@@thrust@@PEANV12@HU?$customGreater@N@@U?$DeviceMergeSortPolicy@PEAN@CUB_200200_890_NS@cub@@@CUB_200200_890_NS@cub@@QEAA?AW4cudaError@@XZ 00000001800a7910 f i c1_ex_DLModel_28.obj
 0001:000a7260       ??$Invoke@UPolicy520@?$DeviceMergeSortPolicy@PEAN@CUB_200200_890_NS@cub@@@?$DispatchMergeSort@PEANV?$zip_iterator@V?$tuple@PEAHPEANUnull_type@thrust@@U12@U12@U12@U12@U12@U12@U12@@thrust@@@thrust@@PEANV12@HU?$customLesser@N@@U?$DeviceMergeSortPolicy@PEAN@CUB_200200_890_NS@cub@@@CUB_200200_890_NS@cub@@QEAA?AW4cudaError@@XZ 00000001800a8260 f i c1_ex_DLModel_28.obj
 0001:000a7bb0       ??$Invoke@UPolicy600@?$DeviceMergeSortPolicy@PEAN@CUB_200200_890_NS@cub@@@?$DispatchMergeSort@PEANPEANPEANPEANHU?$customGreater@N@@U?$DeviceMergeSortPolicy@PEAN@CUB_200200_890_NS@cub@@@CUB_200200_890_NS@cub@@QEAA?AW4cudaError@@XZ 00000001800a8bb0 f i c1_ex_DLModel_28.obj
 0001:000a84b0       ??$Invoke@UPolicy600@?$DeviceMergeSortPolicy@PEAN@CUB_200200_890_NS@cub@@@?$DispatchMergeSort@PEANPEANPEANPEANHU?$customLesser@N@@U?$DeviceMergeSortPolicy@PEAN@CUB_200200_890_NS@cub@@@CUB_200200_890_NS@cub@@QEAA?AW4cudaError@@XZ 00000001800a94b0 f i c1_ex_DLModel_28.obj
 0001:000a8db0       ??$Invoke@UPolicy600@?$DeviceMergeSortPolicy@PEAN@CUB_200200_890_NS@cub@@@?$DispatchMergeSort@PEANV?$zip_iterator@V?$tuple@PEAHPEANUnull_type@thrust@@U12@U12@U12@U12@U12@U12@U12@@thrust@@@thrust@@PEANV12@HU?$customGreater@N@@U?$DeviceMergeSortPolicy@PEAN@CUB_200200_890_NS@cub@@@CUB_200200_890_NS@cub@@QEAA?AW4cudaError@@XZ 00000001800a9db0 f i c1_ex_DLModel_28.obj
 0001:000a9700       ??$Invoke@UPolicy600@?$DeviceMergeSortPolicy@PEAN@CUB_200200_890_NS@cub@@@?$DispatchMergeSort@PEANV?$zip_iterator@V?$tuple@PEAHPEANUnull_type@thrust@@U12@U12@U12@U12@U12@U12@U12@@thrust@@@thrust@@PEANV12@HU?$customLesser@N@@U?$DeviceMergeSortPolicy@PEAN@CUB_200200_890_NS@cub@@@CUB_200200_890_NS@cub@@QEAA?AW4cudaError@@XZ 00000001800aa700 f i c1_ex_DLModel_28.obj
 0001:000aa050       ??$Invoke@UPolicy600@?$DeviceRadixSortPolicy@HU?$ValueIndexPair@N@@I@CUB_200200_890_NS@cub@@@?$DispatchRadixSort@$0A@HU?$ValueIndexPair@N@@IU?$DeviceRadixSortPolicy@HU?$ValueIndexPair@N@@I@CUB_200200_890_NS@cub@@Uidentity_decomposer_t@detail@34@@CUB_200200_890_NS@cub@@QEAA?AW4cudaError@@XZ 00000001800ab050 f i c1_ex_DLModel_28.obj
 0001:000aa120       ??$Invoke@UPolicy610@?$DeviceRadixSortPolicy@HU?$ValueIndexPair@N@@I@CUB_200200_890_NS@cub@@@?$DispatchRadixSort@$0A@HU?$ValueIndexPair@N@@IU?$DeviceRadixSortPolicy@HU?$ValueIndexPair@N@@I@CUB_200200_890_NS@cub@@Uidentity_decomposer_t@detail@34@@CUB_200200_890_NS@cub@@QEAA?AW4cudaError@@XZ 00000001800ab120 f i c1_ex_DLModel_28.obj
 0001:000aa1f0       ??$Invoke@UPolicy620@?$DeviceRadixSortPolicy@HU?$ValueIndexPair@N@@I@CUB_200200_890_NS@cub@@@?$DispatchRadixSort@$0A@HU?$ValueIndexPair@N@@IU?$DeviceRadixSortPolicy@HU?$ValueIndexPair@N@@I@CUB_200200_890_NS@cub@@Uidentity_decomposer_t@detail@34@@CUB_200200_890_NS@cub@@QEAA?AW4cudaError@@XZ 00000001800ab1f0 f i c1_ex_DLModel_28.obj
 0001:000aa2c0       ??$Invoke@UPolicy700@?$DeviceRadixSortPolicy@HU?$ValueIndexPair@N@@I@CUB_200200_890_NS@cub@@@?$DispatchRadixSort@$0A@HU?$ValueIndexPair@N@@IU?$DeviceRadixSortPolicy@HU?$ValueIndexPair@N@@I@CUB_200200_890_NS@cub@@Uidentity_decomposer_t@detail@34@@CUB_200200_890_NS@cub@@QEAA?AW4cudaError@@XZ 00000001800ab2c0 f i c1_ex_DLModel_28.obj
 0001:000aa390       ??$Invoke@UPolicy800@?$DeviceRadixSortPolicy@HU?$ValueIndexPair@N@@I@CUB_200200_890_NS@cub@@@?$DispatchRadixSort@$0A@HU?$ValueIndexPair@N@@IU?$DeviceRadixSortPolicy@HU?$ValueIndexPair@N@@I@CUB_200200_890_NS@cub@@Uidentity_decomposer_t@detail@34@@CUB_200200_890_NS@cub@@QEAA?AW4cudaError@@XZ 00000001800ab390 f i c1_ex_DLModel_28.obj
 0001:000aa460       ??$Invoke@UPolicy900@?$DeviceRadixSortPolicy@HU?$ValueIndexPair@N@@I@CUB_200200_890_NS@cub@@@?$DispatchRadixSort@$0A@HU?$ValueIndexPair@N@@IU?$DeviceRadixSortPolicy@HU?$ValueIndexPair@N@@I@CUB_200200_890_NS@cub@@Uidentity_decomposer_t@detail@34@@CUB_200200_890_NS@cub@@QEAA?AW4cudaError@@XZ 00000001800ab460 f i c1_ex_DLModel_28.obj
 0001:000aa530       ??$InvokeManyTiles@UPolicy350@?$DeviceRadixSortPolicy@HU?$ValueIndexPair@N@@I@CUB_200200_890_NS@cub@@@?$DispatchRadixSort@$0A@HU?$ValueIndexPair@N@@IU?$DeviceRadixSortPolicy@HU?$ValueIndexPair@N@@I@CUB_200200_890_NS@cub@@Uidentity_decomposer_t@detail@34@@CUB_200200_890_NS@cub@@QEAA?AW4cudaError@@U?$Int2Type@$0A@@12@@Z 00000001800ab530 f i c1_ex_DLModel_28.obj
 0001:000aa580       ??$InvokeManyTiles@UPolicy500@?$DeviceRadixSortPolicy@HU?$ValueIndexPair@N@@I@CUB_200200_890_NS@cub@@@?$DispatchRadixSort@$0A@HU?$ValueIndexPair@N@@IU?$DeviceRadixSortPolicy@HU?$ValueIndexPair@N@@I@CUB_200200_890_NS@cub@@Uidentity_decomposer_t@detail@34@@CUB_200200_890_NS@cub@@QEAA?AW4cudaError@@U?$Int2Type@$0A@@12@@Z 00000001800ab580 f i c1_ex_DLModel_28.obj
 0001:000aa5d0       ??$InvokeManyTiles@UPolicy600@?$DeviceRadixSortPolicy@HU?$ValueIndexPair@N@@I@CUB_200200_890_NS@cub@@@?$DispatchRadixSort@$0A@HU?$ValueIndexPair@N@@IU?$DeviceRadixSortPolicy@HU?$ValueIndexPair@N@@I@CUB_200200_890_NS@cub@@Uidentity_decomposer_t@detail@34@@CUB_200200_890_NS@cub@@QEAA?AW4cudaError@@U?$Int2Type@$00@12@@Z 00000001800ab5d0 f i c1_ex_DLModel_28.obj
 0001:000aa5f0       ??$InvokeManyTiles@UPolicy610@?$DeviceRadixSortPolicy@HU?$ValueIndexPair@N@@I@CUB_200200_890_NS@cub@@@?$DispatchRadixSort@$0A@HU?$ValueIndexPair@N@@IU?$DeviceRadixSortPolicy@HU?$ValueIndexPair@N@@I@CUB_200200_890_NS@cub@@Uidentity_decomposer_t@detail@34@@CUB_200200_890_NS@cub@@QEAA?AW4cudaError@@U?$Int2Type@$00@12@@Z 00000001800ab5f0 f i c1_ex_DLModel_28.obj
 0001:000aa610       ??$InvokeManyTiles@UPolicy620@?$DeviceRadixSortPolicy@HU?$ValueIndexPair@N@@I@CUB_200200_890_NS@cub@@@?$DispatchRadixSort@$0A@HU?$ValueIndexPair@N@@IU?$DeviceRadixSortPolicy@HU?$ValueIndexPair@N@@I@CUB_200200_890_NS@cub@@Uidentity_decomposer_t@detail@34@@CUB_200200_890_NS@cub@@QEAA?AW4cudaError@@U?$Int2Type@$00@12@@Z 00000001800ab610 f i c1_ex_DLModel_28.obj
 0001:000aa630       ??$InvokeManyTiles@UPolicy700@?$DeviceRadixSortPolicy@HU?$ValueIndexPair@N@@I@CUB_200200_890_NS@cub@@@?$DispatchRadixSort@$0A@HU?$ValueIndexPair@N@@IU?$DeviceRadixSortPolicy@HU?$ValueIndexPair@N@@I@CUB_200200_890_NS@cub@@Uidentity_decomposer_t@detail@34@@CUB_200200_890_NS@cub@@QEAA?AW4cudaError@@U?$Int2Type@$00@12@@Z 00000001800ab630 f i c1_ex_DLModel_28.obj
 0001:000aa650       ??$InvokeManyTiles@UPolicy800@?$DeviceRadixSortPolicy@HU?$ValueIndexPair@N@@I@CUB_200200_890_NS@cub@@@?$DispatchRadixSort@$0A@HU?$ValueIndexPair@N@@IU?$DeviceRadixSortPolicy@HU?$ValueIndexPair@N@@I@CUB_200200_890_NS@cub@@Uidentity_decomposer_t@detail@34@@CUB_200200_890_NS@cub@@QEAA?AW4cudaError@@U?$Int2Type@$00@12@@Z 00000001800ab650 f i c1_ex_DLModel_28.obj
 0001:000aa670       ??$InvokeManyTiles@UPolicy900@?$DeviceRadixSortPolicy@HU?$ValueIndexPair@N@@I@CUB_200200_890_NS@cub@@@?$DispatchRadixSort@$0A@HU?$ValueIndexPair@N@@IU?$DeviceRadixSortPolicy@HU?$ValueIndexPair@N@@I@CUB_200200_890_NS@cub@@Uidentity_decomposer_t@detail@34@@CUB_200200_890_NS@cub@@QEAA?AW4cudaError@@U?$Int2Type@$00@12@@Z 00000001800ab670 f i c1_ex_DLModel_28.obj
 0001:000aa690       ??$InvokeOnesweep@UPolicy600@?$DeviceRadixSortPolicy@HU?$ValueIndexPair@N@@I@CUB_200200_890_NS@cub@@@?$DispatchRadixSort@$0A@HU?$ValueIndexPair@N@@IU?$DeviceRadixSortPolicy@HU?$ValueIndexPair@N@@I@CUB_200200_890_NS@cub@@Uidentity_decomposer_t@detail@34@@CUB_200200_890_NS@cub@@QEAA?AW4cudaError@@XZ 00000001800ab690 f i c1_ex_DLModel_28.obj
 0001:000ab4c0       ??$InvokeOnesweep@UPolicy610@?$DeviceRadixSortPolicy@HU?$ValueIndexPair@N@@I@CUB_200200_890_NS@cub@@@?$DispatchRadixSort@$0A@HU?$ValueIndexPair@N@@IU?$DeviceRadixSortPolicy@HU?$ValueIndexPair@N@@I@CUB_200200_890_NS@cub@@Uidentity_decomposer_t@detail@34@@CUB_200200_890_NS@cub@@QEAA?AW4cudaError@@XZ 00000001800ac4c0 f i c1_ex_DLModel_28.obj
 0001:000ac2f0       ??$InvokeOnesweep@UPolicy620@?$DeviceRadixSortPolicy@HU?$ValueIndexPair@N@@I@CUB_200200_890_NS@cub@@@?$DispatchRadixSort@$0A@HU?$ValueIndexPair@N@@IU?$DeviceRadixSortPolicy@HU?$ValueIndexPair@N@@I@CUB_200200_890_NS@cub@@Uidentity_decomposer_t@detail@34@@CUB_200200_890_NS@cub@@QEAA?AW4cudaError@@XZ 00000001800ad2f0 f i c1_ex_DLModel_28.obj
 0001:000ad120       ??$InvokeOnesweep@UPolicy700@?$DeviceRadixSortPolicy@HU?$ValueIndexPair@N@@I@CUB_200200_890_NS@cub@@@?$DispatchRadixSort@$0A@HU?$ValueIndexPair@N@@IU?$DeviceRadixSortPolicy@HU?$ValueIndexPair@N@@I@CUB_200200_890_NS@cub@@Uidentity_decomposer_t@detail@34@@CUB_200200_890_NS@cub@@QEAA?AW4cudaError@@XZ 00000001800ae120 f i c1_ex_DLModel_28.obj
 0001:000adf50       ??$InvokeOnesweep@UPolicy800@?$DeviceRadixSortPolicy@HU?$ValueIndexPair@N@@I@CUB_200200_890_NS@cub@@@?$DispatchRadixSort@$0A@HU?$ValueIndexPair@N@@IU?$DeviceRadixSortPolicy@HU?$ValueIndexPair@N@@I@CUB_200200_890_NS@cub@@Uidentity_decomposer_t@detail@34@@CUB_200200_890_NS@cub@@QEAA?AW4cudaError@@XZ 00000001800aef50 f i c1_ex_DLModel_28.obj
 0001:000aed80       ??$InvokeOnesweep@UPolicy900@?$DeviceRadixSortPolicy@HU?$ValueIndexPair@N@@I@CUB_200200_890_NS@cub@@@?$DispatchRadixSort@$0A@HU?$ValueIndexPair@N@@IU?$DeviceRadixSortPolicy@HU?$ValueIndexPair@N@@I@CUB_200200_890_NS@cub@@Uidentity_decomposer_t@detail@34@@CUB_200200_890_NS@cub@@QEAA?AW4cudaError@@XZ 00000001800afd80 f i c1_ex_DLModel_28.obj
 0001:000afbb0       ??$InvokePass@U?$PassConfig@P6AXPEBHPEAIIHHU?$GridEvenShare@I@CUB_200200_890_NS@cub@@Uidentity_decomposer_t@detail@23@@ZP6AX1H@ZP6AX0PEAHPEBU?$ValueIndexPair@N@@PEAU6@1IHH23@Z@?$DispatchRadixSort@$0A@HU?$ValueIndexPair@N@@IU?$DeviceRadixSortPolicy@HU?$ValueIndexPair@N@@I@CUB_200200_890_NS@cub@@Uidentity_decomposer_t@detail@34@@CUB_200200_890_NS@cub@@@?$DispatchRadixSort@$0A@HU?$ValueIndexPair@N@@IU?$DeviceRadixSortPolicy@HU?$ValueIndexPair@N@@I@CUB_200200_890_NS@cub@@Uidentity_decomposer_t@detail@34@@CUB_200200_890_NS@cub@@QEAA?AW4cudaError@@PEBHPEAHPEBU?$ValueIndexPair@N@@PEAU4@PEAIHAEAHAEAU?$PassConfig@P6AXPEBHPEAIIHHU?$GridEvenShare@I@CUB_200200_890_NS@cub@@Uidentity_decomposer_t@detail@23@@ZP6AX1H@ZP6AX0PEAHPEBU?$ValueIndexPair@N@@PEAU6@1IHH23@Z@012@@Z 00000001800b0bb0 f i c1_ex_DLModel_28.obj
 0001:000b0150       ??$InvokePasses@UPolicy350@?$DeviceRadixSortPolicy@HU?$ValueIndexPair@N@@I@CUB_200200_890_NS@cub@@P6AXPEBHPEAIIHHU?$GridEvenShare@I@34@Uidentity_decomposer_t@detail@34@@ZP6AX1H@ZP6AX0PEAHPEBU?$ValueIndexPair@N@@PEAU8@1IHH23@Z@?$DispatchRadixSort@$0A@HU?$ValueIndexPair@N@@IU?$DeviceRadixSortPolicy@HU?$ValueIndexPair@N@@I@CUB_200200_890_NS@cub@@Uidentity_decomposer_t@detail@34@@CUB_200200_890_NS@cub@@QEAA?AW4cudaError@@P6AXPEBHPEAIIHHU?$GridEvenShare@I@12@Uidentity_decomposer_t@detail@12@@Z4P6AX1H@ZP6AX0PEAHPEBU?$ValueIndexPair@N@@PEAU7@1IHH23@Z9@Z 00000001800b1150 f i c1_ex_DLModel_28.obj
 0001:000b0970       ??$InvokePasses@UPolicy500@?$DeviceRadixSortPolicy@HU?$ValueIndexPair@N@@I@CUB_200200_890_NS@cub@@P6AXPEBHPEAIIHHU?$GridEvenShare@I@34@Uidentity_decomposer_t@detail@34@@ZP6AX1H@ZP6AX0PEAHPEBU?$ValueIndexPair@N@@PEAU8@1IHH23@Z@?$DispatchRadixSort@$0A@HU?$ValueIndexPair@N@@IU?$DeviceRadixSortPolicy@HU?$ValueIndexPair@N@@I@CUB_200200_890_NS@cub@@Uidentity_decomposer_t@detail@34@@CUB_200200_890_NS@cub@@QEAA?AW4cudaError@@P6AXPEBHPEAIIHHU?$GridEvenShare@I@12@Uidentity_decomposer_t@detail@12@@Z4P6AX1H@ZP6AX0PEAHPEBU?$ValueIndexPair@N@@PEAU7@1IHH23@Z9@Z 00000001800b1970 f i c1_ex_DLModel_28.obj
 0001:000b1190       ??$InvokeSingleTile@UPolicy350@?$DeviceRadixSortPolicy@HU?$ValueIndexPair@N@@I@CUB_200200_890_NS@cub@@P6AXPEBHPEAHPEBU?$ValueIndexPair@N@@PEAU5@IHHUidentity_decomposer_t@detail@34@@Z@?$DispatchRadixSort@$0A@HU?$ValueIndexPair@N@@IU?$DeviceRadixSortPolicy@HU?$ValueIndexPair@N@@I@CUB_200200_890_NS@cub@@Uidentity_decomposer_t@detail@34@@CUB_200200_890_NS@cub@@QEAA?AW4cudaError@@P6AXPEBHPEAHPEBU?$ValueIndexPair@N@@PEAU4@IHHUidentity_decomposer_t@detail@12@@Z@Z 00000001800b2190 f i c1_ex_DLModel_28.obj
 0001:000b1440       ??$InvokeSingleTile@UPolicy500@?$DeviceRadixSortPolicy@HU?$ValueIndexPair@N@@I@CUB_200200_890_NS@cub@@P6AXPEBHPEAHPEBU?$ValueIndexPair@N@@PEAU5@IHHUidentity_decomposer_t@detail@34@@Z@?$DispatchRadixSort@$0A@HU?$ValueIndexPair@N@@IU?$DeviceRadixSortPolicy@HU?$ValueIndexPair@N@@I@CUB_200200_890_NS@cub@@Uidentity_decomposer_t@detail@34@@CUB_200200_890_NS@cub@@QEAA?AW4cudaError@@P6AXPEBHPEAHPEBU?$ValueIndexPair@N@@PEAU4@IHHUidentity_decomposer_t@detail@12@@Z@Z 00000001800b2440 f i c1_ex_DLModel_28.obj
 0001:000b16f0       ??$InvokeSingleTile@UPolicy600@?$DeviceRadixSortPolicy@HU?$ValueIndexPair@N@@I@CUB_200200_890_NS@cub@@P6AXPEBHPEAHPEBU?$ValueIndexPair@N@@PEAU5@IHHUidentity_decomposer_t@detail@34@@Z@?$DispatchRadixSort@$0A@HU?$ValueIndexPair@N@@IU?$DeviceRadixSortPolicy@HU?$ValueIndexPair@N@@I@CUB_200200_890_NS@cub@@Uidentity_decomposer_t@detail@34@@CUB_200200_890_NS@cub@@QEAA?AW4cudaError@@P6AXPEBHPEAHPEBU?$ValueIndexPair@N@@PEAU4@IHHUidentity_decomposer_t@detail@12@@Z@Z 00000001800b26f0 f i c1_ex_DLModel_28.obj
 0001:000b19a0       ??$InvokeSingleTile@UPolicy610@?$DeviceRadixSortPolicy@HU?$ValueIndexPair@N@@I@CUB_200200_890_NS@cub@@P6AXPEBHPEAHPEBU?$ValueIndexPair@N@@PEAU5@IHHUidentity_decomposer_t@detail@34@@Z@?$DispatchRadixSort@$0A@HU?$ValueIndexPair@N@@IU?$DeviceRadixSortPolicy@HU?$ValueIndexPair@N@@I@CUB_200200_890_NS@cub@@Uidentity_decomposer_t@detail@34@@CUB_200200_890_NS@cub@@QEAA?AW4cudaError@@P6AXPEBHPEAHPEBU?$ValueIndexPair@N@@PEAU4@IHHUidentity_decomposer_t@detail@12@@Z@Z 00000001800b29a0 f i c1_ex_DLModel_28.obj
 0001:000b1c50       ??$InvokeSingleTile@UPolicy620@?$DeviceRadixSortPolicy@HU?$ValueIndexPair@N@@I@CUB_200200_890_NS@cub@@P6AXPEBHPEAHPEBU?$ValueIndexPair@N@@PEAU5@IHHUidentity_decomposer_t@detail@34@@Z@?$DispatchRadixSort@$0A@HU?$ValueIndexPair@N@@IU?$DeviceRadixSortPolicy@HU?$ValueIndexPair@N@@I@CUB_200200_890_NS@cub@@Uidentity_decomposer_t@detail@34@@CUB_200200_890_NS@cub@@QEAA?AW4cudaError@@P6AXPEBHPEAHPEBU?$ValueIndexPair@N@@PEAU4@IHHUidentity_decomposer_t@detail@12@@Z@Z 00000001800b2c50 f i c1_ex_DLModel_28.obj
 0001:000b1f00       ??$InvokeSingleTile@UPolicy700@?$DeviceRadixSortPolicy@HU?$ValueIndexPair@N@@I@CUB_200200_890_NS@cub@@P6AXPEBHPEAHPEBU?$ValueIndexPair@N@@PEAU5@IHHUidentity_decomposer_t@detail@34@@Z@?$DispatchRadixSort@$0A@HU?$ValueIndexPair@N@@IU?$DeviceRadixSortPolicy@HU?$ValueIndexPair@N@@I@CUB_200200_890_NS@cub@@Uidentity_decomposer_t@detail@34@@CUB_200200_890_NS@cub@@QEAA?AW4cudaError@@P6AXPEBHPEAHPEBU?$ValueIndexPair@N@@PEAU4@IHHUidentity_decomposer_t@detail@12@@Z@Z 00000001800b2f00 f i c1_ex_DLModel_28.obj
 0001:000b21b0       ??$InvokeSingleTile@UPolicy800@?$DeviceRadixSortPolicy@HU?$ValueIndexPair@N@@I@CUB_200200_890_NS@cub@@P6AXPEBHPEAHPEBU?$ValueIndexPair@N@@PEAU5@IHHUidentity_decomposer_t@detail@34@@Z@?$DispatchRadixSort@$0A@HU?$ValueIndexPair@N@@IU?$DeviceRadixSortPolicy@HU?$ValueIndexPair@N@@I@CUB_200200_890_NS@cub@@Uidentity_decomposer_t@detail@34@@CUB_200200_890_NS@cub@@QEAA?AW4cudaError@@P6AXPEBHPEAHPEBU?$ValueIndexPair@N@@PEAU4@IHHUidentity_decomposer_t@detail@12@@Z@Z 00000001800b31b0 f i c1_ex_DLModel_28.obj
 0001:000b2460       ??$InvokeSingleTile@UPolicy900@?$DeviceRadixSortPolicy@HU?$ValueIndexPair@N@@I@CUB_200200_890_NS@cub@@P6AXPEBHPEAHPEBU?$ValueIndexPair@N@@PEAU5@IHHUidentity_decomposer_t@detail@34@@Z@?$DispatchRadixSort@$0A@HU?$ValueIndexPair@N@@IU?$DeviceRadixSortPolicy@HU?$ValueIndexPair@N@@I@CUB_200200_890_NS@cub@@Uidentity_decomposer_t@detail@34@@CUB_200200_890_NS@cub@@QEAA?AW4cudaError@@P6AXPEBHPEAHPEBU?$ValueIndexPair@N@@PEAU4@IHHUidentity_decomposer_t@detail@12@@Z@Z 00000001800b3460 f i c1_ex_DLModel_28.obj
 0001:000b2710       ??$MaxSmOccupancy@P6AXPEAIH@Z@CUB_200200_890_NS@cub@@YA?AW4cudaError@@AEAHP6AXPEAIH@ZHH@Z 00000001800b3710 f i c1_ex_DLModel_28.obj
 0001:000b2760       ??$MaxSmOccupancy@P6AXPEBHPEAHPEBU?$ValueIndexPair@N@@PEAU1@PEAIIHHU?$GridEvenShare@I@CUB_200200_890_NS@cub@@Uidentity_decomposer_t@detail@34@@Z@CUB_200200_890_NS@cub@@YA?AW4cudaError@@AEAHP6AXPEBHPEAHPEBU?$ValueIndexPair@N@@PEAU3@PEAIIHHU?$GridEvenShare@I@01@Uidentity_decomposer_t@detail@01@@ZHH@Z 00000001800b3760 f i c1_ex_DLModel_28.obj
 0001:000b27b0       ??$MaxSmOccupancy@P6AXPEBHPEAIIHHU?$GridEvenShare@I@CUB_200200_890_NS@cub@@Uidentity_decomposer_t@detail@23@@Z@CUB_200200_890_NS@cub@@YA?AW4cudaError@@AEAHP6AXPEBHPEAIIHHU?$GridEvenShare@I@01@Uidentity_decomposer_t@detail@01@@ZHH@Z 00000001800b37b0 f i c1_ex_DLModel_28.obj
 0001:000b2800       ??$SortPairs@HU?$ValueIndexPair@N@@H@DeviceRadixSort@CUB_200200_890_NS@cub@@SA?AW4cudaError@@PEAXAEA_KAEAU?$DoubleBuffer@H@12@AEAU?$DoubleBuffer@U?$ValueIndexPair@N@@@12@HHHPEAUCUstream_st@@@Z 00000001800b3800 f i c1_ex_DLModel_28.obj
 0001:000b2890       ??$SortPairs@PEANPEANHU?$customGreater@N@@@DeviceMergeSort@CUB_200200_890_NS@cub@@SA?AW4cudaError@@PEAXAEA_KPEAN2HU?$customGreater@N@@PEAUCUstream_st@@@Z 00000001800b3890 f i c1_ex_DLModel_28.obj
 0001:000b2900       ??$SortPairs@PEANPEANHU?$customLesser@N@@@DeviceMergeSort@CUB_200200_890_NS@cub@@SA?AW4cudaError@@PEAXAEA_KPEAN2HU?$customLesser@N@@PEAUCUstream_st@@@Z 00000001800b3900 f i c1_ex_DLModel_28.obj
 0001:000b2970       ??$SortPairs@PEANV?$zip_iterator@V?$tuple@PEAHPEANUnull_type@thrust@@U12@U12@U12@U12@U12@U12@U12@@thrust@@@thrust@@HU?$customGreater@N@@@DeviceMergeSort@CUB_200200_890_NS@cub@@SA?AW4cudaError@@PEAXAEA_KPEANV?$zip_iterator@V?$tuple@PEAHPEANUnull_type@thrust@@U12@U12@U12@U12@U12@U12@U12@@thrust@@@thrust@@HU?$customGreater@N@@PEAUCUstream_st@@@Z 00000001800b3970 f i c1_ex_DLModel_28.obj
 0001:000b2a20       ??$SortPairs@PEANV?$zip_iterator@V?$tuple@PEAHPEANUnull_type@thrust@@U12@U12@U12@U12@U12@U12@U12@@thrust@@@thrust@@HU?$customLesser@N@@@DeviceMergeSort@CUB_200200_890_NS@cub@@SA?AW4cudaError@@PEAXAEA_KPEANV?$zip_iterator@V?$tuple@PEAHPEANUnull_type@thrust@@U12@U12@U12@U12@U12@U12@U12@@thrust@@@thrust@@HU?$customLesser@N@@PEAUCUstream_st@@@Z 00000001800b3a20 f i c1_ex_DLModel_28.obj
 0001:000b2ad0       ??$StableSortPairs@PEANPEANHU?$customGreater@N@@@DeviceMergeSort@CUB_200200_890_NS@cub@@SA?AW4cudaError@@PEAXAEA_KPEAN2HU?$customGreater@N@@PEAUCUstream_st@@@Z 00000001800b3ad0 f i c1_ex_DLModel_28.obj
 0001:000b2b30       ??$StableSortPairs@PEANPEANHU?$customLesser@N@@@DeviceMergeSort@CUB_200200_890_NS@cub@@SA?AW4cudaError@@PEAXAEA_KPEAN2HU?$customLesser@N@@PEAUCUstream_st@@@Z 00000001800b3b30 f i c1_ex_DLModel_28.obj
 0001:000b2b90       ??$StableSortPairs@PEANV?$zip_iterator@V?$tuple@PEAHPEANUnull_type@thrust@@U12@U12@U12@U12@U12@U12@U12@@thrust@@@thrust@@HU?$customGreater@N@@@DeviceMergeSort@CUB_200200_890_NS@cub@@SA?AW4cudaError@@PEAXAEA_KPEANV?$zip_iterator@V?$tuple@PEAHPEANUnull_type@thrust@@U12@U12@U12@U12@U12@U12@U12@@thrust@@@thrust@@HU?$customGreater@N@@PEAUCUstream_st@@@Z 00000001800b3b90 f i c1_ex_DLModel_28.obj
 0001:000b2c10       ??$StableSortPairs@PEANV?$zip_iterator@V?$tuple@PEAHPEANUnull_type@thrust@@U12@U12@U12@U12@U12@U12@U12@@thrust@@@thrust@@HU?$customLesser@N@@@DeviceMergeSort@CUB_200200_890_NS@cub@@SA?AW4cudaError@@PEAXAEA_KPEANV?$zip_iterator@V?$tuple@PEAHPEANUnull_type@thrust@@U12@U12@U12@U12@U12@U12@U12@@thrust@@@thrust@@HU?$customLesser@N@@PEAUCUstream_st@@@Z 00000001800b3c10 f i c1_ex_DLModel_28.obj
 0001:000b2c90       ??$_Allocate@$0BA@U_Default_allocate_traits@std@@$0A@@std@@YAPEAX_K@Z 00000001800b3c90 f i c1_ex_DLModel_28.obj
 0001:000b2cd0       ??$_Allocate_manually_vector_aligned@U_Default_allocate_traits@std@@@std@@YAPEAX_K@Z 00000001800b3cd0 f i c1_ex_DLModel_28.obj
 0001:000b2d60       ??$_Atomic_address_as@HU?$_Atomic_padded@W4DeviceEntryStatus@PerDeviceAttributeCache@CUB_200200_890_NS@cub@@@std@@@std@@YAPECHAEAU?$_Atomic_padded@W4DeviceEntryStatus@PerDeviceAttributeCache@CUB_200200_890_NS@cub@@@0@@Z 00000001800b3d60 f i c1_ex_DLModel_28.obj
 0001:000b2d70       ??$_Atomic_address_as@HU?$_Atomic_padded@W4DeviceEntryStatus@PerDeviceAttributeCache@CUB_200200_890_NS@cub@@@std@@@std@@YAPEDHAEBU?$_Atomic_padded@W4DeviceEntryStatus@PerDeviceAttributeCache@CUB_200200_890_NS@cub@@@0@@Z 00000001800b3d70 f i c1_ex_DLModel_28.obj
 0001:000b2d80       ??$_Atomic_address_as@JU?$_Atomic_padded@W4DeviceEntryStatus@PerDeviceAttributeCache@CUB_200200_890_NS@cub@@@std@@@std@@YAPECJAEAU?$_Atomic_padded@W4DeviceEntryStatus@PerDeviceAttributeCache@CUB_200200_890_NS@cub@@@0@@Z 00000001800b3d80 f i c1_ex_DLModel_28.obj
 0001:000b2d90       ??$_Atomic_reinterpret_as@HW4DeviceEntryStatus@PerDeviceAttributeCache@CUB_200200_890_NS@cub@@@std@@YAHAEBW4DeviceEntryStatus@PerDeviceAttributeCache@CUB_200200_890_NS@cub@@@Z 00000001800b3d90 f i c1_ex_DLModel_28.obj
 0001:000b2dd0       ??$_Atomic_reinterpret_as@JW4DeviceEntryStatus@PerDeviceAttributeCache@CUB_200200_890_NS@cub@@@std@@YAJAEBW4DeviceEntryStatus@PerDeviceAttributeCache@CUB_200200_890_NS@cub@@@Z 00000001800b3dd0 f i c1_ex_DLModel_28.obj
 0001:000b2e10       ??$_Construct_in_place@PEADAEAPEAD@std@@YAXAEAPEAD0@Z 00000001800b3e10 f i c1_ex_DLModel_28.obj
 0001:000b2e60       ??$_Construct_in_place@PEADAEBQEAD@std@@YAXAEAPEADAEBQEAD@Z 00000001800b3e60 f i c1_ex_DLModel_28.obj
 0001:000b2eb0       ??$_Construct_in_place@PEAU?$_Tree_node@U?$pair@$$CBHH@std@@PEAX@std@@AEAPEAU12@@std@@YAXAEAPEAU?$_Tree_node@U?$pair@$$CBHH@std@@PEAX@0@0@Z 00000001800b3eb0 f i c1_ex_DLModel_28.obj
 0001:000b2f00       ??$_Convert_size@_K@std@@YA_K_K@Z 00000001800b3f00 f i c1_ex_DLModel_28.obj
 0001:000b2f10       ??$_Deallocate@$0BA@$0A@@std@@YAXPEAX_K@Z 00000001800b3f10 f i c1_ex_DLModel_28.obj
 0001:000b2f50       ??$_Destroy_in_place@PEAD@std@@YAXAEAPEAD@Z 00000001800b3f50 f i c1_ex_DLModel_28.obj
 0001:000b2f60       ??$_Destroy_in_place@PEAU?$_Tree_node@U?$pair@$$CBHH@std@@PEAX@std@@@std@@YAXAEAPEAU?$_Tree_node@U?$pair@$$CBHH@std@@PEAX@0@@Z 00000001800b3f60 f i c1_ex_DLModel_28.obj
 0001:000b2f70       ??$_Find@H@?$_Tree@V?$_Tmap_traits@HHU?$less@H@std@@V?$allocator@U?$pair@$$CBHH@std@@@2@$0A@@std@@@std@@AEBAPEAU?$_Tree_node@U?$pair@$$CBHH@std@@PEAX@1@AEBH@Z 00000001800b3f70 f i c1_ex_DLModel_28.obj
 0001:000b2fd0       ??$_Find_lower_bound@H@?$_Tree@V?$_Tmap_traits@HHU?$less@H@std@@V?$allocator@U?$pair@$$CBHH@std@@@2@$0A@@std@@@std@@IEBA?AU?$_Tree_find_result@PEAU?$_Tree_node@U?$pair@$$CBHH@std@@PEAX@std@@@1@AEBH@Z 00000001800b3fd0 f i c1_ex_DLModel_28.obj
 0001:000b30e0       ??$_Get_size_of_n@$00@std@@YA_K_K@Z 00000001800b40e0 f i c1_ex_DLModel_28.obj
 0001:000b3100       ??$_Get_size_of_n@$0CI@@std@@YA_K_K@Z 00000001800b4100 f i c1_ex_DLModel_28.obj
 0001:000b3140       ??$_Kfn@$$CBHH@?$_Tmap_traits@HHU?$less@H@std@@V?$allocator@U?$pair@$$CBHH@std@@@2@$0A@@std@@SAAEBHAEBU?$pair@$$CBHH@1@@Z 00000001800b4140 f i c1_ex_DLModel_28.obj
 0001:000b3150       ??$_Lower_bound_duplicate@H@?$_Tree@V?$_Tmap_traits@HHU?$less@H@std@@V?$allocator@U?$pair@$$CBHH@std@@@2@$0A@@std@@@std@@IEBA_NQEAU?$_Tree_node@U?$pair@$$CBHH@std@@PEAX@1@AEBH@Z 00000001800b4150 f i c1_ex_DLModel_28.obj
 0001:000b31d0       ??$_Reallocate_for@V<lambda_66f57f934f28d61049862f64df852ff0>@@PEBD@?$basic_string@DU?$char_traits@D@std@@V?$allocator@D@2@@std@@AEAAAEAV01@_KV<lambda_66f57f934f28d61049862f64df852ff0>@@PEBD@Z 00000001800b41d0 f i c1_ex_DLModel_28.obj
 0001:000b32f0       ??$_Reallocate_grow_by@V<lambda_65e615be2a453ca0576c979606f46740>@@PEBD_K@?$basic_string@DU?$char_traits@D@std@@V?$allocator@D@2@@std@@AEAAAEAV01@_KV<lambda_65e615be2a453ca0576c979606f46740>@@PEBD_K@Z 00000001800b42f0 f i c1_ex_DLModel_28.obj
 0001:000b34c0       ??$_Try_emplace@AEBH$$V@?$map@HHU?$less@H@std@@V?$allocator@U?$pair@$$CBHH@std@@@2@@std@@AEAA?AU?$pair@PEAU?$_Tree_node@U?$pair@$$CBHH@std@@PEAX@std@@_N@1@AEBH@Z 00000001800b44c0 f i c1_ex_DLModel_28.obj
 0001:000b3660       ??$_Tuple_get@$0A@AEBH@std@@YA$$QEA_P$$QEAV?$tuple@AEBH@0@@Z 00000001800b4660 f i c1_ex_DLModel_28.obj
 0001:000b3670       ??$_Unfancy@D@std@@YAPEADPEAD@Z 00000001800b4670 f i c1_ex_DLModel_28.obj
 0001:000b3680       ??$_Voidify_iter@PEAPEAD@std@@YAPEAXPEAPEAD@Z 00000001800b4680 f i c1_ex_DLModel_28.obj
 0001:000b3690       ??$_Voidify_iter@PEAPEAU?$_Tree_node@U?$pair@$$CBHH@std@@PEAX@std@@@std@@YAPEAXPEAPEAU?$_Tree_node@U?$pair@$$CBHH@std@@PEAX@0@@Z 00000001800b4690 f i c1_ex_DLModel_28.obj
 0001:000b36a0       ??$_Voidify_iter@PEAU?$pair@$$CBHH@std@@@std@@YAPEAXPEAU?$pair@$$CBHH@0@@Z 00000001800b46a0 f i c1_ex_DLModel_28.obj
 0001:000b36b0       ??$_kernel_agent@U?$ParallelForAgent@U?$functor@PEANH@__fill@cuda_cub@thrust@@_J@__parallel_for@cuda_cub@thrust@@U?$functor@PEANH@__fill@34@_J@core@cuda_cub@thrust@@YAXU?$functor@PEANH@__fill@12@_J@Z 00000001800b46b0 f i c1_ex_DLModel_28.obj
 0001:000b36e0       ??$addressof@$$CBV?$_String_val@U?$_Simple_types@D@std@@@std@@@std@@YAPEBV?$_String_val@U?$_Simple_types@D@std@@@0@AEBV10@@Z 00000001800b46e0 f i c1_ex_DLModel_28.obj
 0001:000b36f0       ??$addressof@$$CBV?$_Tree_val@U?$_Tree_simple_types@U?$pair@$$CBHH@std@@@std@@@std@@@std@@YAPEBV?$_Tree_val@U?$_Tree_simple_types@U?$pair@$$CBHH@std@@@std@@@0@AEBV10@@Z 00000001800b46f0 f i c1_ex_DLModel_28.obj
 0001:000b3700       ??$addressof@$$CBV?$_Tree_val@U?$_Tree_simple_types@U?$pair@$$CBHPEAVMWTensorBase@@@std@@@std@@@std@@@std@@YAPEBV?$_Tree_val@U?$_Tree_simple_types@U?$pair@$$CBHPEAVMWTensorBase@@@std@@@std@@@0@AEBV10@@Z 00000001800b4700 f i c1_ex_DLModel_28.obj
 0001:000b3710       ??$addressof@$$CBW4DeviceEntryStatus@PerDeviceAttributeCache@CUB_200200_890_NS@cub@@@std@@YAPEBW4DeviceEntryStatus@PerDeviceAttributeCache@CUB_200200_890_NS@cub@@AEBW41234@@Z 00000001800b4710 f i c1_ex_DLModel_28.obj
 0001:000b3720       ??$addressof@PEAD@std@@YAPEAPEADAEAPEAD@Z 00000001800b4720 f i c1_ex_DLModel_28.obj
 0001:000b3730       ??$addressof@PEAU?$_Tree_node@U?$pair@$$CBHH@std@@PEAX@std@@@std@@YAPEAPEAU?$_Tree_node@U?$pair@$$CBHH@std@@PEAX@0@AEAPEAU10@@Z 00000001800b4730 f i c1_ex_DLModel_28.obj
 0001:000b3740       ??$addressof@U?$pair@$$CBHH@std@@@std@@YAPEAU?$pair@$$CBHH@0@AEAU10@@Z 00000001800b4740 f i c1_ex_DLModel_28.obj
 0001:000b3750       ??$addressof@V?$_String_val@U?$_Simple_types@D@std@@@std@@@std@@YAPEAV?$_String_val@U?$_Simple_types@D@std@@@0@AEAV10@@Z 00000001800b4750 f i c1_ex_DLModel_28.obj
 0001:000b3760       ??$addressof@V?$_Tree_val@U?$_Tree_simple_types@U?$pair@$$CBHH@std@@@std@@@std@@@std@@YAPEAV?$_Tree_val@U?$_Tree_simple_types@U?$pair@$$CBHH@std@@@std@@@0@AEAV10@@Z 00000001800b4760 f i c1_ex_DLModel_28.obj
 0001:000b3770       ??$addressof@W4DeviceEntryStatus@PerDeviceAttributeCache@CUB_200200_890_NS@cub@@@std@@YAPEAW4DeviceEntryStatus@PerDeviceAttributeCache@CUB_200200_890_NS@cub@@AEAW41234@@Z 00000001800b4770 f i c1_ex_DLModel_28.obj
 0001:000b3780       ??$clz@H@detail@thrust@@YAHH@Z 00000001800b4780 f i c1_ex_DLModel_28.obj
 0001:000b3800       ??$construct@U?$pair@$$CBHH@std@@AEBUpiecewise_construct_t@2@V?$tuple@AEBH@2@V?$tuple@$$V@2@@?$_Default_allocator_traits@V?$allocator@U?$_Tree_node@U?$pair@$$CBHH@std@@PEAX@std@@@std@@@std@@SAXAEAV?$allocator@U?$_Tree_node@U?$pair@$$CBHH@std@@PEAX@std@@@1@QEAU?$pair@$$CBHH@1@AEBUpiecewise_construct_t@1@$$QEAV?$tuple@AEBH@1@$$QEAV?$tuple@$$V@1@@Z 00000001800b4800 f i c1_ex_DLModel_28.obj
 0001:000b38c0       ??$cudaFuncGetAttributes@X@@YA?AW4cudaError@@PEAUcudaFuncAttributes@@PEAX@Z 00000001800b48c0 f i c1_ex_DLModel_28.obj
 0001:000b38f0       ??$cudaMalloc@$$BY03I@@YA?AW4cudaError@@PEAPEAY03I_K@Z 00000001800b48f0 f i c1_ex_DLModel_28.obj
 0001:000b3920       ??$cudaMalloc@$$BY03M@@YA?AW4cudaError@@PEAPEAY03M_K@Z 00000001800b4920 f i c1_ex_DLModel_28.obj
 0001:000b3950       ??$cudaMalloc@$$BY0BA@M@@YA?AW4cudaError@@PEAPEAY0BA@M_K@Z 00000001800b4950 f i c1_ex_DLModel_28.obj
 0001:000b3980       ??$cudaMalloc@$$BY0BCMA@N@@YA?AW4cudaError@@PEAPEAY0BCMA@N_K@Z 00000001800b4980 f i c1_ex_DLModel_28.obj
 0001:000b39b0       ??$cudaMalloc@$$BY0BCMAA@M@@YA?AW4cudaError@@PEAPEAY0BCMAA@M_K@Z 00000001800b49b0 f i c1_ex_DLModel_28.obj
 0001:000b39e0       ??$cudaMalloc@$$BY0BIJM@C@@YA?AW4cudaError@@PEAPEAY0BIJM@C_K@Z 00000001800b49e0 f i c1_ex_DLModel_28.obj
 0001:000b3a10       ??$cudaMalloc@$$BY0BIJM@F@@YA?AW4cudaError@@PEAPEAY0BIJM@F_K@Z 00000001800b4a10 f i c1_ex_DLModel_28.obj
 0001:000b3a40       ??$cudaMalloc@$$BY0BIJM@H@@YA?AW4cudaError@@PEAPEAY0BIJM@H_K@Z 00000001800b4a40 f i c1_ex_DLModel_28.obj
 0001:000b3a70       ??$cudaMalloc@$$BY0BIJM@M@@YA?AW4cudaError@@PEAPEAY0BIJM@M_K@Z 00000001800b4a70 f i c1_ex_DLModel_28.obj
 0001:000b3aa0       ??$cudaMalloc@$$BY0BIJM@N@@YA?AW4cudaError@@PEAPEAY0BIJM@N_K@Z 00000001800b4aa0 f i c1_ex_DLModel_28.obj
 0001:000b3ad0       ??$cudaMalloc@$$BY0BO@C@@YA?AW4cudaError@@PEAPEAY0BO@C_K@Z 00000001800b4ad0 f i c1_ex_DLModel_28.obj
 0001:000b3b00       ??$cudaMalloc@$$BY0BOA@N@@YA?AW4cudaError@@PEAPEAY0BOA@N_K@Z 00000001800b4b00 f i c1_ex_DLModel_28.obj
 0001:000b3b30       ??$cudaMalloc@$$BY0CFIAA@M@@YA?AW4cudaError@@PEAPEAY0CFIAA@M_K@Z 00000001800b4b30 f i c1_ex_DLModel_28.obj
 0001:000b3b60       ??$cudaMalloc@$$BY0CI@C@@YA?AW4cudaError@@PEAPEAY0CI@C_K@Z 00000001800b4b60 f i c1_ex_DLModel_28.obj
 0001:000b3b90       ??$cudaMalloc@$$BY0CIA@N@@YA?AW4cudaError@@PEAPEAY0CIA@N_K@Z 00000001800b4b90 f i c1_ex_DLModel_28.obj
 0001:000b3bc0       ??$cudaMalloc@$$BY0CKDAA@M@@YA?AW4cudaError@@PEAPEAY0CKDAA@M_K@Z 00000001800b4bc0 f i c1_ex_DLModel_28.obj
 0001:000b3bf0       ??$cudaMalloc@$$BY0DBDI@M@@YA?AW4cudaError@@PEAPEAY0DBDI@M_K@Z 00000001800b4bf0 f i c1_ex_DLModel_28.obj
 0001:000b3c20       ??$cudaMalloc@$$BY0DBDI@N@@YA?AW4cudaError@@PEAPEAY0DBDI@N_K@Z 00000001800b4c20 f i c1_ex_DLModel_28.obj
 0001:000b3c50       ??$cudaMalloc@$$BY0DIEAA@M@@YA?AW4cudaError@@PEAPEAY0DIEAA@M_K@Z 00000001800b4c50 f i c1_ex_DLModel_28.obj
 0001:000b3c80       ??$cudaMalloc@$$BY0DM@C@@YA?AW4cudaError@@PEAPEAY0DM@C_K@Z 00000001800b4c80 f i c1_ex_DLModel_28.obj
 0001:000b3cb0       ??$cudaMalloc@$$BY0DMA@C@@YA?AW4cudaError@@PEAPEAY0DMA@C_K@Z 00000001800b4cb0 f i c1_ex_DLModel_28.obj
 0001:000b3ce0       ??$cudaMalloc@$$BY0DMA@F@@YA?AW4cudaError@@PEAPEAY0DMA@F_K@Z 00000001800b4ce0 f i c1_ex_DLModel_28.obj
 0001:000b3d10       ??$cudaMalloc@$$BY0FA@C@@YA?AW4cudaError@@PEAPEAY0FA@C_K@Z 00000001800b4d10 f i c1_ex_DLModel_28.obj
 0001:000b3d40       ??$cudaMalloc@$$BY0FA@N@@YA?AW4cudaError@@PEAPEAY0FA@N_K@Z 00000001800b4d40 f i c1_ex_DLModel_28.obj
 0001:000b3d70       ??$cudaMalloc@$$BY0FAA@C@@YA?AW4cudaError@@PEAPEAY0FAA@C_K@Z 00000001800b4d70 f i c1_ex_DLModel_28.obj
 0001:000b3da0       ??$cudaMalloc@$$BY0FAA@F@@YA?AW4cudaError@@PEAPEAY0FAA@F_K@Z 00000001800b4da0 f i c1_ex_DLModel_28.obj
 0001:000b3dd0       ??$cudaMalloc@$$BY0GCHA@M@@YA?AW4cudaError@@PEAPEAY0GCHA@M_K@Z 00000001800b4dd0 f i c1_ex_DLModel_28.obj
 0001:000b3e00       ??$cudaMalloc@$$BY0GCHAA@M@@YA?AW4cudaError@@PEAPEAY0GCHAA@M_K@Z 00000001800b4e00 f i c1_ex_DLModel_28.obj
 0001:000b3e30       ??$cudaMalloc@$$BY0HAIAA@M@@YA?AW4cudaError@@PEAPEAY0HAIAA@M_K@Z 00000001800b4e30 f i c1_ex_DLModel_28.obj
 0001:000b3e60       ??$cudaMalloc@$$BY0HLAMA@M@@YA?AW4cudaError@@PEAPEAY0HLAMA@M_K@Z 00000001800b4e60 f i c1_ex_DLModel_28.obj
 0001:000b3e90       ??$cudaMalloc@$$BY0IBDDA@M@@YA?AW4cudaError@@PEAPEAY0IBDDA@M_K@Z 00000001800b4e90 f i c1_ex_DLModel_28.obj
 0001:000b3ec0       ??$cudaMalloc@$$BY0KIMA@M@@YA?AW4cudaError@@PEAPEAY0KIMA@M_K@Z 00000001800b4ec0 f i c1_ex_DLModel_28.obj
 0001:000b3ef0       ??$cudaMalloc@$$BY0KIMAA@M@@YA?AW4cudaError@@PEAPEAY0KIMAA@M_K@Z 00000001800b4ef0 f i c1_ex_DLModel_28.obj
 0001:000b3f20       ??$cudaMalloc@$$BY0NNHMA@M@@YA?AW4cudaError@@PEAPEAY0NNHMA@M_K@Z 00000001800b4f20 f i c1_ex_DLModel_28.obj
 0001:000b3f50       ??$cudaMalloc@$$BY0OBAAA@E@@YA?AW4cudaError@@PEAPEAY0OBAAA@E_K@Z 00000001800b4f50 f i c1_ex_DLModel_28.obj
 0001:000b3f80       ??$cudaMalloc@$$BY0OBAAA@M@@YA?AW4cudaError@@PEAPEAY0OBAAA@M_K@Z 00000001800b4f80 f i c1_ex_DLModel_28.obj
 0001:000b3fb0       ??$cudaMalloc@H@@YA?AW4cudaError@@PEAPEAH_K@Z 00000001800b4fb0 f i c1_ex_DLModel_28.obj
 0001:000b3fe0       ??$cudaMalloc@M@@YA?AW4cudaError@@PEAPEAM_K@Z 00000001800b4fe0 f i c1_ex_DLModel_28.obj
 0001:000b4010       ??$cudaMalloc@N@@YA?AW4cudaError@@PEAPEAN_K@Z 00000001800b5010 f i c1_ex_DLModel_28.obj
 0001:000b4040       ??$cudaMalloc@U?$ValueIndexPair@N@@@@YA?AW4cudaError@@PEAPEAU?$ValueIndexPair@N@@_K@Z 00000001800b5040 f i c1_ex_DLModel_28.obj
 0001:000b4070       ??$cudaOccupancyMaxActiveBlocksPerMultiprocessor@P6AXPEAIH@Z@@YA?AW4cudaError@@PEAHP6AXPEAIH@ZH_K@Z 00000001800b5070 f i c1_ex_DLModel_28.obj
 0001:000b40b0       ??$cudaOccupancyMaxActiveBlocksPerMultiprocessor@P6AXPEAIPEBHIHHUidentity_decomposer_t@detail@CUB_200200_890_NS@cub@@@Z@@YA?AW4cudaError@@PEAHP6AXPEAIPEBHIHHUidentity_decomposer_t@detail@CUB_200200_890_NS@cub@@@ZH_K@Z 00000001800b50b0 f i c1_ex_DLModel_28.obj
 0001:000b40f0       ??$cudaOccupancyMaxActiveBlocksPerMultiprocessor@P6AXPEBHPEAHPEBU?$ValueIndexPair@N@@PEAU1@PEAIIHHU?$GridEvenShare@I@CUB_200200_890_NS@cub@@Uidentity_decomposer_t@detail@34@@Z@@YA?AW4cudaError@@PEAHP6AXPEBH0PEBU?$ValueIndexPair@N@@PEAU1@PEAIIHHU?$GridEvenShare@I@CUB_200200_890_NS@cub@@Uidentity_decomposer_t@detail@34@@ZH_K@Z 00000001800b50f0 f i c1_ex_DLModel_28.obj
 0001:000b4130       ??$cudaOccupancyMaxActiveBlocksPerMultiprocessor@P6AXPEBHPEAIIHHU?$GridEvenShare@I@CUB_200200_890_NS@cub@@Uidentity_decomposer_t@detail@23@@Z@@YA?AW4cudaError@@PEAHP6AXPEBHPEAIIHHU?$GridEvenShare@I@CUB_200200_890_NS@cub@@Uidentity_decomposer_t@detail@23@@ZH_K@Z 00000001800b5130 f i c1_ex_DLModel_28.obj
 0001:000b4170       ??$derived_cast@Upar_t@cuda_cub@thrust@@@detail@thrust@@YAAEAUpar_t@cuda_cub@1@AEAU?$execution_policy_base@Upar_t@cuda_cub@thrust@@@01@@Z 00000001800b5170 f i c1_ex_DLModel_28.obj
 0001:000b4180       ??$destroy@U?$pair@$$CBHH@std@@@?$_Default_allocator_traits@V?$allocator@U?$_Tree_node@U?$pair@$$CBHH@std@@PEAX@std@@@std@@@std@@SAXAEAV?$allocator@U?$_Tree_node@U?$pair@$$CBHH@std@@PEAX@std@@@1@QEAU?$pair@$$CBHH@1@@Z 00000001800b5180 f i c1_ex_DLModel_28.obj
 0001:000b4190       ??$distance@PEAN@detail@generic@0system@thrust@@YA_JPEAN0Urandom_access_traversal_tag@3@@Z 00000001800b5190 f i c1_ex_DLModel_28.obj
 0001:000b41c0       ??$distance@PEAN@generic@detail@system@thrust@@YA_JPEAN0@Z 00000001800b51c0 f i c1_ex_DLModel_28.obj
 0001:000b41f0       ??$distance@PEAN@thrust@@YA_JPEAN0@Z 00000001800b51f0 f i c1_ex_DLModel_28.obj
 0001:000b4220       ??$doit@P6AXPEAH0PEAIPEBI0PEBHPEAU?$ValueIndexPair@N@@PEBU1@HHHUidentity_decomposer_t@detail@CUB_200200_890_NS@cub@@@ZPEAHPEAHPEAIPEAIPEAHPEAHPEAU1@PEAU1@HHHU2345@@triple_chevron@launcher@cuda_cub@thrust@@QEBA?AW4cudaError@@P6AXPEAH0PEAIPEBI0PEBHPEAU?$ValueIndexPair@N@@PEBU5@HHHUidentity_decomposer_t@detail@CUB_200200_890_NS@cub@@@ZAEBQEAH8AEBQEAI988AEBQEAU5@AEBQEAU5@AEBHAEBHAEBHAEBU6789@@Z 00000001800b5220 f i c1_ex_DLModel_28.obj
 0001:000b42f0       ??$doit@P6AXPEAI@ZPEAI@triple_chevron@launcher@cuda_cub@thrust@@QEBA?AW4cudaError@@P6AXPEAI@ZAEBQEAI@Z 00000001800b52f0 f i c1_ex_DLModel_28.obj
 0001:000b4320       ??$doit@P6AXPEAIH@ZPEAIH@triple_chevron@launcher@cuda_cub@thrust@@QEBA?AW4cudaError@@P6AXPEAIH@ZAEBQEAIAEBH@Z 00000001800b5320 f i c1_ex_DLModel_28.obj
 0001:000b4360       ??$doit@P6AXPEAIPEBHIHHUidentity_decomposer_t@detail@CUB_200200_890_NS@cub@@@ZPEAIPEAHIHHU1234@@triple_chevron@launcher@cuda_cub@thrust@@QEBA?AW4cudaError@@P6AXPEAIPEBHIHHUidentity_decomposer_t@detail@CUB_200200_890_NS@cub@@@ZAEBQEAIAEBQEAHAEBIAEBH7AEBU5678@@Z 00000001800b5360 f i c1_ex_DLModel_28.obj
 0001:000b43d0       ??$doit@P6AXPEBHPEAHPEBU?$ValueIndexPair@N@@PEAU1@IHHUidentity_decomposer_t@detail@CUB_200200_890_NS@cub@@@ZPEAHPEAHPEAU1@PEAU1@IHHU2345@@triple_chevron@launcher@cuda_cub@thrust@@QEBA?AW4cudaError@@P6AXPEBHPEAHPEBU?$ValueIndexPair@N@@PEAU5@IHHUidentity_decomposer_t@detail@CUB_200200_890_NS@cub@@@ZAEBQEAH6AEBQEAU5@7AEBIAEBH9AEBU6789@@Z 00000001800b53d0 f i c1_ex_DLModel_28.obj
 0001:000b4460       ??$doit@P6AXPEBHPEAHPEBU?$ValueIndexPair@N@@PEAU1@PEAIIHHU?$GridEvenShare@I@CUB_200200_890_NS@cub@@Uidentity_decomposer_t@detail@34@@ZPEBHPEAHPEBU1@PEAU1@PEAIIHHU234@U5634@@triple_chevron@launcher@cuda_cub@thrust@@QEBA?AW4cudaError@@P6AXPEBHPEAHPEBU?$ValueIndexPair@N@@PEAU5@PEAIIHHU?$GridEvenShare@I@CUB_200200_890_NS@cub@@Uidentity_decomposer_t@detail@78@@ZAEBQEBHAEBQEAHAEBQEBU5@AEBQEAU5@AEBQEAIAEBIAEBHAEBHAEBU678@AEBU9detail@78@@Z 00000001800b5460 f i c1_ex_DLModel_28.obj
 0001:000b4510       ??$doit@P6AXPEBHPEAIIHHU?$GridEvenShare@I@CUB_200200_890_NS@cub@@Uidentity_decomposer_t@detail@23@@ZPEBHPEAIIHHU123@U4523@@triple_chevron@launcher@cuda_cub@thrust@@QEBA?AW4cudaError@@P6AXPEBHPEAIIHHU?$GridEvenShare@I@CUB_200200_890_NS@cub@@Uidentity_decomposer_t@detail@67@@ZAEBQEBHAEBQEAIAEBIAEBH8AEBU567@AEBU8967@@Z 00000001800b5510 f i c1_ex_DLModel_28.obj
 0001:000b4590       ??$doit@P6AXU?$functor@PEANH@__fill@cuda_cub@thrust@@_J@ZU1234@_J@triple_chevron@launcher@cuda_cub@thrust@@QEBA?AW4cudaError@@P6AXU?$functor@PEANH@__fill@23@_J@ZAEBU5623@AEB_J@Z 00000001800b5590 f i c1_ex_DLModel_28.obj
 0001:000b45d0       ??$doit@P6AXU?$functor@PEANU?$compute_sequence_value@HX@detail@generic@2system@thrust@@_J@__tabulate@cuda_cub@thrust@@_J@ZU1234@_J@triple_chevron@launcher@cuda_cub@thrust@@QEBA?AW4cudaError@@P6AXU?$functor@PEANU?$compute_sequence_value@HX@detail@generic@2system@thrust@@_J@__tabulate@23@_J@ZAEBU5623@AEB_J@Z 00000001800b55d0 f i c1_ex_DLModel_28.obj
 0001:000b4610       ??$doit@P6AX_NPEAN111H11U?$customGreater@N@@PEAD@Z_NPEANPEANPEANPEANHPEANPEANU1@PEAD@triple_chevron@launcher@cuda_cub@thrust@@QEBA?AW4cudaError@@P6AX_NPEAN111H11U?$customGreater@N@@PEAD@ZAEB_NAEBQEAN666AEBH66AEBU5@AEBQEAD@Z 00000001800b5610 f i c1_ex_DLModel_28.obj
 0001:000b46c0       ??$doit@P6AX_NPEAN111H11U?$customLesser@N@@PEAD@Z_NPEANPEANPEANPEANHPEANPEANU1@PEAD@triple_chevron@launcher@cuda_cub@thrust@@QEBA?AW4cudaError@@P6AX_NPEAN111H11U?$customLesser@N@@PEAD@ZAEB_NAEBQEAN666AEBH66AEBU5@AEBQEAD@Z 00000001800b56c0 f i c1_ex_DLModel_28.obj
 0001:000b4770       ??$doit@P6AX_NPEAN1H11U?$customGreater@N@@PEAHHPEAD@Z_NPEANPEANHPEANPEANU1@PEAHHPEAD@triple_chevron@launcher@cuda_cub@thrust@@QEBA?AW4cudaError@@P6AX_NPEAN1H11U?$customGreater@N@@PEAHHPEAD@ZAEB_NAEBQEAN7AEBH77AEBU5@AEBQEAH8AEBQEAD@Z 00000001800b5770 f i c1_ex_DLModel_28.obj
 0001:000b4820       ??$doit@P6AX_NPEAN1H11U?$customLesser@N@@PEAHHPEAD@Z_NPEANPEANHPEANPEANU1@PEAHHPEAD@triple_chevron@launcher@cuda_cub@thrust@@QEBA?AW4cudaError@@P6AX_NPEAN1H11U?$customLesser@N@@PEAHHPEAD@ZAEB_NAEBQEAN7AEBH77AEBU5@AEBQEAH8AEBQEAD@Z 00000001800b5820 f i c1_ex_DLModel_28.obj
 0001:000b48d0       ??$doit@P6AX_NPEAN1HHPEAHU?$customGreater@N@@HH@Z_NPEANPEANHHPEAHU1@HH@triple_chevron@launcher@cuda_cub@thrust@@QEBA?AW4cudaError@@P6AX_NPEAN1HHPEAHU?$customGreater@N@@HH@ZAEB_NAEBQEAN6AEBH7AEBQEAHAEBU5@77@Z 00000001800b58d0 f i c1_ex_DLModel_28.obj
 0001:000b4970       ??$doit@P6AX_NPEAN1HHPEAHU?$customLesser@N@@HH@Z_NPEANPEANHHPEAHU1@HH@triple_chevron@launcher@cuda_cub@thrust@@QEBA?AW4cudaError@@P6AX_NPEAN1HHPEAHU?$customLesser@N@@HH@ZAEB_NAEBQEAN6AEBH7AEBQEAHAEBU5@77@Z 00000001800b5970 f i c1_ex_DLModel_28.obj
 0001:000b4a10       ??$doit@P6AX_NPEANV?$zip_iterator@V?$tuple@PEAHPEANUnull_type@thrust@@U12@U12@U12@U12@U12@U12@U12@@thrust@@@thrust@@12H1PEAV?$tuple@HNUnull_type@thrust@@U12@U12@U12@U12@U12@U12@U12@@2@U?$customGreater@N@@PEAD@Z_NPEANV12@PEANV12@HPEANPEAV32@U4@PEAD@triple_chevron@launcher@cuda_cub@thrust@@QEBA?AW4cudaError@@P6AX_NPEANV?$zip_iterator@V?$tuple@PEAHPEANUnull_type@thrust@@U12@U12@U12@U12@U12@U12@U12@@thrust@@@3@12H1PEAV?$tuple@HNUnull_type@thrust@@U12@U12@U12@U12@U12@U12@U12@@3@U?$customGreater@N@@PEAD@ZAEB_NAEBQEANAEBV53@89AEBH8AEBQEAV63@AEBU7@AEBQEAD@Z 00000001800b5a10 f i c1_ex_DLModel_28.obj
 0001:000b4ac0       ??$doit@P6AX_NPEANV?$zip_iterator@V?$tuple@PEAHPEANUnull_type@thrust@@U12@U12@U12@U12@U12@U12@U12@@thrust@@@thrust@@12H1PEAV?$tuple@HNUnull_type@thrust@@U12@U12@U12@U12@U12@U12@U12@@2@U?$customLesser@N@@PEAD@Z_NPEANV12@PEANV12@HPEANPEAV32@U4@PEAD@triple_chevron@launcher@cuda_cub@thrust@@QEBA?AW4cudaError@@P6AX_NPEANV?$zip_iterator@V?$tuple@PEAHPEANUnull_type@thrust@@U12@U12@U12@U12@U12@U12@U12@@thrust@@@3@12H1PEAV?$tuple@HNUnull_type@thrust@@U12@U12@U12@U12@U12@U12@U12@@3@U?$customLesser@N@@PEAD@ZAEB_NAEBQEANAEBV53@89AEBH8AEBQEAV63@AEBU7@AEBQEAD@Z 00000001800b5ac0 f i c1_ex_DLModel_28.obj
 0001:000b4b70       ??$doit@P6AX_NPEANV?$zip_iterator@V?$tuple@PEAHPEANUnull_type@thrust@@U12@U12@U12@U12@U12@U12@U12@@thrust@@@thrust@@H1PEAV?$tuple@HNUnull_type@thrust@@U12@U12@U12@U12@U12@U12@U12@@2@U?$customGreater@N@@PEAHHPEAD@Z_NPEANV12@HPEANPEAV32@U4@PEAHHPEAD@triple_chevron@launcher@cuda_cub@thrust@@QEBA?AW4cudaError@@P6AX_NPEANV?$zip_iterator@V?$tuple@PEAHPEANUnull_type@thrust@@U12@U12@U12@U12@U12@U12@U12@@thrust@@@3@H1PEAV?$tuple@HNUnull_type@thrust@@U12@U12@U12@U12@U12@U12@U12@@3@U?$customGreater@N@@PEAHHPEAD@ZAEB_NAEBQEANAEBV53@AEBH9AEBQEAV63@AEBU7@AEBQEAHAEBHAEBQEAD@Z 00000001800b5b70 f i c1_ex_DLModel_28.obj
 0001:000b4c20       ??$doit@P6AX_NPEANV?$zip_iterator@V?$tuple@PEAHPEANUnull_type@thrust@@U12@U12@U12@U12@U12@U12@U12@@thrust@@@thrust@@H1PEAV?$tuple@HNUnull_type@thrust@@U12@U12@U12@U12@U12@U12@U12@@2@U?$customLesser@N@@PEAHHPEAD@Z_NPEANV12@HPEANPEAV32@U4@PEAHHPEAD@triple_chevron@launcher@cuda_cub@thrust@@QEBA?AW4cudaError@@P6AX_NPEANV?$zip_iterator@V?$tuple@PEAHPEANUnull_type@thrust@@U12@U12@U12@U12@U12@U12@U12@@thrust@@@3@H1PEAV?$tuple@HNUnull_type@thrust@@U12@U12@U12@U12@U12@U12@U12@@3@U?$customLesser@N@@PEAHHPEAD@ZAEB_NAEBQEANAEBV53@AEBH9AEBQEAV63@AEBU7@AEBQEAHAEBHAEBQEAD@Z 00000001800b5c20 f i c1_ex_DLModel_28.obj
 0001:000b4cd0       ??$doit_host@P6AXPEAH0PEAIPEBI0PEBHPEAU?$ValueIndexPair@N@@PEBU1@HHHUidentity_decomposer_t@detail@CUB_200200_890_NS@cub@@@ZPEAHPEAHPEAIPEAIPEAHPEAHPEAU1@PEAU1@HHHU2345@@triple_chevron@launcher@cuda_cub@thrust@@QEBA?AW4cudaError@@P6AXPEAH0PEAIPEBI0PEBHPEAU?$ValueIndexPair@N@@PEBU5@HHHUidentity_decomposer_t@detail@CUB_200200_890_NS@cub@@@ZAEBQEAH8AEBQEAI988AEBQEAU5@AEBQEAU5@AEBHAEBHAEBHAEBU6789@@Z 00000001800b5cd0 f i c1_ex_DLModel_28.obj
 0001:000b4e10       ??$doit_host@P6AXPEAI@ZPEAI@triple_chevron@launcher@cuda_cub@thrust@@QEBA?AW4cudaError@@P6AXPEAI@ZAEBQEAI@Z 00000001800b5e10 f i c1_ex_DLModel_28.obj
 0001:000b4e90       ??$doit_host@P6AXPEAIH@ZPEAIH@triple_chevron@launcher@cuda_cub@thrust@@QEBA?AW4cudaError@@P6AXPEAIH@ZAEBQEAIAEBH@Z 00000001800b5e90 f i c1_ex_DLModel_28.obj
 0001:000b4f20       ??$doit_host@P6AXPEAIPEBHIHHUidentity_decomposer_t@detail@CUB_200200_890_NS@cub@@@ZPEAIPEAHIHHU1234@@triple_chevron@launcher@cuda_cub@thrust@@QEBA?AW4cudaError@@P6AXPEAIPEBHIHHUidentity_decomposer_t@detail@CUB_200200_890_NS@cub@@@ZAEBQEAIAEBQEAHAEBIAEBH7AEBU5678@@Z 00000001800b5f20 f i c1_ex_DLModel_28.obj
 0001:000b4ff0       ??$doit_host@P6AXPEBHPEAHPEBU?$ValueIndexPair@N@@PEAU1@IHHUidentity_decomposer_t@detail@CUB_200200_890_NS@cub@@@ZPEAHPEAHPEAU1@PEAU1@IHHU2345@@triple_chevron@launcher@cuda_cub@thrust@@QEBA?AW4cudaError@@P6AXPEBHPEAHPEBU?$ValueIndexPair@N@@PEAU5@IHHUidentity_decomposer_t@detail@CUB_200200_890_NS@cub@@@ZAEBQEAH6AEBQEAU5@7AEBIAEBH9AEBU6789@@Z 00000001800b5ff0 f i c1_ex_DLModel_28.obj
 0001:000b50f0       ??$doit_host@P6AXPEBHPEAHPEBU?$ValueIndexPair@N@@PEAU1@PEAIIHHU?$GridEvenShare@I@CUB_200200_890_NS@cub@@Uidentity_decomposer_t@detail@34@@ZPEBHPEAHPEBU1@PEAU1@PEAIIHHU234@U5634@@triple_chevron@launcher@cuda_cub@thrust@@QEBA?AW4cudaError@@P6AXPEBHPEAHPEBU?$ValueIndexPair@N@@PEAU5@PEAIIHHU?$GridEvenShare@I@CUB_200200_890_NS@cub@@Uidentity_decomposer_t@detail@78@@ZAEBQEBHAEBQEAHAEBQEBU5@AEBQEAU5@AEBQEAIAEBIAEBHAEBHAEBU678@AEBU9detail@78@@Z 00000001800b60f0 f i c1_ex_DLModel_28.obj
 0001:000b5220       ??$doit_host@P6AXPEBHPEAIIHHU?$GridEvenShare@I@CUB_200200_890_NS@cub@@Uidentity_decomposer_t@detail@23@@ZPEBHPEAIIHHU123@U4523@@triple_chevron@launcher@cuda_cub@thrust@@QEBA?AW4cudaError@@P6AXPEBHPEAIIHHU?$GridEvenShare@I@CUB_200200_890_NS@cub@@Uidentity_decomposer_t@detail@67@@ZAEBQEBHAEBQEAIAEBIAEBH8AEBU567@AEBU8967@@Z 00000001800b6220 f i c1_ex_DLModel_28.obj
 0001:000b5320       ??$doit_host@P6AXU?$functor@PEANH@__fill@cuda_cub@thrust@@_J@ZU1234@_J@triple_chevron@launcher@cuda_cub@thrust@@QEBA?AW4cudaError@@P6AXU?$functor@PEANH@__fill@23@_J@ZAEBU5623@AEB_J@Z 00000001800b6320 f i c1_ex_DLModel_28.obj
 0001:000b53d0       ??$doit_host@P6AXU?$functor@PEANU?$compute_sequence_value@HX@detail@generic@2system@thrust@@_J@__tabulate@cuda_cub@thrust@@_J@ZU1234@_J@triple_chevron@launcher@cuda_cub@thrust@@QEBA?AW4cudaError@@P6AXU?$functor@PEANU?$compute_sequence_value@HX@detail@generic@2system@thrust@@_J@__tabulate@23@_J@ZAEBU5623@AEB_J@Z 00000001800b63d0 f i c1_ex_DLModel_28.obj
 0001:000b5480       ??$doit_host@P6AX_NPEAN111H11U?$customGreater@N@@PEAD@Z_NPEANPEANPEANPEANHPEANPEANU1@PEAD@triple_chevron@launcher@cuda_cub@thrust@@QEBA?AW4cudaError@@P6AX_NPEAN111H11U?$customGreater@N@@PEAD@ZAEB_NAEBQEAN666AEBH66AEBU5@AEBQEAD@Z 00000001800b6480 f i c1_ex_DLModel_28.obj
 0001:000b55a0       ??$doit_host@P6AX_NPEAN111H11U?$customLesser@N@@PEAD@Z_NPEANPEANPEANPEANHPEANPEANU1@PEAD@triple_chevron@launcher@cuda_cub@thrust@@QEBA?AW4cudaError@@P6AX_NPEAN111H11U?$customLesser@N@@PEAD@ZAEB_NAEBQEAN666AEBH66AEBU5@AEBQEAD@Z 00000001800b65a0 f i c1_ex_DLModel_28.obj
 0001:000b56c0       ??$doit_host@P6AX_NPEAN1H11U?$customGreater@N@@PEAHHPEAD@Z_NPEANPEANHPEANPEANU1@PEAHHPEAD@triple_chevron@launcher@cuda_cub@thrust@@QEBA?AW4cudaError@@P6AX_NPEAN1H11U?$customGreater@N@@PEAHHPEAD@ZAEB_NAEBQEAN7AEBH77AEBU5@AEBQEAH8AEBQEAD@Z 00000001800b66c0 f i c1_ex_DLModel_28.obj
 0001:000b57e0       ??$doit_host@P6AX_NPEAN1H11U?$customLesser@N@@PEAHHPEAD@Z_NPEANPEANHPEANPEANU1@PEAHHPEAD@triple_chevron@launcher@cuda_cub@thrust@@QEBA?AW4cudaError@@P6AX_NPEAN1H11U?$customLesser@N@@PEAHHPEAD@ZAEB_NAEBQEAN7AEBH77AEBU5@AEBQEAH8AEBQEAD@Z 00000001800b67e0 f i c1_ex_DLModel_28.obj
 0001:000b5900       ??$doit_host@P6AX_NPEAN1HHPEAHU?$customGreater@N@@HH@Z_NPEANPEANHHPEAHU1@HH@triple_chevron@launcher@cuda_cub@thrust@@QEBA?AW4cudaError@@P6AX_NPEAN1HHPEAHU?$customGreater@N@@HH@ZAEB_NAEBQEAN6AEBH7AEBQEAHAEBU5@77@Z 00000001800b6900 f i c1_ex_DLModel_28.obj
 0001:000b5a10       ??$doit_host@P6AX_NPEAN1HHPEAHU?$customLesser@N@@HH@Z_NPEANPEANHHPEAHU1@HH@triple_chevron@launcher@cuda_cub@thrust@@QEBA?AW4cudaError@@P6AX_NPEAN1HHPEAHU?$customLesser@N@@HH@ZAEB_NAEBQEAN6AEBH7AEBQEAHAEBU5@77@Z 00000001800b6a10 f i c1_ex_DLModel_28.obj
 0001:000b5b20       ??$doit_host@P6AX_NPEANV?$zip_iterator@V?$tuple@PEAHPEANUnull_type@thrust@@U12@U12@U12@U12@U12@U12@U12@@thrust@@@thrust@@12H1PEAV?$tuple@HNUnull_type@thrust@@U12@U12@U12@U12@U12@U12@U12@@2@U?$customGreater@N@@PEAD@Z_NPEANV12@PEANV12@HPEANPEAV32@U4@PEAD@triple_chevron@launcher@cuda_cub@thrust@@QEBA?AW4cudaError@@P6AX_NPEANV?$zip_iterator@V?$tuple@PEAHPEANUnull_type@thrust@@U12@U12@U12@U12@U12@U12@U12@@thrust@@@3@12H1PEAV?$tuple@HNUnull_type@thrust@@U12@U12@U12@U12@U12@U12@U12@@3@U?$customGreater@N@@PEAD@ZAEB_NAEBQEANAEBV53@89AEBH8AEBQEAV63@AEBU7@AEBQEAD@Z 00000001800b6b20 f i c1_ex_DLModel_28.obj
 0001:000b5c70       ??$doit_host@P6AX_NPEANV?$zip_iterator@V?$tuple@PEAHPEANUnull_type@thrust@@U12@U12@U12@U12@U12@U12@U12@@thrust@@@thrust@@12H1PEAV?$tuple@HNUnull_type@thrust@@U12@U12@U12@U12@U12@U12@U12@@2@U?$customLesser@N@@PEAD@Z_NPEANV12@PEANV12@HPEANPEAV32@U4@PEAD@triple_chevron@launcher@cuda_cub@thrust@@QEBA?AW4cudaError@@P6AX_NPEANV?$zip_iterator@V?$tuple@PEAHPEANUnull_type@thrust@@U12@U12@U12@U12@U12@U12@U12@@thrust@@@3@12H1PEAV?$tuple@HNUnull_type@thrust@@U12@U12@U12@U12@U12@U12@U12@@3@U?$customLesser@N@@PEAD@ZAEB_NAEBQEANAEBV53@89AEBH8AEBQEAV63@AEBU7@AEBQEAD@Z 00000001800b6c70 f i c1_ex_DLModel_28.obj
 0001:000b5dc0       ??$doit_host@P6AX_NPEANV?$zip_iterator@V?$tuple@PEAHPEANUnull_type@thrust@@U12@U12@U12@U12@U12@U12@U12@@thrust@@@thrust@@H1PEAV?$tuple@HNUnull_type@thrust@@U12@U12@U12@U12@U12@U12@U12@@2@U?$customGreater@N@@PEAHHPEAD@Z_NPEANV12@HPEANPEAV32@U4@PEAHHPEAD@triple_chevron@launcher@cuda_cub@thrust@@QEBA?AW4cudaError@@P6AX_NPEANV?$zip_iterator@V?$tuple@PEAHPEANUnull_type@thrust@@U12@U12@U12@U12@U12@U12@U12@@thrust@@@3@H1PEAV?$tuple@HNUnull_type@thrust@@U12@U12@U12@U12@U12@U12@U12@@3@U?$customGreater@N@@PEAHHPEAD@ZAEB_NAEBQEANAEBV53@AEBH9AEBQEAV63@AEBU7@AEBQEAHAEBHAEBQEAD@Z 00000001800b6dc0 f i c1_ex_DLModel_28.obj
 0001:000b5ef0       ??$doit_host@P6AX_NPEANV?$zip_iterator@V?$tuple@PEAHPEANUnull_type@thrust@@U12@U12@U12@U12@U12@U12@U12@@thrust@@@thrust@@H1PEAV?$tuple@HNUnull_type@thrust@@U12@U12@U12@U12@U12@U12@U12@@2@U?$customLesser@N@@PEAHHPEAD@Z_NPEANV12@HPEANPEAV32@U4@PEAHHPEAD@triple_chevron@launcher@cuda_cub@thrust@@QEBA?AW4cudaError@@P6AX_NPEANV?$zip_iterator@V?$tuple@PEAHPEANUnull_type@thrust@@U12@U12@U12@U12@U12@U12@U12@@thrust@@@3@H1PEAV?$tuple@HNUnull_type@thrust@@U12@U12@U12@U12@U12@U12@U12@@3@U?$customLesser@N@@PEAHHPEAD@ZAEB_NAEBQEANAEBV53@AEBH9AEBQEAV63@AEBU7@AEBQEAHAEBHAEBQEAD@Z 00000001800b6ef0 f i c1_ex_DLModel_28.obj
 0001:000b6020       ??$exchange@PEAU?$_Tree_node@U?$pair@$$CBHH@std@@PEAX@std@@$$T@std@@YAPEAU?$_Tree_node@U?$pair@$$CBHH@std@@PEAX@0@AEAPEAU10@$$QEA$$T@Z 00000001800b7020 f i c1_ex_DLModel_28.obj
 0001:000b6060       ??$fill@Upar_t@cuda_cub@thrust@@PEANH@cuda_cub@thrust@@YAXAEAU?$execution_policy@Upar_t@cuda_cub@thrust@@@01@PEAN1AEBH@Z 00000001800b7060 f i c1_ex_DLModel_28.obj
 0001:000b60b0       ??$fill@Upar_t@cuda_cub@thrust@@PEANH@thrust@@YAXAEBU?$execution_policy_base@Upar_t@cuda_cub@thrust@@@detail@0@PEAN1AEBH@Z 00000001800b70b0 f i c1_ex_DLModel_28.obj
 0001:000b6100       ??$fill_n@Upar_t@cuda_cub@thrust@@PEAN_JH@cuda_cub@thrust@@YAPEANAEAU?$execution_policy@Upar_t@cuda_cub@thrust@@@01@PEAN_JAEBH@Z 00000001800b7100 f i c1_ex_DLModel_28.obj
 0001:000b6170       ??$forward@AEAPEAD@std@@YAAEAPEADAEAPEAD@Z 00000001800b7170 f i c1_ex_DLModel_28.obj
 0001:000b6180       ??$forward@AEAPEAU?$_Tree_node@U?$pair@$$CBHH@std@@PEAX@std@@@std@@YAAEAPEAU?$_Tree_node@U?$pair@$$CBHH@std@@PEAX@0@AEAPEAU10@@Z 00000001800b7180 f i c1_ex_DLModel_28.obj
 0001:000b6190       ??$forward@AEBH@std@@YAAEBHAEBH@Z 00000001800b7190 f i c1_ex_DLModel_28.obj
 0001:000b61a0       ??$forward@AEBQEAD@std@@YAAEBQEADAEBQEAD@Z 00000001800b71a0 f i c1_ex_DLModel_28.obj
 0001:000b61b0       ??$forward@AEBQEAU?$_Tree_node@U?$pair@$$CBHH@std@@PEAX@std@@@std@@YAAEBQEAU?$_Tree_node@U?$pair@$$CBHH@std@@PEAX@0@AEBQEAU10@@Z 00000001800b71b0 f i c1_ex_DLModel_28.obj
 0001:000b61c0       ??$forward@AEBUpiecewise_construct_t@std@@@std@@YAAEBUpiecewise_construct_t@0@AEBU10@@Z 00000001800b71c0 f i c1_ex_DLModel_28.obj
 0001:000b61d0       ??$forward@AEB_K@__4@std@cuda@@YAAEB_KAEB_K@Z 00000001800b71d0 f i c1_ex_DLModel_28.obj
 0001:000b61e0       ??$forward@PEAU?$_Tree_node@U?$pair@$$CBHH@std@@PEAX@std@@@std@@YA$$QEAPEAU?$_Tree_node@U?$pair@$$CBHH@std@@PEAX@0@AEAPEAU10@@Z 00000001800b71e0 f i c1_ex_DLModel_28.obj
 0001:000b61f0       ??$forward@V<lambda_8e42fde9b3efe5cab16583d698397035>@@@__4@std@cuda@@YA$$QEAV<lambda_8e42fde9b3efe5cab16583d698397035>@@AEAV3@@Z 00000001800b71f0 f i c1_ex_DLModel_28.obj
 0001:000b6200       ??$forward@V?$allocator@D@std@@@std@@YA$$QEAV?$allocator@D@0@AEAV10@@Z 00000001800b7200 f i c1_ex_DLModel_28.obj
 0001:000b6210       ??$forward@V?$tuple@$$V@std@@@std@@YA$$QEAV?$tuple@$$V@0@AEAV10@@Z 00000001800b7210 f i c1_ex_DLModel_28.obj
 0001:000b6220       ??$forward@V?$tuple@AEBH@std@@@std@@YA$$QEAV?$tuple@AEBH@0@AEAV10@@Z 00000001800b7220 f i c1_ex_DLModel_28.obj
 0001:000b6230       ??$forward@_N@std@@YA$$QEA_NAEA_N@Z 00000001800b7230 f i c1_ex_DLModel_28.obj
 0001:000b6240       ??$forward_as_tuple@$$V@std@@YA?AV?$tuple@$$V@0@XZ 00000001800b7240 f i c1_ex_DLModel_28.obj
 0001:000b6250       ??$forward_as_tuple@AEBH@std@@YA?AV?$tuple@AEBH@0@AEBH@Z 00000001800b7250 f i c1_ex_DLModel_28.obj
 0001:000b6280       ??$get_agent_plan@U?$ParallelForAgent@U?$functor@PEANH@__fill@cuda_cub@thrust@@_J@__parallel_for@cuda_cub@thrust@@@core@cuda_cub@thrust@@YA?AUAgentPlan@012@H@Z 00000001800b7280 f i c1_ex_DLModel_28.obj
 0001:000b62b0       ??$get_agent_plan@U?$ParallelForAgent@U?$functor@PEANU?$compute_sequence_value@HX@detail@generic@2system@thrust@@_J@__tabulate@cuda_cub@thrust@@_J@__parallel_for@cuda_cub@thrust@@@core@cuda_cub@thrust@@YA?AUAgentPlan@012@H@Z 00000001800b72b0 f i c1_ex_DLModel_28.obj
 0001:000b62e0       ??$get_stream@Upar_t@cuda_cub@thrust@@@cuda_cub@thrust@@YAPEAUCUstream_st@@AEAU?$execution_policy@Upar_t@cuda_cub@thrust@@@01@@Z 00000001800b72e0 f i c1_ex_DLModel_28.obj
 0001:000b6300       ??$gpuSortImplWithIndex@N@@YAXPEAN0HPEBHH_N2@Z 00000001800b7300 f i c1_ex_DLModel_28.obj
 0001:000b64d0       ??$gpu_sort_with_index@N@@YAXPEAN0HPEBHH_N2@Z 00000001800b74d0 f i c1_ex_DLModel_28.obj
 0001:000b6580       ??$is_float@M@@YA_NXZ      00000001800b7580 f i c1_ex_DLModel_28.obj
 0001:000b6590       ??$is_int8@M@@YA_NXZ       00000001800b7590 f i c1_ex_DLModel_28.obj
 0001:000b65a0       ??$is_power_of_2@H@detail@thrust@@YA_NH@Z 00000001800b75a0 f i c1_ex_DLModel_28.obj
 0001:000b65e0       ??$launch@U?$functor@PEANH@__fill@cuda_cub@thrust@@_J@?$AgentLauncher@U?$ParallelForAgent@U?$functor@PEANH@__fill@cuda_cub@thrust@@_J@__parallel_for@cuda_cub@thrust@@@core@cuda_cub@thrust@@QEBAXU?$functor@PEANH@__fill@23@_J@Z 00000001800b75e0 f i c1_ex_DLModel_28.obj
 0001:000b6640       ??$launch@U?$functor@PEANU?$compute_sequence_value@HX@detail@generic@2system@thrust@@_J@__tabulate@cuda_cub@thrust@@_J@?$AgentLauncher@U?$ParallelForAgent@U?$functor@PEANU?$compute_sequence_value@HX@detail@generic@2system@thrust@@_J@__tabulate@cuda_cub@thrust@@_J@__parallel_for@cuda_cub@thrust@@@core@cuda_cub@thrust@@QEBAXU?$functor@PEANU?$compute_sequence_value@HX@detail@generic@2system@thrust@@_J@__tabulate@23@_J@Z 00000001800b7640 f i c1_ex_DLModel_28.obj
 0001:000b66a0       ??$launch_impl@$00@?$BlockSortLauncher@PEANPEANPEANPEANHUPolicy600@?$DeviceMergeSortPolicy@PEAN@CUB_200200_890_NS@cub@@U1234@U?$customGreater@N@@NN$00@CUB_200200_890_NS@cub@@QEBAXXZ 00000001800b76a0 f i c1_ex_DLModel_28.obj
 0001:000b68e0       ??$launch_impl@$00@?$BlockSortLauncher@PEANPEANPEANPEANHUPolicy600@?$DeviceMergeSortPolicy@PEAN@CUB_200200_890_NS@cub@@U1234@U?$customLesser@N@@NN$00@CUB_200200_890_NS@cub@@QEBAXXZ 00000001800b78e0 f i c1_ex_DLModel_28.obj
 0001:000b6b20       ??$launch_impl@$00@?$BlockSortLauncher@PEANPEANPEANPEANHUPolicy600@?$DeviceMergeSortPolicy@PEAN@CUB_200200_890_NS@cub@@UPolicy350@234@U?$customGreater@N@@NN$00@CUB_200200_890_NS@cub@@QEBAXXZ 00000001800b7b20 f i c1_ex_DLModel_28.obj
 0001:000b6d60       ??$launch_impl@$00@?$BlockSortLauncher@PEANPEANPEANPEANHUPolicy600@?$DeviceMergeSortPolicy@PEAN@CUB_200200_890_NS@cub@@UPolicy350@234@U?$customLesser@N@@NN$00@CUB_200200_890_NS@cub@@QEBAXXZ 00000001800b7d60 f i c1_ex_DLModel_28.obj
 0001:000b6fa0       ??$launch_impl@$00@?$BlockSortLauncher@PEANPEANPEANPEANHUPolicy600@?$DeviceMergeSortPolicy@PEAN@CUB_200200_890_NS@cub@@UPolicy520@234@U?$customGreater@N@@NN$00@CUB_200200_890_NS@cub@@QEBAXXZ 00000001800b7fa0 f i c1_ex_DLModel_28.obj
 0001:000b71e0       ??$launch_impl@$00@?$BlockSortLauncher@PEANPEANPEANPEANHUPolicy600@?$DeviceMergeSortPolicy@PEAN@CUB_200200_890_NS@cub@@UPolicy520@234@U?$customLesser@N@@NN$00@CUB_200200_890_NS@cub@@QEBAXXZ 00000001800b81e0 f i c1_ex_DLModel_28.obj
 0001:000b7420       ??$launch_impl@$00@?$BlockSortLauncher@PEANV?$zip_iterator@V?$tuple@PEAHPEANUnull_type@thrust@@U12@U12@U12@U12@U12@U12@U12@@thrust@@@thrust@@PEANV12@HUPolicy600@?$DeviceMergeSortPolicy@PEAN@CUB_200200_890_NS@cub@@U3456@U?$customGreater@N@@NV?$tuple@HNUnull_type@thrust@@U12@U12@U12@U12@U12@U12@U12@@2@$00@CUB_200200_890_NS@cub@@QEBAXXZ 00000001800b8420 f i c1_ex_DLModel_28.obj
 0001:000b7660       ??$launch_impl@$00@?$BlockSortLauncher@PEANV?$zip_iterator@V?$tuple@PEAHPEANUnull_type@thrust@@U12@U12@U12@U12@U12@U12@U12@@thrust@@@thrust@@PEANV12@HUPolicy600@?$DeviceMergeSortPolicy@PEAN@CUB_200200_890_NS@cub@@U3456@U?$customLesser@N@@NV?$tuple@HNUnull_type@thrust@@U12@U12@U12@U12@U12@U12@U12@@2@$00@CUB_200200_890_NS@cub@@QEBAXXZ 00000001800b8660 f i c1_ex_DLModel_28.obj
 0001:000b78a0       ??$launch_impl@$00@?$BlockSortLauncher@PEANV?$zip_iterator@V?$tuple@PEAHPEANUnull_type@thrust@@U12@U12@U12@U12@U12@U12@U12@@thrust@@@thrust@@PEANV12@HUPolicy600@?$DeviceMergeSortPolicy@PEAN@CUB_200200_890_NS@cub@@UPolicy350@456@U?$customGreater@N@@NV?$tuple@HNUnull_type@thrust@@U12@U12@U12@U12@U12@U12@U12@@2@$00@CUB_200200_890_NS@cub@@QEBAXXZ 00000001800b88a0 f i c1_ex_DLModel_28.obj
 0001:000b7ae0       ??$launch_impl@$00@?$BlockSortLauncher@PEANV?$zip_iterator@V?$tuple@PEAHPEANUnull_type@thrust@@U12@U12@U12@U12@U12@U12@U12@@thrust@@@thrust@@PEANV12@HUPolicy600@?$DeviceMergeSortPolicy@PEAN@CUB_200200_890_NS@cub@@UPolicy350@456@U?$customLesser@N@@NV?$tuple@HNUnull_type@thrust@@U12@U12@U12@U12@U12@U12@U12@@2@$00@CUB_200200_890_NS@cub@@QEBAXXZ 00000001800b8ae0 f i c1_ex_DLModel_28.obj
 0001:000b7d20       ??$launch_impl@$00@?$BlockSortLauncher@PEANV?$zip_iterator@V?$tuple@PEAHPEANUnull_type@thrust@@U12@U12@U12@U12@U12@U12@U12@@thrust@@@thrust@@PEANV12@HUPolicy600@?$DeviceMergeSortPolicy@PEAN@CUB_200200_890_NS@cub@@UPolicy520@456@U?$customGreater@N@@NV?$tuple@HNUnull_type@thrust@@U12@U12@U12@U12@U12@U12@U12@@2@$0A@@CUB_200200_890_NS@cub@@QEBAXXZ 00000001800b8d20 f i c1_ex_DLModel_28.obj
 0001:000b7f60       ??$launch_impl@$00@?$BlockSortLauncher@PEANV?$zip_iterator@V?$tuple@PEAHPEANUnull_type@thrust@@U12@U12@U12@U12@U12@U12@U12@@thrust@@@thrust@@PEANV12@HUPolicy600@?$DeviceMergeSortPolicy@PEAN@CUB_200200_890_NS@cub@@UPolicy520@456@U?$customLesser@N@@NV?$tuple@HNUnull_type@thrust@@U12@U12@U12@U12@U12@U12@U12@@2@$0A@@CUB_200200_890_NS@cub@@QEBAXXZ 00000001800b8f60 f i c1_ex_DLModel_28.obj
 0001:000b81a0       ??$launch_impl@$00@?$MergeLauncher@PEANPEANHUPolicy600@?$DeviceMergeSortPolicy@PEAN@CUB_200200_890_NS@cub@@U1234@U?$customGreater@N@@NN$00@CUB_200200_890_NS@cub@@QEBAX_NH@Z 00000001800b91a0 f i c1_ex_DLModel_28.obj
 0001:000b83c0       ??$launch_impl@$00@?$MergeLauncher@PEANPEANHUPolicy600@?$DeviceMergeSortPolicy@PEAN@CUB_200200_890_NS@cub@@U1234@U?$customLesser@N@@NN$00@CUB_200200_890_NS@cub@@QEBAX_NH@Z 00000001800b93c0 f i c1_ex_DLModel_28.obj
 0001:000b85e0       ??$launch_impl@$00@?$MergeLauncher@PEANPEANHUPolicy600@?$DeviceMergeSortPolicy@PEAN@CUB_200200_890_NS@cub@@UPolicy350@234@U?$customGreater@N@@NN$00@CUB_200200_890_NS@cub@@QEBAX_NH@Z 00000001800b95e0 f i c1_ex_DLModel_28.obj
 0001:000b8800       ??$launch_impl@$00@?$MergeLauncher@PEANPEANHUPolicy600@?$DeviceMergeSortPolicy@PEAN@CUB_200200_890_NS@cub@@UPolicy350@234@U?$customLesser@N@@NN$00@CUB_200200_890_NS@cub@@QEBAX_NH@Z 00000001800b9800 f i c1_ex_DLModel_28.obj
 0001:000b8a20       ??$launch_impl@$00@?$MergeLauncher@PEANPEANHUPolicy600@?$DeviceMergeSortPolicy@PEAN@CUB_200200_890_NS@cub@@UPolicy520@234@U?$customGreater@N@@NN$00@CUB_200200_890_NS@cub@@QEBAX_NH@Z 00000001800b9a20 f i c1_ex_DLModel_28.obj
 0001:000b8c40       ??$launch_impl@$00@?$MergeLauncher@PEANPEANHUPolicy600@?$DeviceMergeSortPolicy@PEAN@CUB_200200_890_NS@cub@@UPolicy520@234@U?$customLesser@N@@NN$00@CUB_200200_890_NS@cub@@QEBAX_NH@Z 00000001800b9c40 f i c1_ex_DLModel_28.obj
 0001:000b8e60       ??$launch_impl@$00@?$MergeLauncher@PEANV?$zip_iterator@V?$tuple@PEAHPEANUnull_type@thrust@@U12@U12@U12@U12@U12@U12@U12@@thrust@@@thrust@@HUPolicy600@?$DeviceMergeSortPolicy@PEAN@CUB_200200_890_NS@cub@@U3456@U?$customGreater@N@@NV?$tuple@HNUnull_type@thrust@@U12@U12@U12@U12@U12@U12@U12@@2@$00@CUB_200200_890_NS@cub@@QEBAX_NH@Z 00000001800b9e60 f i c1_ex_DLModel_28.obj
 0001:000b9080       ??$launch_impl@$00@?$MergeLauncher@PEANV?$zip_iterator@V?$tuple@PEAHPEANUnull_type@thrust@@U12@U12@U12@U12@U12@U12@U12@@thrust@@@thrust@@HUPolicy600@?$DeviceMergeSortPolicy@PEAN@CUB_200200_890_NS@cub@@U3456@U?$customLesser@N@@NV?$tuple@HNUnull_type@thrust@@U12@U12@U12@U12@U12@U12@U12@@2@$00@CUB_200200_890_NS@cub@@QEBAX_NH@Z 00000001800ba080 f i c1_ex_DLModel_28.obj
 0001:000b92a0       ??$launch_impl@$00@?$MergeLauncher@PEANV?$zip_iterator@V?$tuple@PEAHPEANUnull_type@thrust@@U12@U12@U12@U12@U12@U12@U12@@thrust@@@thrust@@HUPolicy600@?$DeviceMergeSortPolicy@PEAN@CUB_200200_890_NS@cub@@UPolicy350@456@U?$customGreater@N@@NV?$tuple@HNUnull_type@thrust@@U12@U12@U12@U12@U12@U12@U12@@2@$00@CUB_200200_890_NS@cub@@QEBAX_NH@Z 00000001800ba2a0 f i c1_ex_DLModel_28.obj
 0001:000b94c0       ??$launch_impl@$00@?$MergeLauncher@PEANV?$zip_iterator@V?$tuple@PEAHPEANUnull_type@thrust@@U12@U12@U12@U12@U12@U12@U12@@thrust@@@thrust@@HUPolicy600@?$DeviceMergeSortPolicy@PEAN@CUB_200200_890_NS@cub@@UPolicy350@456@U?$customLesser@N@@NV?$tuple@HNUnull_type@thrust@@U12@U12@U12@U12@U12@U12@U12@@2@$00@CUB_200200_890_NS@cub@@QEBAX_NH@Z 00000001800ba4c0 f i c1_ex_DLModel_28.obj
 0001:000b96e0       ??$launch_impl@$00@?$MergeLauncher@PEANV?$zip_iterator@V?$tuple@PEAHPEANUnull_type@thrust@@U12@U12@U12@U12@U12@U12@U12@@thrust@@@thrust@@HUPolicy600@?$DeviceMergeSortPolicy@PEAN@CUB_200200_890_NS@cub@@UPolicy520@456@U?$customGreater@N@@NV?$tuple@HNUnull_type@thrust@@U12@U12@U12@U12@U12@U12@U12@@2@$0A@@CUB_200200_890_NS@cub@@QEBAX_NH@Z 00000001800ba6e0 f i c1_ex_DLModel_28.obj
 0001:000b9900       ??$launch_impl@$00@?$MergeLauncher@PEANV?$zip_iterator@V?$tuple@PEAHPEANUnull_type@thrust@@U12@U12@U12@U12@U12@U12@U12@@thrust@@@thrust@@HUPolicy600@?$DeviceMergeSortPolicy@PEAN@CUB_200200_890_NS@cub@@UPolicy520@456@U?$customLesser@N@@NV?$tuple@HNUnull_type@thrust@@U12@U12@U12@U12@U12@U12@U12@@2@$0A@@CUB_200200_890_NS@cub@@QEBAX_NH@Z 00000001800ba900 f i c1_ex_DLModel_28.obj
 0001:000b9b20       ??$launch_impl@$0A@@?$BlockSortLauncher@PEANPEANPEANPEANHUPolicy600@?$DeviceMergeSortPolicy@PEAN@CUB_200200_890_NS@cub@@U1234@U?$customGreater@N@@NN$00@CUB_200200_890_NS@cub@@QEBAXXZ 00000001800bab20 f i c1_ex_DLModel_28.obj
 0001:000b9d60       ??$launch_impl@$0A@@?$BlockSortLauncher@PEANPEANPEANPEANHUPolicy600@?$DeviceMergeSortPolicy@PEAN@CUB_200200_890_NS@cub@@U1234@U?$customLesser@N@@NN$00@CUB_200200_890_NS@cub@@QEBAXXZ 00000001800bad60 f i c1_ex_DLModel_28.obj
 0001:000b9fa0       ??$launch_impl@$0A@@?$BlockSortLauncher@PEANPEANPEANPEANHUPolicy600@?$DeviceMergeSortPolicy@PEAN@CUB_200200_890_NS@cub@@UPolicy350@234@U?$customGreater@N@@NN$00@CUB_200200_890_NS@cub@@QEBAXXZ 00000001800bafa0 f i c1_ex_DLModel_28.obj
 0001:000ba1e0       ??$launch_impl@$0A@@?$BlockSortLauncher@PEANPEANPEANPEANHUPolicy600@?$DeviceMergeSortPolicy@PEAN@CUB_200200_890_NS@cub@@UPolicy350@234@U?$customLesser@N@@NN$00@CUB_200200_890_NS@cub@@QEBAXXZ 00000001800bb1e0 f i c1_ex_DLModel_28.obj
 0001:000ba420       ??$launch_impl@$0A@@?$BlockSortLauncher@PEANPEANPEANPEANHUPolicy600@?$DeviceMergeSortPolicy@PEAN@CUB_200200_890_NS@cub@@UPolicy520@234@U?$customGreater@N@@NN$00@CUB_200200_890_NS@cub@@QEBAXXZ 00000001800bb420 f i c1_ex_DLModel_28.obj
 0001:000ba660       ??$launch_impl@$0A@@?$BlockSortLauncher@PEANPEANPEANPEANHUPolicy600@?$DeviceMergeSortPolicy@PEAN@CUB_200200_890_NS@cub@@UPolicy520@234@U?$customLesser@N@@NN$00@CUB_200200_890_NS@cub@@QEBAXXZ 00000001800bb660 f i c1_ex_DLModel_28.obj
 0001:000ba8a0       ??$launch_impl@$0A@@?$BlockSortLauncher@PEANV?$zip_iterator@V?$tuple@PEAHPEANUnull_type@thrust@@U12@U12@U12@U12@U12@U12@U12@@thrust@@@thrust@@PEANV12@HUPolicy600@?$DeviceMergeSortPolicy@PEAN@CUB_200200_890_NS@cub@@U3456@U?$customGreater@N@@NV?$tuple@HNUnull_type@thrust@@U12@U12@U12@U12@U12@U12@U12@@2@$00@CUB_200200_890_NS@cub@@QEBAXXZ 00000001800bb8a0 f i c1_ex_DLModel_28.obj
 0001:000baae0       ??$launch_impl@$0A@@?$BlockSortLauncher@PEANV?$zip_iterator@V?$tuple@PEAHPEANUnull_type@thrust@@U12@U12@U12@U12@U12@U12@U12@@thrust@@@thrust@@PEANV12@HUPolicy600@?$DeviceMergeSortPolicy@PEAN@CUB_200200_890_NS@cub@@U3456@U?$customLesser@N@@NV?$tuple@HNUnull_type@thrust@@U12@U12@U12@U12@U12@U12@U12@@2@$00@CUB_200200_890_NS@cub@@QEBAXXZ 00000001800bbae0 f i c1_ex_DLModel_28.obj
 0001:000bad20       ??$launch_impl@$0A@@?$BlockSortLauncher@PEANV?$zip_iterator@V?$tuple@PEAHPEANUnull_type@thrust@@U12@U12@U12@U12@U12@U12@U12@@thrust@@@thrust@@PEANV12@HUPolicy600@?$DeviceMergeSortPolicy@PEAN@CUB_200200_890_NS@cub@@UPolicy350@456@U?$customGreater@N@@NV?$tuple@HNUnull_type@thrust@@U12@U12@U12@U12@U12@U12@U12@@2@$00@CUB_200200_890_NS@cub@@QEBAXXZ 00000001800bbd20 f i c1_ex_DLModel_28.obj
 0001:000baf60       ??$launch_impl@$0A@@?$BlockSortLauncher@PEANV?$zip_iterator@V?$tuple@PEAHPEANUnull_type@thrust@@U12@U12@U12@U12@U12@U12@U12@@thrust@@@thrust@@PEANV12@HUPolicy600@?$DeviceMergeSortPolicy@PEAN@CUB_200200_890_NS@cub@@UPolicy350@456@U?$customLesser@N@@NV?$tuple@HNUnull_type@thrust@@U12@U12@U12@U12@U12@U12@U12@@2@$00@CUB_200200_890_NS@cub@@QEBAXXZ 00000001800bbf60 f i c1_ex_DLModel_28.obj
 0001:000bb1a0       ??$launch_impl@$0A@@?$BlockSortLauncher@PEANV?$zip_iterator@V?$tuple@PEAHPEANUnull_type@thrust@@U12@U12@U12@U12@U12@U12@U12@@thrust@@@thrust@@PEANV12@HUPolicy600@?$DeviceMergeSortPolicy@PEAN@CUB_200200_890_NS@cub@@UPolicy520@456@U?$customGreater@N@@NV?$tuple@HNUnull_type@thrust@@U12@U12@U12@U12@U12@U12@U12@@2@$0A@@CUB_200200_890_NS@cub@@QEBAXXZ 00000001800bc1a0 f i c1_ex_DLModel_28.obj
 0001:000bb3e0       ??$launch_impl@$0A@@?$BlockSortLauncher@PEANV?$zip_iterator@V?$tuple@PEAHPEANUnull_type@thrust@@U12@U12@U12@U12@U12@U12@U12@@thrust@@@thrust@@PEANV12@HUPolicy600@?$DeviceMergeSortPolicy@PEAN@CUB_200200_890_NS@cub@@UPolicy520@456@U?$customLesser@N@@NV?$tuple@HNUnull_type@thrust@@U12@U12@U12@U12@U12@U12@U12@@2@$0A@@CUB_200200_890_NS@cub@@QEBAXXZ 00000001800bc3e0 f i c1_ex_DLModel_28.obj
 0001:000bb620       ??$launch_impl@$0A@@?$MergeLauncher@PEANPEANHUPolicy600@?$DeviceMergeSortPolicy@PEAN@CUB_200200_890_NS@cub@@U1234@U?$customGreater@N@@NN$00@CUB_200200_890_NS@cub@@QEBAX_NH@Z 00000001800bc620 f i c1_ex_DLModel_28.obj
 0001:000bb840       ??$launch_impl@$0A@@?$MergeLauncher@PEANPEANHUPolicy600@?$DeviceMergeSortPolicy@PEAN@CUB_200200_890_NS@cub@@U1234@U?$customLesser@N@@NN$00@CUB_200200_890_NS@cub@@QEBAX_NH@Z 00000001800bc840 f i c1_ex_DLModel_28.obj
 0001:000bba60       ??$launch_impl@$0A@@?$MergeLauncher@PEANPEANHUPolicy600@?$DeviceMergeSortPolicy@PEAN@CUB_200200_890_NS@cub@@UPolicy350@234@U?$customGreater@N@@NN$00@CUB_200200_890_NS@cub@@QEBAX_NH@Z 00000001800bca60 f i c1_ex_DLModel_28.obj
 0001:000bbc80       ??$launch_impl@$0A@@?$MergeLauncher@PEANPEANHUPolicy600@?$DeviceMergeSortPolicy@PEAN@CUB_200200_890_NS@cub@@UPolicy350@234@U?$customLesser@N@@NN$00@CUB_200200_890_NS@cub@@QEBAX_NH@Z 00000001800bcc80 f i c1_ex_DLModel_28.obj
 0001:000bbea0       ??$launch_impl@$0A@@?$MergeLauncher@PEANPEANHUPolicy600@?$DeviceMergeSortPolicy@PEAN@CUB_200200_890_NS@cub@@UPolicy520@234@U?$customGreater@N@@NN$00@CUB_200200_890_NS@cub@@QEBAX_NH@Z 00000001800bcea0 f i c1_ex_DLModel_28.obj
 0001:000bc0c0       ??$launch_impl@$0A@@?$MergeLauncher@PEANPEANHUPolicy600@?$DeviceMergeSortPolicy@PEAN@CUB_200200_890_NS@cub@@UPolicy520@234@U?$customLesser@N@@NN$00@CUB_200200_890_NS@cub@@QEBAX_NH@Z 00000001800bd0c0 f i c1_ex_DLModel_28.obj
 0001:000bc2e0       ??$launch_impl@$0A@@?$MergeLauncher@PEANV?$zip_iterator@V?$tuple@PEAHPEANUnull_type@thrust@@U12@U12@U12@U12@U12@U12@U12@@thrust@@@thrust@@HUPolicy600@?$DeviceMergeSortPolicy@PEAN@CUB_200200_890_NS@cub@@U3456@U?$customGreater@N@@NV?$tuple@HNUnull_type@thrust@@U12@U12@U12@U12@U12@U12@U12@@2@$00@CUB_200200_890_NS@cub@@QEBAX_NH@Z 00000001800bd2e0 f i c1_ex_DLModel_28.obj
 0001:000bc500       ??$launch_impl@$0A@@?$MergeLauncher@PEANV?$zip_iterator@V?$tuple@PEAHPEANUnull_type@thrust@@U12@U12@U12@U12@U12@U12@U12@@thrust@@@thrust@@HUPolicy600@?$DeviceMergeSortPolicy@PEAN@CUB_200200_890_NS@cub@@U3456@U?$customLesser@N@@NV?$tuple@HNUnull_type@thrust@@U12@U12@U12@U12@U12@U12@U12@@2@$00@CUB_200200_890_NS@cub@@QEBAX_NH@Z 00000001800bd500 f i c1_ex_DLModel_28.obj
 0001:000bc720       ??$launch_impl@$0A@@?$MergeLauncher@PEANV?$zip_iterator@V?$tuple@PEAHPEANUnull_type@thrust@@U12@U12@U12@U12@U12@U12@U12@@thrust@@@thrust@@HUPolicy600@?$DeviceMergeSortPolicy@PEAN@CUB_200200_890_NS@cub@@UPolicy350@456@U?$customGreater@N@@NV?$tuple@HNUnull_type@thrust@@U12@U12@U12@U12@U12@U12@U12@@2@$00@CUB_200200_890_NS@cub@@QEBAX_NH@Z 00000001800bd720 f i c1_ex_DLModel_28.obj
 0001:000bc940       ??$launch_impl@$0A@@?$MergeLauncher@PEANV?$zip_iterator@V?$tuple@PEAHPEANUnull_type@thrust@@U12@U12@U12@U12@U12@U12@U12@@thrust@@@thrust@@HUPolicy600@?$DeviceMergeSortPolicy@PEAN@CUB_200200_890_NS@cub@@UPolicy350@456@U?$customLesser@N@@NV?$tuple@HNUnull_type@thrust@@U12@U12@U12@U12@U12@U12@U12@@2@$00@CUB_200200_890_NS@cub@@QEBAX_NH@Z 00000001800bd940 f i c1_ex_DLModel_28.obj
 0001:000bcb60       ??$launch_impl@$0A@@?$MergeLauncher@PEANV?$zip_iterator@V?$tuple@PEAHPEANUnull_type@thrust@@U12@U12@U12@U12@U12@U12@U12@@thrust@@@thrust@@HUPolicy600@?$DeviceMergeSortPolicy@PEAN@CUB_200200_890_NS@cub@@UPolicy520@456@U?$customGreater@N@@NV?$tuple@HNUnull_type@thrust@@U12@U12@U12@U12@U12@U12@U12@@2@$0A@@CUB_200200_890_NS@cub@@QEBAX_NH@Z 00000001800bdb60 f i c1_ex_DLModel_28.obj
 0001:000bcd80       ??$launch_impl@$0A@@?$MergeLauncher@PEANV?$zip_iterator@V?$tuple@PEAHPEANUnull_type@thrust@@U12@U12@U12@U12@U12@U12@U12@@thrust@@@thrust@@HUPolicy600@?$DeviceMergeSortPolicy@PEAN@CUB_200200_890_NS@cub@@UPolicy520@456@U?$customLesser@N@@NV?$tuple@HNUnull_type@thrust@@U12@U12@U12@U12@U12@U12@U12@@2@$0A@@CUB_200200_890_NS@cub@@QEBAX_NH@Z 00000001800bdd80 f i c1_ex_DLModel_28.obj
 0001:000bcfa0       ??$launch_impl@U?$functor@PEANH@__fill@cuda_cub@thrust@@_J@?$AgentLauncher@U?$ParallelForAgent@U?$functor@PEANH@__fill@cuda_cub@thrust@@_J@__parallel_for@cuda_cub@thrust@@@core@cuda_cub@thrust@@QEBAXU?$integral_constant@_N$00@detail@3@U?$functor@PEANH@__fill@23@_J@Z 00000001800bdfa0 f i c1_ex_DLModel_28.obj
 0001:000bd100       ??$launch_impl@U?$functor@PEANU?$compute_sequence_value@HX@detail@generic@2system@thrust@@_J@__tabulate@cuda_cub@thrust@@_J@?$AgentLauncher@U?$ParallelForAgent@U?$functor@PEANU?$compute_sequence_value@HX@detail@generic@2system@thrust@@_J@__tabulate@cuda_cub@thrust@@_J@__parallel_for@cuda_cub@thrust@@@core@cuda_cub@thrust@@QEBAXU?$integral_constant@_N$00@detail@3@U?$functor@PEANU?$compute_sequence_value@HX@detail@generic@2system@thrust@@_J@__tabulate@23@_J@Z 00000001800be100 f i c1_ex_DLModel_28.obj
 0001:000bd260       ??$log2@H@detail@thrust@@YAHH@Z 00000001800be260 f i c1_ex_DLModel_28.obj
 0001:000bd290       ??$log2_ri@H@detail@thrust@@YAHH@Z 00000001800be290 f i c1_ex_DLModel_28.obj
 0001:000bd2d0       ??$make_tuple@PEAHPEAN@thrust@@YA?AV?$tuple@PEAHPEANUnull_type@thrust@@U12@U12@U12@U12@U12@U12@U12@@0@AEBQEAHAEBQEAN@Z 00000001800be2d0 f i c1_ex_DLModel_28.obj
 0001:000bd310       ??$make_zip_iterator@PEAHPEANUnull_type@thrust@@U12@U12@U12@U12@U12@U12@U12@@thrust@@YA?AV?$zip_iterator@V?$tuple@PEAHPEANUnull_type@thrust@@U12@U12@U12@U12@U12@U12@U12@@thrust@@@0@V?$tuple@PEAHPEANUnull_type@thrust@@U12@U12@U12@U12@U12@U12@U12@@0@@Z 00000001800be310 f i c1_ex_DLModel_28.obj
 0001:000bd350       ??$max@AEB_KAEB_K@CUB_200200_890_NS@cub@@YAAEB_KAEB_K0@Z 00000001800be350 f i c1_ex_DLModel_28.obj
 0001:000bd3b0       ??$max@_K@std@@YAAEB_KAEB_K0@Z 00000001800be3b0 f i c1_ex_DLModel_28.obj
 0001:000bd400       ??$mergeSortPairs@N@@YAXPEAN0_NH@Z 00000001800be400 f i c1_ex_DLModel_28.obj
 0001:000bd570       ??$min@_K@std@@YAAEB_KAEB_K0@Z 00000001800be570 f i c1_ex_DLModel_28.obj
 0001:000bd5c0       ??$move@AEAH@std@@YA$$QEAHAEAH@Z 00000001800be5c0 f i c1_ex_DLModel_28.obj
 0001:000bd5d0       ??$move@AEAV?$allocator@D@std@@@std@@YA$$QEAV?$allocator@D@0@AEAV10@@Z 00000001800be5d0 f i c1_ex_DLModel_28.obj
 0001:000bd5e0       ??$move@AEAV?$basic_string@DU?$char_traits@D@std@@V?$allocator@D@2@@std@@@std@@YA$$QEAV?$basic_string@DU?$char_traits@D@std@@V?$allocator@D@2@@0@AEAV10@@Z 00000001800be5e0 f i c1_ex_DLModel_28.obj
 0001:000bd5f0       ??$move@AEAV?$tuple@AEBH@std@@@std@@YA$$QEAV?$tuple@AEBH@0@AEAV10@@Z 00000001800be5f0 f i c1_ex_DLModel_28.obj
 0001:000bd600       ??$must_perform_optional_stream_synchronization@Upar_t@cuda_cub@thrust@@@cuda_cub@thrust@@YA_NAEAU?$execution_policy@Upar_t@cuda_cub@thrust@@@01@@Z 00000001800be600 f i c1_ex_DLModel_28.obj
 0001:000bd610       ??$must_perform_optional_synchronization@Upar_t@cuda_cub@thrust@@@cuda_cub@thrust@@YA_NAEAU?$execution_policy@Upar_t@cuda_cub@thrust@@@01@@Z 00000001800be610 f i c1_ex_DLModel_28.obj
 0001:000bd630       ??$mwCudaFree@H@@YA?AW4cudaError@@PEAH@Z 00000001800be630 f i c1_ex_DLModel_28.obj
 0001:000bd650       ??$mwCudaFree@N@@YA?AW4cudaError@@PEAN@Z 00000001800be650 f i c1_ex_DLModel_28.obj
 0001:000bd670       ??$mwCudaFree@U?$ValueIndexPair@N@@@@YA?AW4cudaError@@PEAU?$ValueIndexPair@N@@@Z 00000001800be670 f i c1_ex_DLModel_28.obj
 0001:000bd690       ??$mwCudaFree@X@@YA?AW4cudaError@@PEAX@Z 00000001800be690 f i c1_ex_DLModel_28.obj
 0001:000bd6b0       ??$mwCudaMalloc@H@@YA?AW4cudaError@@PEAPEAH_K@Z 00000001800be6b0 f i c1_ex_DLModel_28.obj
 0001:000bd6e0       ??$mwCudaMalloc@N@@YA?AW4cudaError@@PEAPEAN_K@Z 00000001800be6e0 f i c1_ex_DLModel_28.obj
 0001:000bd710       ??$mwCudaMalloc@U?$ValueIndexPair@N@@@@YA?AW4cudaError@@PEAPEAU?$ValueIndexPair@N@@_K@Z 00000001800be710 f i c1_ex_DLModel_28.obj
 0001:000bd740       ??$mwCudaMalloc@X@@YA?AW4cudaError@@PEAPEAX_K@Z 00000001800be740 f i c1_ex_DLModel_28.obj
 0001:000bd770       ??$parallel_for@U?$functor@PEANH@__fill@cuda_cub@thrust@@_J@__parallel_for@cuda_cub@thrust@@YA?AW4cudaError@@_JU?$functor@PEANH@__fill@12@PEAUCUstream_st@@@Z 00000001800be770 f i c1_ex_DLModel_28.obj
 0001:000bd860       ??$parallel_for@U?$functor@PEANU?$compute_sequence_value@HX@detail@generic@2system@thrust@@_J@__tabulate@cuda_cub@thrust@@_J@__parallel_for@cuda_cub@thrust@@YA?AW4cudaError@@_JU?$functor@PEANU?$compute_sequence_value@HX@detail@generic@2system@thrust@@_J@__tabulate@12@PEAUCUstream_st@@@Z 00000001800be860 f i c1_ex_DLModel_28.obj
 0001:000bd950       ??$parallel_for@Upar_t@cuda_cub@thrust@@U?$functor@PEANH@__fill@23@_J@cuda_cub@thrust@@YAXAEAU?$execution_policy@Upar_t@cuda_cub@thrust@@@01@U?$functor@PEANH@__fill@01@_J@Z 00000001800be950 f i c1_ex_DLModel_28.obj
 0001:000bd9e0       ??$parallel_for@Upar_t@cuda_cub@thrust@@U?$functor@PEANU?$compute_sequence_value@HX@detail@generic@2system@thrust@@_J@__tabulate@23@_J@cuda_cub@thrust@@YAXAEAU?$execution_policy@Upar_t@cuda_cub@thrust@@@01@U?$functor@PEANU?$compute_sequence_value@HX@detail@generic@2system@thrust@@_J@__tabulate@01@_J@Z 00000001800be9e0 f i c1_ex_DLModel_28.obj
 0001:000bda70       ??$print_info@P6AXU?$functor@PEANH@__fill@cuda_cub@thrust@@_J@Z@?$AgentLauncher@U?$ParallelForAgent@U?$functor@PEANH@__fill@cuda_cub@thrust@@_J@__parallel_for@cuda_cub@thrust@@@core@cuda_cub@thrust@@QEBAXP6AXU?$functor@PEANH@__fill@23@_J@Z@Z 00000001800bea70 f i c1_ex_DLModel_28.obj
 0001:000bda80       ??$print_info@P6AXU?$functor@PEANU?$compute_sequence_value@HX@detail@generic@2system@thrust@@_J@__tabulate@cuda_cub@thrust@@_J@Z@?$AgentLauncher@U?$ParallelForAgent@U?$functor@PEANU?$compute_sequence_value@HX@detail@generic@2system@thrust@@_J@__tabulate@cuda_cub@thrust@@_J@__parallel_for@cuda_cub@thrust@@@core@cuda_cub@thrust@@QEBAXP6AXU?$functor@PEANU?$compute_sequence_value@HX@detail@generic@2system@thrust@@_J@__tabulate@23@_J@Z@Z 00000001800bea80 f i c1_ex_DLModel_28.obj
 0001:000bda90       ??$sequence@Upar_t@cuda_cub@thrust@@PEANH@generic@detail@system@thrust@@YAXAEAU?$execution_policy@Upar_t@cuda_cub@thrust@@@3@PEAN1H@Z 00000001800bea90 f i c1_ex_DLModel_28.obj
 0001:000bdad0       ??$sequence@Upar_t@cuda_cub@thrust@@PEANH@generic@detail@system@thrust@@YAXAEAU?$execution_policy@Upar_t@cuda_cub@thrust@@@3@PEAN1HH@Z 00000001800bead0 f i c1_ex_DLModel_28.obj
 0001:000bdb30       ??$sequence@Upar_t@cuda_cub@thrust@@PEANH@thrust@@YAXAEBU?$execution_policy_base@Upar_t@cuda_cub@thrust@@@detail@0@PEAN1H@Z 00000001800beb30 f i c1_ex_DLModel_28.obj
 0001:000bdb80       ??$sequence@Upar_t@cuda_cub@thrust@@PEANH@thrust@@YAXAEBU?$execution_policy_base@Upar_t@cuda_cub@thrust@@@detail@0@PEAN1HH@Z 00000001800beb80 f i c1_ex_DLModel_28.obj
 0001:000bdbd0       ??$shuffleColMajorWithIndex@N@@YAXPEAN000PEAH1HH@Z 00000001800bebd0 f i c1_ex_DLModel_28.obj
 0001:000bdc40       ??$shuffleColMajorWithIndex_ndims_2@N@@YAXPEAN000HHHH@Z 00000001800bec40 f i c1_ex_DLModel_28.obj
 0001:000bdcb0       ??$shuffleColMajorWithIndex_ndims_3@N@@YAXPEAN000HHHHHH@Z 00000001800becb0 f i c1_ex_DLModel_28.obj
 0001:000bdd40       ??$shuffleRowMajorWithIndex@N@@YAXPEAN000PEAH1HH@Z 00000001800bed40 f i c1_ex_DLModel_28.obj
 0001:000bddb0       ??$shuffleRowMajorWithIndex_ndims_2@N@@YAXPEAN000HHHH@Z 00000001800bedb0 f i c1_ex_DLModel_28.obj
 0001:000bde20       ??$shuffleRowMajorWithIndex_ndims_3@N@@YAXPEAN000HHHHHH@Z 00000001800bee20 f i c1_ex_DLModel_28.obj
 0001:000bdeb0       ??$sortAlongEdgeDimWithIndex@N@@YAXPEAN0H_NH@Z 00000001800beeb0 f i c1_ex_DLModel_28.obj
 0001:000bdff0       ??$sortAlongOtherDimWithIndex@N@@YAXPEAN0HPEBHH_NH2@Z 00000001800beff0 f i c1_ex_DLModel_28.obj
 0001:000be990       ??$sortMatrixWithIndex@N@@YAXPEAN0PEAH_NH@Z 00000001800bf990 f i c1_ex_DLModel_28.obj
 0001:000be9d0       ??$sortMatrixWithNaNWithIndex@N@@YAXPEAN0PEAH_NH@Z 00000001800bf9d0 f i c1_ex_DLModel_28.obj
 0001:000bf010       ??$sortPairs@N@@YAXPEAN0_NH@Z 00000001800c0010 f i c1_ex_DLModel_28.obj
 0001:000bf050       ??$stream@Upar_t@cuda_cub@thrust@@@cuda_cub@thrust@@YAPEAUCUstream_st@@AEAU?$execution_policy@Upar_t@cuda_cub@thrust@@@01@@Z 00000001800c0050 f i c1_ex_DLModel_28.obj
 0001:000bf070       ??$strip_const@Upar_t@cuda_cub@thrust@@@detail@thrust@@YAAEAU?$execution_policy_base@Upar_t@cuda_cub@thrust@@@01@AEBU201@@Z 00000001800c0070 f i c1_ex_DLModel_28.obj
 0001:000bf080       ??$synchronize_optional@U?$execution_policy@Upar_t@cuda_cub@thrust@@@cuda_cub@thrust@@@cuda_cub@thrust@@YA?AW4cudaError@@AEAU?$execution_policy@Upar_t@cuda_cub@thrust@@@01@@Z 00000001800c0080 f i c1_ex_DLModel_28.obj
 0001:000bf0a0       ??$synchronize_stream@Upar_t@cuda_cub@thrust@@@cuda_cub@thrust@@YA?AW4cudaError@@AEAU?$execution_policy@Upar_t@cuda_cub@thrust@@@01@@Z 00000001800c00a0 f i c1_ex_DLModel_28.obj
 0001:000bf0c0       ??$synchronize_stream_optional@Upar_t@cuda_cub@thrust@@@cuda_cub@thrust@@YA?AW4cudaError@@AEAU?$execution_policy@Upar_t@cuda_cub@thrust@@@01@@Z 00000001800c00c0 f i c1_ex_DLModel_28.obj
 0001:000bf100       ??$tabulate@Upar_t@cuda_cub@thrust@@PEANU?$compute_sequence_value@HX@detail@generic@5system@3@@cuda_cub@thrust@@YAXAEAU?$execution_policy@Upar_t@cuda_cub@thrust@@@01@PEAN1U?$compute_sequence_value@HX@detail@generic@4system@1@@Z 00000001800c0100 f i c1_ex_DLModel_28.obj
 0001:000bf180       ??$tabulate@Upar_t@cuda_cub@thrust@@PEANU?$compute_sequence_value@HX@detail@generic@5system@3@@thrust@@YAXAEBU?$execution_policy_base@Upar_t@cuda_cub@thrust@@@detail@0@PEAN1U?$compute_sequence_value@HX@2generic@2system@0@@Z 00000001800c0180 f i c1_ex_DLModel_28.obj
 0001:000bf1d0       ??$thrustSortDeviceImplWithIndex@N@@YAXPEAN0HPEBHH_N2@Z 00000001800c01d0 f i c1_ex_DLModel_28.obj
 0001:000bf200       ??0<lambda_26dc67e6bdc8c2be849c999d1c759607>@@QEAA@AEAY0CL@DAEAH@Z 00000001800c0200 f i c1_ex_DLModel_28.obj
 0001:000bf230       ??0<lambda_42067c8a666a374cdff22a4ba63c972e>@@QEAA@AEAV<lambda_26dc67e6bdc8c2be849c999d1c759607>@@@Z 00000001800c0230 f i c1_ex_DLModel_28.obj
 0001:000bf250       ??0<lambda_8e42fde9b3efe5cab16583d698397035>@@QEAA@AEBH@Z 00000001800c0250 f i c1_ex_DLModel_28.obj
 0001:000bf270       ??0?$BlockSortLauncher@PEANPEANPEANPEANHUPolicy600@?$DeviceMergeSortPolicy@PEAN@CUB_200200_890_NS@cub@@U1234@U?$customGreater@N@@NN$00@CUB_200200_890_NS@cub@@QEAA@H_K_NPEAN222HU?$customGreater@N@@PEAUCUstream_st@@22PEAD@Z 00000001800c0270 f i c1_ex_DLModel_28.obj
 0001:000bf330       ??0?$BlockSortLauncher@PEANPEANPEANPEANHUPolicy600@?$DeviceMergeSortPolicy@PEAN@CUB_200200_890_NS@cub@@U1234@U?$customLesser@N@@NN$00@CUB_200200_890_NS@cub@@QEAA@H_K_NPEAN222HU?$customLesser@N@@PEAUCUstream_st@@22PEAD@Z 00000001800c0330 f i c1_ex_DLModel_28.obj
 0001:000bf3f0       ??0?$BlockSortLauncher@PEANPEANPEANPEANHUPolicy600@?$DeviceMergeSortPolicy@PEAN@CUB_200200_890_NS@cub@@UPolicy350@234@U?$customGreater@N@@NN$00@CUB_200200_890_NS@cub@@QEAA@H_K_NPEAN222HU?$customGreater@N@@PEAUCUstream_st@@22PEAD@Z 00000001800c03f0 f i c1_ex_DLModel_28.obj
 0001:000bf4b0       ??0?$BlockSortLauncher@PEANPEANPEANPEANHUPolicy600@?$DeviceMergeSortPolicy@PEAN@CUB_200200_890_NS@cub@@UPolicy350@234@U?$customLesser@N@@NN$00@CUB_200200_890_NS@cub@@QEAA@H_K_NPEAN222HU?$customLesser@N@@PEAUCUstream_st@@22PEAD@Z 00000001800c04b0 f i c1_ex_DLModel_28.obj
 0001:000bf570       ??0?$BlockSortLauncher@PEANPEANPEANPEANHUPolicy600@?$DeviceMergeSortPolicy@PEAN@CUB_200200_890_NS@cub@@UPolicy520@234@U?$customGreater@N@@NN$00@CUB_200200_890_NS@cub@@QEAA@H_K_NPEAN222HU?$customGreater@N@@PEAUCUstream_st@@22PEAD@Z 00000001800c0570 f i c1_ex_DLModel_28.obj
 0001:000bf630       ??0?$BlockSortLauncher@PEANPEANPEANPEANHUPolicy600@?$DeviceMergeSortPolicy@PEAN@CUB_200200_890_NS@cub@@UPolicy520@234@U?$customLesser@N@@NN$00@CUB_200200_890_NS@cub@@QEAA@H_K_NPEAN222HU?$customLesser@N@@PEAUCUstream_st@@22PEAD@Z 00000001800c0630 f i c1_ex_DLModel_28.obj
 0001:000bf6f0       ??0?$BlockSortLauncher@PEANV?$zip_iterator@V?$tuple@PEAHPEANUnull_type@thrust@@U12@U12@U12@U12@U12@U12@U12@@thrust@@@thrust@@PEANV12@HUPolicy600@?$DeviceMergeSortPolicy@PEAN@CUB_200200_890_NS@cub@@U3456@U?$customGreater@N@@NV?$tuple@HNUnull_type@thrust@@U12@U12@U12@U12@U12@U12@U12@@2@$00@CUB_200200_890_NS@cub@@QEAA@H_K_NPEANV?$zip_iterator@V?$tuple@PEAHPEANUnull_type@thrust@@U12@U12@U12@U12@U12@U12@U12@@thrust@@@thrust@@23HU?$customGreater@N@@PEAUCUstream_st@@2PEAV?$tuple@HNUnull_type@thrust@@U12@U12@U12@U12@U12@U12@U12@@4@PEAD@Z 00000001800c06f0 f i c1_ex_DLModel_28.obj
 0001:000bf7c0       ??0?$BlockSortLauncher@PEANV?$zip_iterator@V?$tuple@PEAHPEANUnull_type@thrust@@U12@U12@U12@U12@U12@U12@U12@@thrust@@@thrust@@PEANV12@HUPolicy600@?$DeviceMergeSortPolicy@PEAN@CUB_200200_890_NS@cub@@U3456@U?$customLesser@N@@NV?$tuple@HNUnull_type@thrust@@U12@U12@U12@U12@U12@U12@U12@@2@$00@CUB_200200_890_NS@cub@@QEAA@H_K_NPEANV?$zip_iterator@V?$tuple@PEAHPEANUnull_type@thrust@@U12@U12@U12@U12@U12@U12@U12@@thrust@@@thrust@@23HU?$customLesser@N@@PEAUCUstream_st@@2PEAV?$tuple@HNUnull_type@thrust@@U12@U12@U12@U12@U12@U12@U12@@4@PEAD@Z 00000001800c07c0 f i c1_ex_DLModel_28.obj
 0001:000bf890       ??0?$BlockSortLauncher@PEANV?$zip_iterator@V?$tuple@PEAHPEANUnull_type@thrust@@U12@U12@U12@U12@U12@U12@U12@@thrust@@@thrust@@PEANV12@HUPolicy600@?$DeviceMergeSortPolicy@PEAN@CUB_200200_890_NS@cub@@UPolicy350@456@U?$customGreater@N@@NV?$tuple@HNUnull_type@thrust@@U12@U12@U12@U12@U12@U12@U12@@2@$00@CUB_200200_890_NS@cub@@QEAA@H_K_NPEANV?$zip_iterator@V?$tuple@PEAHPEANUnull_type@thrust@@U12@U12@U12@U12@U12@U12@U12@@thrust@@@thrust@@23HU?$customGreater@N@@PEAUCUstream_st@@2PEAV?$tuple@HNUnull_type@thrust@@U12@U12@U12@U12@U12@U12@U12@@4@PEAD@Z 00000001800c0890 f i c1_ex_DLModel_28.obj
 0001:000bf960       ??0?$BlockSortLauncher@PEANV?$zip_iterator@V?$tuple@PEAHPEANUnull_type@thrust@@U12@U12@U12@U12@U12@U12@U12@@thrust@@@thrust@@PEANV12@HUPolicy600@?$DeviceMergeSortPolicy@PEAN@CUB_200200_890_NS@cub@@UPolicy350@456@U?$customLesser@N@@NV?$tuple@HNUnull_type@thrust@@U12@U12@U12@U12@U12@U12@U12@@2@$00@CUB_200200_890_NS@cub@@QEAA@H_K_NPEANV?$zip_iterator@V?$tuple@PEAHPEANUnull_type@thrust@@U12@U12@U12@U12@U12@U12@U12@@thrust@@@thrust@@23HU?$customLesser@N@@PEAUCUstream_st@@2PEAV?$tuple@HNUnull_type@thrust@@U12@U12@U12@U12@U12@U12@U12@@4@PEAD@Z 00000001800c0960 f i c1_ex_DLModel_28.obj
 0001:000bfa30       ??0?$BlockSortLauncher@PEANV?$zip_iterator@V?$tuple@PEAHPEANUnull_type@thrust@@U12@U12@U12@U12@U12@U12@U12@@thrust@@@thrust@@PEANV12@HUPolicy600@?$DeviceMergeSortPolicy@PEAN@CUB_200200_890_NS@cub@@UPolicy520@456@U?$customGreater@N@@NV?$tuple@HNUnull_type@thrust@@U12@U12@U12@U12@U12@U12@U12@@2@$0A@@CUB_200200_890_NS@cub@@QEAA@H_K_NPEANV?$zip_iterator@V?$tuple@PEAHPEANUnull_type@thrust@@U12@U12@U12@U12@U12@U12@U12@@thrust@@@thrust@@23HU?$customGreater@N@@PEAUCUstream_st@@2PEAV?$tuple@HNUnull_type@thrust@@U12@U12@U12@U12@U12@U12@U12@@4@PEAD@Z 00000001800c0a30 f i c1_ex_DLModel_28.obj
 0001:000bfb00       ??0?$BlockSortLauncher@PEANV?$zip_iterator@V?$tuple@PEAHPEANUnull_type@thrust@@U12@U12@U12@U12@U12@U12@U12@@thrust@@@thrust@@PEANV12@HUPolicy600@?$DeviceMergeSortPolicy@PEAN@CUB_200200_890_NS@cub@@UPolicy520@456@U?$customLesser@N@@NV?$tuple@HNUnull_type@thrust@@U12@U12@U12@U12@U12@U12@U12@@2@$0A@@CUB_200200_890_NS@cub@@QEAA@H_K_NPEANV?$zip_iterator@V?$tuple@PEAHPEANUnull_type@thrust@@U12@U12@U12@U12@U12@U12@U12@@thrust@@@thrust@@23HU?$customLesser@N@@PEAUCUstream_st@@2PEAV?$tuple@HNUnull_type@thrust@@U12@U12@U12@U12@U12@U12@U12@@4@PEAD@Z 00000001800c0b00 f i c1_ex_DLModel_28.obj
 0001:000bfbd0       ??0?$DispatchMergeSort@PEANPEANPEANPEANHU?$customGreater@N@@U?$DeviceMergeSortPolicy@PEAN@CUB_200200_890_NS@cub@@@CUB_200200_890_NS@cub@@QEAA@PEAXAEA_KPEAN222HU?$customGreater@N@@PEAUCUstream_st@@H@Z 00000001800c0bd0 f i c1_ex_DLModel_28.obj
 0001:000bfc70       ??0?$DispatchMergeSort@PEANPEANPEANPEANHU?$customLesser@N@@U?$DeviceMergeSortPolicy@PEAN@CUB_200200_890_NS@cub@@@CUB_200200_890_NS@cub@@QEAA@PEAXAEA_KPEAN222HU?$customLesser@N@@PEAUCUstream_st@@H@Z 00000001800c0c70 f i c1_ex_DLModel_28.obj
 0001:000bfd10       ??0?$DispatchMergeSort@PEANV?$zip_iterator@V?$tuple@PEAHPEANUnull_type@thrust@@U12@U12@U12@U12@U12@U12@U12@@thrust@@@thrust@@PEANV12@HU?$customGreater@N@@U?$DeviceMergeSortPolicy@PEAN@CUB_200200_890_NS@cub@@@CUB_200200_890_NS@cub@@QEAA@PEAXAEA_KPEANV?$zip_iterator@V?$tuple@PEAHPEANUnull_type@thrust@@U12@U12@U12@U12@U12@U12@U12@@thrust@@@thrust@@23HU?$customGreater@N@@PEAUCUstream_st@@H@Z 00000001800c0d10 f i c1_ex_DLModel_28.obj
 0001:000bfdc0       ??0?$DispatchMergeSort@PEANV?$zip_iterator@V?$tuple@PEAHPEANUnull_type@thrust@@U12@U12@U12@U12@U12@U12@U12@@thrust@@@thrust@@PEANV12@HU?$customLesser@N@@U?$DeviceMergeSortPolicy@PEAN@CUB_200200_890_NS@cub@@@CUB_200200_890_NS@cub@@QEAA@PEAXAEA_KPEANV?$zip_iterator@V?$tuple@PEAHPEANUnull_type@thrust@@U12@U12@U12@U12@U12@U12@U12@@thrust@@@thrust@@23HU?$customLesser@N@@PEAUCUstream_st@@H@Z 00000001800c0dc0 f i c1_ex_DLModel_28.obj
 0001:000bfe70       ??0?$DispatchRadixSort@$0A@HU?$ValueIndexPair@N@@IU?$DeviceRadixSortPolicy@HU?$ValueIndexPair@N@@I@CUB_200200_890_NS@cub@@Uidentity_decomposer_t@detail@34@@CUB_200200_890_NS@cub@@QEAA@PEAXAEA_KAEAU?$DoubleBuffer@H@12@AEAU?$DoubleBuffer@U?$ValueIndexPair@N@@@12@IHH_NPEAUCUstream_st@@HUidentity_decomposer_t@detail@12@@Z 00000001800c0e70 f i c1_ex_DLModel_28.obj
 0001:000bff10       ??0?$DoubleBuffer@H@CUB_200200_890_NS@cub@@QEAA@PEAH0@Z 00000001800c0f10 f i c1_ex_DLModel_28.obj
 0001:000bff60       ??0?$DoubleBuffer@U?$ValueIndexPair@N@@@CUB_200200_890_NS@cub@@QEAA@PEAU?$ValueIndexPair@N@@0@Z 00000001800c0f60 f i c1_ex_DLModel_28.obj
 0001:000bffb0       ??0?$GridEvenShare@I@CUB_200200_890_NS@cub@@QEAA@XZ 00000001800c0fb0 f i c1_ex_DLModel_28.obj
 0001:000c0040       ??0?$MWTensor@M@@QEAA@XZ   00000001800c1040 f i c1_ex_DLModel_28.obj
 0001:000c0080       ??0?$MergeLauncher@PEANPEANHUPolicy600@?$DeviceMergeSortPolicy@PEAN@CUB_200200_890_NS@cub@@U1234@U?$customGreater@N@@NN$00@CUB_200200_890_NS@cub@@QEAA@H_KPEAN1HU?$customGreater@N@@PEAHPEAUCUstream_st@@11PEAD@Z 00000001800c1080 f i c1_ex_DLModel_28.obj
 0001:000c0120       ??0?$MergeLauncher@PEANPEANHUPolicy600@?$DeviceMergeSortPolicy@PEAN@CUB_200200_890_NS@cub@@U1234@U?$customLesser@N@@NN$00@CUB_200200_890_NS@cub@@QEAA@H_KPEAN1HU?$customLesser@N@@PEAHPEAUCUstream_st@@11PEAD@Z 00000001800c1120 f i c1_ex_DLModel_28.obj
 0001:000c01c0       ??0?$MergeLauncher@PEANPEANHUPolicy600@?$DeviceMergeSortPolicy@PEAN@CUB_200200_890_NS@cub@@UPolicy350@234@U?$customGreater@N@@NN$00@CUB_200200_890_NS@cub@@QEAA@H_KPEAN1HU?$customGreater@N@@PEAHPEAUCUstream_st@@11PEAD@Z 00000001800c11c0 f i c1_ex_DLModel_28.obj
 0001:000c0260       ??0?$MergeLauncher@PEANPEANHUPolicy600@?$DeviceMergeSortPolicy@PEAN@CUB_200200_890_NS@cub@@UPolicy350@234@U?$customLesser@N@@NN$00@CUB_200200_890_NS@cub@@QEAA@H_KPEAN1HU?$customLesser@N@@PEAHPEAUCUstream_st@@11PEAD@Z 00000001800c1260 f i c1_ex_DLModel_28.obj
 0001:000c0300       ??0?$MergeLauncher@PEANPEANHUPolicy600@?$DeviceMergeSortPolicy@PEAN@CUB_200200_890_NS@cub@@UPolicy520@234@U?$customGreater@N@@NN$00@CUB_200200_890_NS@cub@@QEAA@H_KPEAN1HU?$customGreater@N@@PEAHPEAUCUstream_st@@11PEAD@Z 00000001800c1300 f i c1_ex_DLModel_28.obj
 0001:000c03a0       ??0?$MergeLauncher@PEANPEANHUPolicy600@?$DeviceMergeSortPolicy@PEAN@CUB_200200_890_NS@cub@@UPolicy520@234@U?$customLesser@N@@NN$00@CUB_200200_890_NS@cub@@QEAA@H_KPEAN1HU?$customLesser@N@@PEAHPEAUCUstream_st@@11PEAD@Z 00000001800c13a0 f i c1_ex_DLModel_28.obj
 0001:000c0440       ??0?$MergeLauncher@PEANV?$zip_iterator@V?$tuple@PEAHPEANUnull_type@thrust@@U12@U12@U12@U12@U12@U12@U12@@thrust@@@thrust@@HUPolicy600@?$DeviceMergeSortPolicy@PEAN@CUB_200200_890_NS@cub@@U3456@U?$customGreater@N@@NV?$tuple@HNUnull_type@thrust@@U12@U12@U12@U12@U12@U12@U12@@2@$00@CUB_200200_890_NS@cub@@QEAA@H_KPEANV?$zip_iterator@V?$tuple@PEAHPEANUnull_type@thrust@@U12@U12@U12@U12@U12@U12@U12@@thrust@@@thrust@@HU?$customGreater@N@@PEAHPEAUCUstream_st@@1PEAV?$tuple@HNUnull_type@thrust@@U12@U12@U12@U12@U12@U12@U12@@4@PEAD@Z 00000001800c1440 f i c1_ex_DLModel_28.obj
 0001:000c04f0       ??0?$MergeLauncher@PEANV?$zip_iterator@V?$tuple@PEAHPEANUnull_type@thrust@@U12@U12@U12@U12@U12@U12@U12@@thrust@@@thrust@@HUPolicy600@?$DeviceMergeSortPolicy@PEAN@CUB_200200_890_NS@cub@@U3456@U?$customLesser@N@@NV?$tuple@HNUnull_type@thrust@@U12@U12@U12@U12@U12@U12@U12@@2@$00@CUB_200200_890_NS@cub@@QEAA@H_KPEANV?$zip_iterator@V?$tuple@PEAHPEANUnull_type@thrust@@U12@U12@U12@U12@U12@U12@U12@@thrust@@@thrust@@HU?$customLesser@N@@PEAHPEAUCUstream_st@@1PEAV?$tuple@HNUnull_type@thrust@@U12@U12@U12@U12@U12@U12@U12@@4@PEAD@Z 00000001800c14f0 f i c1_ex_DLModel_28.obj
 0001:000c05a0       ??0?$MergeLauncher@PEANV?$zip_iterator@V?$tuple@PEAHPEANUnull_type@thrust@@U12@U12@U12@U12@U12@U12@U12@@thrust@@@thrust@@HUPolicy600@?$DeviceMergeSortPolicy@PEAN@CUB_200200_890_NS@cub@@UPolicy350@456@U?$customGreater@N@@NV?$tuple@HNUnull_type@thrust@@U12@U12@U12@U12@U12@U12@U12@@2@$00@CUB_200200_890_NS@cub@@QEAA@H_KPEANV?$zip_iterator@V?$tuple@PEAHPEANUnull_type@thrust@@U12@U12@U12@U12@U12@U12@U12@@thrust@@@thrust@@HU?$customGreater@N@@PEAHPEAUCUstream_st@@1PEAV?$tuple@HNUnull_type@thrust@@U12@U12@U12@U12@U12@U12@U12@@4@PEAD@Z 00000001800c15a0 f i c1_ex_DLModel_28.obj
 0001:000c0650       ??0?$MergeLauncher@PEANV?$zip_iterator@V?$tuple@PEAHPEANUnull_type@thrust@@U12@U12@U12@U12@U12@U12@U12@@thrust@@@thrust@@HUPolicy600@?$DeviceMergeSortPolicy@PEAN@CUB_200200_890_NS@cub@@UPolicy350@456@U?$customLesser@N@@NV?$tuple@HNUnull_type@thrust@@U12@U12@U12@U12@U12@U12@U12@@2@$00@CUB_200200_890_NS@cub@@QEAA@H_KPEANV?$zip_iterator@V?$tuple@PEAHPEANUnull_type@thrust@@U12@U12@U12@U12@U12@U12@U12@@thrust@@@thrust@@HU?$customLesser@N@@PEAHPEAUCUstream_st@@1PEAV?$tuple@HNUnull_type@thrust@@U12@U12@U12@U12@U12@U12@U12@@4@PEAD@Z 00000001800c1650 f i c1_ex_DLModel_28.obj
 0001:000c0700       ??0?$MergeLauncher@PEANV?$zip_iterator@V?$tuple@PEAHPEANUnull_type@thrust@@U12@U12@U12@U12@U12@U12@U12@@thrust@@@thrust@@HUPolicy600@?$DeviceMergeSortPolicy@PEAN@CUB_200200_890_NS@cub@@UPolicy520@456@U?$customGreater@N@@NV?$tuple@HNUnull_type@thrust@@U12@U12@U12@U12@U12@U12@U12@@2@$0A@@CUB_200200_890_NS@cub@@QEAA@H_KPEANV?$zip_iterator@V?$tuple@PEAHPEANUnull_type@thrust@@U12@U12@U12@U12@U12@U12@U12@@thrust@@@thrust@@HU?$customGreater@N@@PEAHPEAUCUstream_st@@1PEAV?$tuple@HNUnull_type@thrust@@U12@U12@U12@U12@U12@U12@U12@@4@PEAD@Z 00000001800c1700 f i c1_ex_DLModel_28.obj
 0001:000c07b0       ??0?$MergeLauncher@PEANV?$zip_iterator@V?$tuple@PEAHPEANUnull_type@thrust@@U12@U12@U12@U12@U12@U12@U12@@thrust@@@thrust@@HUPolicy600@?$DeviceMergeSortPolicy@PEAN@CUB_200200_890_NS@cub@@UPolicy520@456@U?$customLesser@N@@NV?$tuple@HNUnull_type@thrust@@U12@U12@U12@U12@U12@U12@U12@@2@$0A@@CUB_200200_890_NS@cub@@QEAA@H_KPEANV?$zip_iterator@V?$tuple@PEAHPEANUnull_type@thrust@@U12@U12@U12@U12@U12@U12@U12@@thrust@@@thrust@@HU?$customLesser@N@@PEAHPEAUCUstream_st@@1PEAV?$tuple@HNUnull_type@thrust@@U12@U12@U12@U12@U12@U12@U12@@4@PEAD@Z 00000001800c17b0 f i c1_ex_DLModel_28.obj
 0001:000c0860       ??0?$PassConfig@P6AXPEBHPEAIIHHU?$GridEvenShare@I@CUB_200200_890_NS@cub@@Uidentity_decomposer_t@detail@23@@ZP6AX1H@ZP6AX0PEAHPEBU?$ValueIndexPair@N@@PEAU6@1IHH23@Z@?$DispatchRadixSort@$0A@HU?$ValueIndexPair@N@@IU?$DeviceRadixSortPolicy@HU?$ValueIndexPair@N@@I@CUB_200200_890_NS@cub@@Uidentity_decomposer_t@detail@34@@CUB_200200_890_NS@cub@@QEAA@XZ 00000001800c1860 f i c1_ex_DLModel_28.obj
 0001:000c08c0       ??0?$ValueCache@H$1?DeviceCountUncached@CUB_200200_890_NS@cub@@YAHXZ@CUB_200200_890_NS@cub@@QEAA@XZ 00000001800c18c0 f i c1_ex_DLModel_28.obj
 0001:000c08e0       ??0?$_Alloc_construct_ptr@V?$allocator@U?$_Tree_node@U?$pair@$$CBHH@std@@PEAX@std@@@std@@@std@@QEAA@AEAV?$allocator@U?$_Tree_node@U?$pair@$$CBHH@std@@PEAX@std@@@1@@Z 00000001800c18e0 f i c1_ex_DLModel_28.obj
 0001:000c0910       ??0?$_String_val@U?$_Simple_types@D@std@@@std@@QEAA@XZ 00000001800c1910 f i c1_ex_DLModel_28.obj
 0001:000c0950       ??0?$_Tree_const_iterator@V?$_Tree_val@U?$_Tree_simple_types@U?$pair@$$CBHH@std@@@std@@@std@@@std@@QEAA@PEAU?$_Tree_node@U?$pair@$$CBHH@std@@PEAX@1@PEBV?$_Tree_val@U?$_Tree_simple_types@U?$pair@$$CBHH@std@@@std@@@1@@Z 00000001800c1950 f i c1_ex_DLModel_28.obj
 0001:000c0990       ??0?$_Tree_iterator@V?$_Tree_val@U?$_Tree_simple_types@U?$pair@$$CBHH@std@@@std@@@std@@@std@@QEAA@PEAU?$_Tree_node@U?$pair@$$CBHH@std@@PEAX@1@PEBV?$_Tree_val@U?$_Tree_simple_types@U?$pair@$$CBHH@std@@@std@@@1@@Z 00000001800c1990 f i c1_ex_DLModel_28.obj
 0001:000c09d0       ??0?$_Tree_temp_node_alloc@V?$allocator@U?$_Tree_node@U?$pair@$$CBHH@std@@PEAX@std@@@std@@@std@@QEAA@AEAV?$allocator@U?$_Tree_node@U?$pair@$$CBHH@std@@PEAX@std@@@1@@Z 00000001800c19d0 f i c1_ex_DLModel_28.obj
 0001:000c0a10       ??0?$_Tree_unchecked_const_iterator@V?$_Tree_val@U?$_Tree_simple_types@U?$pair@$$CBHH@std@@@std@@@std@@U_Iterator_base0@2@@std@@QEAA@PEAU?$_Tree_node@U?$pair@$$CBHH@std@@PEAX@1@PEBV?$_Tree_val@U?$_Tree_simple_types@U?$pair@$$CBHH@std@@@std@@@1@@Z 00000001800c1a10 f i c1_ex_DLModel_28.obj
 0001:000c0a50       ??0?$allocator@D@std@@QEAA@XZ 00000001800c1a50 f i c1_ex_DLModel_28.obj
 0001:000c0a60       ??0?$array@UDeviceEntry@PerDeviceAttributeCache@CUB_200200_890_NS@cub@@$0IA@@std@@QEAA@XZ 00000001800c1a60 f i c1_ex_DLModel_28.obj
 0001:000c0aa0       ??0?$atomic@W4DeviceEntryStatus@PerDeviceAttributeCache@CUB_200200_890_NS@cub@@@std@@QEAA@XZ 00000001800c1aa0 f i c1_ex_DLModel_28.obj
 0001:000c0ac0       ??0?$basic_string@DU?$char_traits@D@std@@V?$allocator@D@2@@std@@QEAA@$$QEAV01@@Z 00000001800c1ac0 f i c1_ex_DLModel_28.obj
 0001:000c0b20       ??0?$basic_string@DU?$char_traits@D@std@@V?$allocator@D@2@@std@@QEAA@AEBV01@@Z 00000001800c1b20 f i c1_ex_DLModel_28.obj
 0001:000c0ba0       ??0?$basic_string@DU?$char_traits@D@std@@V?$allocator@D@2@@std@@QEAA@QEBD@Z 00000001800c1ba0 f i c1_ex_DLModel_28.obj
 0001:000c0c20       ??0?$basic_string@DU?$char_traits@D@std@@V?$allocator@D@2@@std@@QEAA@XZ 00000001800c1c20 f i c1_ex_DLModel_28.obj
 0001:000c0c70       ??0?$functor@PEANH@__fill@cuda_cub@thrust@@QEAA@PEANH@Z 00000001800c1c70 f i c1_ex_DLModel_28.obj
 0001:000c0ca0       ??0?$functor@PEANU?$compute_sequence_value@HX@detail@generic@2system@thrust@@_J@__tabulate@cuda_cub@thrust@@QEAA@PEANU?$compute_sequence_value@HX@detail@generic@5system@3@@Z 00000001800c1ca0 f i c1_ex_DLModel_28.obj
 0001:000c0cd0       ??0?$tuple@$$V@std@@QEAA@AEBV01@@Z 00000001800c1cd0 f i c1_ex_DLModel_28.obj
 0001:000c0ce0       ??0?$tuple@AEBH@std@@QEAA@$$QEAV01@@Z 00000001800c1ce0 f i c1_ex_DLModel_28.obj
 0001:000c0d20       ??0?$tuple@PEAHPEANUnull_type@thrust@@U12@U12@U12@U12@U12@U12@U12@@thrust@@QEAA@AEBQEAHAEBQEAN@Z 00000001800c1d20 f i c1_ex_DLModel_28.obj
 0001:000c0db0       ??0?$zip_iterator@V?$tuple@PEAHPEANUnull_type@thrust@@U12@U12@U12@U12@U12@U12@U12@@thrust@@@thrust@@QEAA@V?$tuple@PEAHPEANUnull_type@thrust@@U12@U12@U12@U12@U12@U12@U12@@1@@Z 00000001800c1db0 f i c1_ex_DLModel_28.obj
 0001:000c0de0       ??0AgentPlan@core@cuda_cub@thrust@@QEAA@AEBU0123@@Z 00000001800c1de0 f i c1_ex_DLModel_28.obj
 0001:000c0e40       ??0DeviceEntry@PerDeviceAttributeCache@CUB_200200_890_NS@cub@@QEAA@XZ 00000001800c1e40 f i c1_ex_DLModel_28.obj
 0001:000c0e60       ??0KernelConfig@CUB_200200_890_NS@cub@@QEAA@XZ 00000001800c1e60 f i c1_ex_DLModel_28.obj
 0001:000c0ea0       ??0MWAvgPoolingLayer@@QEAA@XZ 00000001800c1ea0 f i c1_ex_DLModel_28.obj
 0001:000c0ee0       ??0MWConvLayer@@QEAA@XZ    00000001800c1ee0 f i c1_ex_DLModel_28.obj
 0001:000c0f10       ??0MWInputLayer@@QEAA@XZ   00000001800c1f10 f i c1_ex_DLModel_28.obj
 0001:000c0f40       ??0MWMaxPoolingLayer@@QEAA@XZ 00000001800c1f40 f i c1_ex_DLModel_28.obj
 0001:000c0f80       ??0MWOutputLayer@@QEAA@XZ  00000001800c1f80 f i c1_ex_DLModel_28.obj
 0001:000c0fb0       ??0MWTensorBase@@QEAA@XZ   00000001800c1fb0 f i c1_ex_DLModel_28.obj
 0001:000c1110       ??0PerDeviceAttributeCache@CUB_200200_890_NS@cub@@QEAA@XZ 00000001800c2110 f i c1_ex_DLModel_28.obj
 0001:000c1170       ??0SFc1_ex_DLModel_28InstanceStruct@@QEAA@XZ 00000001800c2170 f i c1_ex_DLModel_28.obj
 0001:000c11a0       ??0SwitchDevice@CUB_200200_890_NS@cub@@QEAA@H@Z 00000001800c21a0 f i c1_ex_DLModel_28.obj
 0001:000c1220       ??0_Bxty@?$_String_val@U?$_Simple_types@D@std@@@std@@QEAA@XZ 00000001800c2220 f i c1_ex_DLModel_28.obj
 0001:000c1240       ??0_Fake_proxy_ptr_impl@std@@QEAA@AEBU_Fake_allocator@1@AEBU_Container_base0@1@@Z 00000001800c2240 f i c1_ex_DLModel_28.obj
 0001:000c1260       ??0bad_alloc@std@@AEAA@QEBD@Z 00000001800c2260 f i c1_ex_DLModel_28.obj
 0001:000c12a0       ??0bad_alloc@std@@QEAA@AEBV01@@Z 00000001800c22a0 f i c1_ex_DLModel_28.obj
 0001:000c12e0       ??0bad_array_new_length@std@@QEAA@AEBV01@@Z 00000001800c22e0 f i c1_ex_DLModel_28.obj
 0001:000c1320       ??0bad_array_new_length@std@@QEAA@XZ 00000001800c2320 f i c1_ex_DLModel_28.obj
 0001:000c1360       ??0cuda_error_category@detail@cuda_cub@system@thrust@@QEAA@XZ 00000001800c2360 f i c1_ex_DLModel_28.obj
 0001:000c1390       ??0error_category@system@thrust@@QEAA@XZ 00000001800c2390 f i c1_ex_DLModel_28.obj
 0001:000c13b0       ??0error_code@system@thrust@@QEAA@HAEBVerror_category@12@@Z 00000001800c23b0 f i c1_ex_DLModel_28.obj
 0001:000c13e0       ??0error_condition@system@thrust@@QEAA@HAEBVerror_category@12@@Z 00000001800c23e0 f i c1_ex_DLModel_28.obj
 0001:000c1410       ??0exception@std@@QEAA@AEBV01@@Z 00000001800c2410 f i c1_ex_DLModel_28.obj
 0001:000c1470       ??0exception@std@@QEAA@QEBD@Z 00000001800c2470 f i c1_ex_DLModel_28.obj
 0001:000c14e0       ??0exception@std@@QEAA@QEBDH@Z 00000001800c24e0 f i c1_ex_DLModel_28.obj
 0001:000c1530       ??0generic_error_category@detail@system@thrust@@QEAA@XZ 00000001800c2530 f i c1_ex_DLModel_28.obj
 0001:000c1560       ??0runtime_error@std@@QEAA@AEBV01@@Z 00000001800c2560 f i c1_ex_DLModel_28.obj
 0001:000c15a0       ??0runtime_error@std@@QEAA@PEBD@Z 00000001800c25a0 f i c1_ex_DLModel_28.obj
 0001:000c15e0       ??0system_error@system@thrust@@QEAA@AEBV012@@Z 00000001800c25e0 f i c1_ex_DLModel_28.obj
 0001:000c1650       ??0system_error@system@thrust@@QEAA@HAEBVerror_category@12@PEBD@Z 00000001800c2650 f i c1_ex_DLModel_28.obj
 0001:000c16c0       ??0system_error_category@detail@system@thrust@@QEAA@XZ 00000001800c26c0 f i c1_ex_DLModel_28.obj
 0001:000c16f0       ??0triple_chevron@launcher@cuda_cub@thrust@@QEAA@Udim3@@0_KPEAUCUstream_st@@@Z 00000001800c26f0 f i c1_ex_DLModel_28.obj
 0001:000c1750       ??1?$MWTensor@M@@UEAA@XZ   00000001800c2750 f i c1_ex_DLModel_28.obj
 0001:000c1780       ??1?$_Alloc_construct_ptr@V?$allocator@U?$_Tree_node@U?$pair@$$CBHH@std@@PEAX@std@@@std@@@std@@QEAA@XZ 00000001800c2780 f i c1_ex_DLModel_28.obj
 0001:000c17c0       ??1?$_Compressed_pair@V?$allocator@D@std@@V?$_String_val@U?$_Simple_types@D@std@@@2@$00@std@@QEAA@XZ 00000001800c27c0 f i c1_ex_DLModel_28.obj
 0001:000c17e0       ??1?$_String_val@U?$_Simple_types@D@std@@@std@@QEAA@XZ 00000001800c27e0 f i c1_ex_DLModel_28.obj
 0001:000c1800       ??1?$_Tree_temp_node@V?$allocator@U?$_Tree_node@U?$pair@$$CBHH@std@@PEAX@std@@@std@@@std@@QEAA@XZ 00000001800c2800 f i c1_ex_DLModel_28.obj
 0001:000c1890       ??1?$_Tree_temp_node_alloc@V?$allocator@U?$_Tree_node@U?$pair@$$CBHH@std@@PEAX@std@@@std@@@std@@QEAA@XZ 00000001800c2890 f i c1_ex_DLModel_28.obj
 0001:000c18b0       ??1?$basic_string@DU?$char_traits@D@std@@V?$allocator@D@2@@std@@QEAA@XZ 00000001800c28b0 f i c1_ex_DLModel_28.obj
 0001:000c18e0       ??1MWAvgPoolingLayer@@UEAA@XZ 00000001800c28e0 f i c1_ex_DLModel_28.obj
 0001:000c1910       ??1MWConvLayer@@UEAA@XZ    00000001800c2910 f i c1_ex_DLModel_28.obj
 0001:000c1940       ??1MWInputLayer@@UEAA@XZ   00000001800c2940 f i c1_ex_DLModel_28.obj
 0001:000c1970       ??1MWMaxPoolingLayer@@UEAA@XZ 00000001800c2970 f i c1_ex_DLModel_28.obj
 0001:000c19a0       ??1MWOutputLayer@@UEAA@XZ  00000001800c29a0 f i c1_ex_DLModel_28.obj
 0001:000c19d0       ??1MWTensorBase@@UEAA@XZ   00000001800c29d0 f i c1_ex_DLModel_28.obj
 0001:000c1a00       ??1SFc1_ex_DLModel_28InstanceStruct@@QEAA@XZ 00000001800c2a00 f i c1_ex_DLModel_28.obj
 0001:000c1a30       ??1SwitchDevice@CUB_200200_890_NS@cub@@QEAA@XZ 00000001800c2a30 f i c1_ex_DLModel_28.obj
 0001:000c1a70       ??1_Bxty@?$_String_val@U?$_Simple_types@D@std@@@std@@QEAA@XZ 00000001800c2a70 f i c1_ex_DLModel_28.obj
 0001:000c1a80       ??1bad_alloc@std@@UEAA@XZ  00000001800c2a80 f i c1_ex_DLModel_28.obj
 0001:000c1aa0       ??1bad_array_new_length@std@@UEAA@XZ 00000001800c2aa0 f i c1_ex_DLModel_28.obj
 0001:000c1ac0       ??1c1_MWCustomSliceLayer_c1_Yolov9t0_ex_DLModel_2801@@UEAA@XZ 00000001800c2ac0 f i c1_ex_DLModel_28.obj
 0001:000c1ae0       ??1c1_MWCustomSliceLayer_c1_Yolov9t0_ex_DLModel_2802@@UEAA@XZ 00000001800c2ae0 f i c1_ex_DLModel_28.obj
 0001:000c1b00       ??1c1_MWCustomSliceLayer_c1_Yolov9t0_ex_DLModel_2803@@UEAA@XZ 00000001800c2b00 f i c1_ex_DLModel_28.obj
 0001:000c1b20       ??1c1_MWCustomSliceLayer_c1_Yolov9t0_ex_DLModel_2804@@UEAA@XZ 00000001800c2b20 f i c1_ex_DLModel_28.obj
 0001:000c1b40       ??1c1_MWCustomSliceLayer_c1_Yolov9t0_ex_DLModel_2805@@UEAA@XZ 00000001800c2b40 f i c1_ex_DLModel_28.obj
 0001:000c1b60       ??1c1_MWCustomSliceLayer_c1_Yolov9t0_ex_DLModel_2806@@UEAA@XZ 00000001800c2b60 f i c1_ex_DLModel_28.obj
 0001:000c1b80       ??1c1_MWCustomSliceLayer_c1_Yolov9t0_ex_DLModel_2807@@UEAA@XZ 00000001800c2b80 f i c1_ex_DLModel_28.obj
 0001:000c1ba0       ??1c1_MWCustomSliceLayer_c1_Yolov9t0_ex_DLModel_2808@@UEAA@XZ 00000001800c2ba0 f i c1_ex_DLModel_28.obj
 0001:000c1bc0       ??1c1_MWResize2DLayer_c1_Yolov9t0_ex_DLModel_2801@@UEAA@XZ 00000001800c2bc0 f i c1_ex_DLModel_28.obj
 0001:000c1be0       ??1c1_MWResize2DLayer_c1_Yolov9t0_ex_DLModel_2802@@UEAA@XZ 00000001800c2be0 f i c1_ex_DLModel_28.obj
 0001:000c1c00       ??1c1_MWSwishLayer_c1_Yolov9t0_ex_DLModel_280100@@UEAA@XZ 00000001800c2c00 f i c1_ex_DLModel_28.obj
 0001:000c1c20       ??1c1_MWSwishLayer_c1_Yolov9t0_ex_DLModel_280101@@UEAA@XZ 00000001800c2c20 f i c1_ex_DLModel_28.obj
 0001:000c1c40       ??1c1_MWSwishLayer_c1_Yolov9t0_ex_DLModel_280102@@UEAA@XZ 00000001800c2c40 f i c1_ex_DLModel_28.obj
 0001:000c1c60       ??1c1_MWSwishLayer_c1_Yolov9t0_ex_DLModel_280103@@UEAA@XZ 00000001800c2c60 f i c1_ex_DLModel_28.obj
 0001:000c1c80       ??1c1_MWSwishLayer_c1_Yolov9t0_ex_DLModel_280104@@UEAA@XZ 00000001800c2c80 f i c1_ex_DLModel_28.obj
 0001:000c1ca0       ??1c1_MWSwishLayer_c1_Yolov9t0_ex_DLModel_280105@@UEAA@XZ 00000001800c2ca0 f i c1_ex_DLModel_28.obj
 0001:000c1cc0       ??1c1_MWSwishLayer_c1_Yolov9t0_ex_DLModel_280106@@UEAA@XZ 00000001800c2cc0 f i c1_ex_DLModel_28.obj
 0001:000c1ce0       ??1c1_MWSwishLayer_c1_Yolov9t0_ex_DLModel_280107@@UEAA@XZ 00000001800c2ce0 f i c1_ex_DLModel_28.obj
 0001:000c1d00       ??1c1_MWSwishLayer_c1_Yolov9t0_ex_DLModel_280108@@UEAA@XZ 00000001800c2d00 f i c1_ex_DLModel_28.obj
 0001:000c1d20       ??1c1_MWSwishLayer_c1_Yolov9t0_ex_DLModel_280109@@UEAA@XZ 00000001800c2d20 f i c1_ex_DLModel_28.obj
 0001:000c1d40       ??1c1_MWSwishLayer_c1_Yolov9t0_ex_DLModel_28010@@UEAA@XZ 00000001800c2d40 f i c1_ex_DLModel_28.obj
 0001:000c1d60       ??1c1_MWSwishLayer_c1_Yolov9t0_ex_DLModel_280110@@UEAA@XZ 00000001800c2d60 f i c1_ex_DLModel_28.obj
 0001:000c1d80       ??1c1_MWSwishLayer_c1_Yolov9t0_ex_DLModel_280111@@UEAA@XZ 00000001800c2d80 f i c1_ex_DLModel_28.obj
 0001:000c1da0       ??1c1_MWSwishLayer_c1_Yolov9t0_ex_DLModel_280112@@UEAA@XZ 00000001800c2da0 f i c1_ex_DLModel_28.obj
 0001:000c1dc0       ??1c1_MWSwishLayer_c1_Yolov9t0_ex_DLModel_280113@@UEAA@XZ 00000001800c2dc0 f i c1_ex_DLModel_28.obj
 0001:000c1de0       ??1c1_MWSwishLayer_c1_Yolov9t0_ex_DLModel_280114@@UEAA@XZ 00000001800c2de0 f i c1_ex_DLModel_28.obj
 0001:000c1e00       ??1c1_MWSwishLayer_c1_Yolov9t0_ex_DLModel_280115@@UEAA@XZ 00000001800c2e00 f i c1_ex_DLModel_28.obj
 0001:000c1e20       ??1c1_MWSwishLayer_c1_Yolov9t0_ex_DLModel_280116@@UEAA@XZ 00000001800c2e20 f i c1_ex_DLModel_28.obj
 0001:000c1e40       ??1c1_MWSwishLayer_c1_Yolov9t0_ex_DLModel_280117@@UEAA@XZ 00000001800c2e40 f i c1_ex_DLModel_28.obj
 0001:000c1e60       ??1c1_MWSwishLayer_c1_Yolov9t0_ex_DLModel_280118@@UEAA@XZ 00000001800c2e60 f i c1_ex_DLModel_28.obj
 0001:000c1e80       ??1c1_MWSwishLayer_c1_Yolov9t0_ex_DLModel_280119@@UEAA@XZ 00000001800c2e80 f i c1_ex_DLModel_28.obj
 0001:000c1ea0       ??1c1_MWSwishLayer_c1_Yolov9t0_ex_DLModel_28011@@UEAA@XZ 00000001800c2ea0 f i c1_ex_DLModel_28.obj
 0001:000c1ec0       ??1c1_MWSwishLayer_c1_Yolov9t0_ex_DLModel_280120@@UEAA@XZ 00000001800c2ec0 f i c1_ex_DLModel_28.obj
 0001:000c1ee0       ??1c1_MWSwishLayer_c1_Yolov9t0_ex_DLModel_280121@@UEAA@XZ 00000001800c2ee0 f i c1_ex_DLModel_28.obj
 0001:000c1f00       ??1c1_MWSwishLayer_c1_Yolov9t0_ex_DLModel_280122@@UEAA@XZ 00000001800c2f00 f i c1_ex_DLModel_28.obj
 0001:000c1f20       ??1c1_MWSwishLayer_c1_Yolov9t0_ex_DLModel_280123@@UEAA@XZ 00000001800c2f20 f i c1_ex_DLModel_28.obj
 0001:000c1f40       ??1c1_MWSwishLayer_c1_Yolov9t0_ex_DLModel_280124@@UEAA@XZ 00000001800c2f40 f i c1_ex_DLModel_28.obj
 0001:000c1f60       ??1c1_MWSwishLayer_c1_Yolov9t0_ex_DLModel_280125@@UEAA@XZ 00000001800c2f60 f i c1_ex_DLModel_28.obj
 0001:000c1f80       ??1c1_MWSwishLayer_c1_Yolov9t0_ex_DLModel_280126@@UEAA@XZ 00000001800c2f80 f i c1_ex_DLModel_28.obj
 0001:000c1fa0       ??1c1_MWSwishLayer_c1_Yolov9t0_ex_DLModel_280127@@UEAA@XZ 00000001800c2fa0 f i c1_ex_DLModel_28.obj
 0001:000c1fc0       ??1c1_MWSwishLayer_c1_Yolov9t0_ex_DLModel_280128@@UEAA@XZ 00000001800c2fc0 f i c1_ex_DLModel_28.obj
 0001:000c1fe0       ??1c1_MWSwishLayer_c1_Yolov9t0_ex_DLModel_280129@@UEAA@XZ 00000001800c2fe0 f i c1_ex_DLModel_28.obj
 0001:000c2000       ??1c1_MWSwishLayer_c1_Yolov9t0_ex_DLModel_28012@@UEAA@XZ 00000001800c3000 f i c1_ex_DLModel_28.obj
 0001:000c2020       ??1c1_MWSwishLayer_c1_Yolov9t0_ex_DLModel_280130@@UEAA@XZ 00000001800c3020 f i c1_ex_DLModel_28.obj
 0001:000c2040       ??1c1_MWSwishLayer_c1_Yolov9t0_ex_DLModel_280131@@UEAA@XZ 00000001800c3040 f i c1_ex_DLModel_28.obj
 0001:000c2060       ??1c1_MWSwishLayer_c1_Yolov9t0_ex_DLModel_280132@@UEAA@XZ 00000001800c3060 f i c1_ex_DLModel_28.obj
 0001:000c2080       ??1c1_MWSwishLayer_c1_Yolov9t0_ex_DLModel_280133@@UEAA@XZ 00000001800c3080 f i c1_ex_DLModel_28.obj
 0001:000c20a0       ??1c1_MWSwishLayer_c1_Yolov9t0_ex_DLModel_280134@@UEAA@XZ 00000001800c30a0 f i c1_ex_DLModel_28.obj
 0001:000c20c0       ??1c1_MWSwishLayer_c1_Yolov9t0_ex_DLModel_280135@@UEAA@XZ 00000001800c30c0 f i c1_ex_DLModel_28.obj
 0001:000c20e0       ??1c1_MWSwishLayer_c1_Yolov9t0_ex_DLModel_280136@@UEAA@XZ 00000001800c30e0 f i c1_ex_DLModel_28.obj
 0001:000c2100       ??1c1_MWSwishLayer_c1_Yolov9t0_ex_DLModel_280137@@UEAA@XZ 00000001800c3100 f i c1_ex_DLModel_28.obj
 0001:000c2120       ??1c1_MWSwishLayer_c1_Yolov9t0_ex_DLModel_280138@@UEAA@XZ 00000001800c3120 f i c1_ex_DLModel_28.obj
 0001:000c2140       ??1c1_MWSwishLayer_c1_Yolov9t0_ex_DLModel_280139@@UEAA@XZ 00000001800c3140 f i c1_ex_DLModel_28.obj
 0001:000c2160       ??1c1_MWSwishLayer_c1_Yolov9t0_ex_DLModel_28013@@UEAA@XZ 00000001800c3160 f i c1_ex_DLModel_28.obj
 0001:000c2180       ??1c1_MWSwishLayer_c1_Yolov9t0_ex_DLModel_280140@@UEAA@XZ 00000001800c3180 f i c1_ex_DLModel_28.obj
 0001:000c21a0       ??1c1_MWSwishLayer_c1_Yolov9t0_ex_DLModel_280141@@UEAA@XZ 00000001800c31a0 f i c1_ex_DLModel_28.obj
 0001:000c21c0       ??1c1_MWSwishLayer_c1_Yolov9t0_ex_DLModel_280142@@UEAA@XZ 00000001800c31c0 f i c1_ex_DLModel_28.obj
 0001:000c21e0       ??1c1_MWSwishLayer_c1_Yolov9t0_ex_DLModel_280143@@UEAA@XZ 00000001800c31e0 f i c1_ex_DLModel_28.obj
 0001:000c2200       ??1c1_MWSwishLayer_c1_Yolov9t0_ex_DLModel_280144@@UEAA@XZ 00000001800c3200 f i c1_ex_DLModel_28.obj
 0001:000c2220       ??1c1_MWSwishLayer_c1_Yolov9t0_ex_DLModel_280145@@UEAA@XZ 00000001800c3220 f i c1_ex_DLModel_28.obj
 0001:000c2240       ??1c1_MWSwishLayer_c1_Yolov9t0_ex_DLModel_280146@@UEAA@XZ 00000001800c3240 f i c1_ex_DLModel_28.obj
 0001:000c2260       ??1c1_MWSwishLayer_c1_Yolov9t0_ex_DLModel_280147@@UEAA@XZ 00000001800c3260 f i c1_ex_DLModel_28.obj
 0001:000c2280       ??1c1_MWSwishLayer_c1_Yolov9t0_ex_DLModel_280148@@UEAA@XZ 00000001800c3280 f i c1_ex_DLModel_28.obj
 0001:000c22a0       ??1c1_MWSwishLayer_c1_Yolov9t0_ex_DLModel_280149@@UEAA@XZ 00000001800c32a0 f i c1_ex_DLModel_28.obj
 0001:000c22c0       ??1c1_MWSwishLayer_c1_Yolov9t0_ex_DLModel_28014@@UEAA@XZ 00000001800c32c0 f i c1_ex_DLModel_28.obj
 0001:000c22e0       ??1c1_MWSwishLayer_c1_Yolov9t0_ex_DLModel_280150@@UEAA@XZ 00000001800c32e0 f i c1_ex_DLModel_28.obj
 0001:000c2300       ??1c1_MWSwishLayer_c1_Yolov9t0_ex_DLModel_280151@@UEAA@XZ 00000001800c3300 f i c1_ex_DLModel_28.obj
 0001:000c2320       ??1c1_MWSwishLayer_c1_Yolov9t0_ex_DLModel_280152@@UEAA@XZ 00000001800c3320 f i c1_ex_DLModel_28.obj
 0001:000c2340       ??1c1_MWSwishLayer_c1_Yolov9t0_ex_DLModel_280153@@UEAA@XZ 00000001800c3340 f i c1_ex_DLModel_28.obj
 0001:000c2360       ??1c1_MWSwishLayer_c1_Yolov9t0_ex_DLModel_280154@@UEAA@XZ 00000001800c3360 f i c1_ex_DLModel_28.obj
 0001:000c2380       ??1c1_MWSwishLayer_c1_Yolov9t0_ex_DLModel_280155@@UEAA@XZ 00000001800c3380 f i c1_ex_DLModel_28.obj
 0001:000c23a0       ??1c1_MWSwishLayer_c1_Yolov9t0_ex_DLModel_280156@@UEAA@XZ 00000001800c33a0 f i c1_ex_DLModel_28.obj
 0001:000c23c0       ??1c1_MWSwishLayer_c1_Yolov9t0_ex_DLModel_280157@@UEAA@XZ 00000001800c33c0 f i c1_ex_DLModel_28.obj
 0001:000c23e0       ??1c1_MWSwishLayer_c1_Yolov9t0_ex_DLModel_280158@@UEAA@XZ 00000001800c33e0 f i c1_ex_DLModel_28.obj
 0001:000c2400       ??1c1_MWSwishLayer_c1_Yolov9t0_ex_DLModel_280159@@UEAA@XZ 00000001800c3400 f i c1_ex_DLModel_28.obj
 0001:000c2420       ??1c1_MWSwishLayer_c1_Yolov9t0_ex_DLModel_28015@@UEAA@XZ 00000001800c3420 f i c1_ex_DLModel_28.obj
 0001:000c2440       ??1c1_MWSwishLayer_c1_Yolov9t0_ex_DLModel_280160@@UEAA@XZ 00000001800c3440 f i c1_ex_DLModel_28.obj
 0001:000c2460       ??1c1_MWSwishLayer_c1_Yolov9t0_ex_DLModel_280161@@UEAA@XZ 00000001800c3460 f i c1_ex_DLModel_28.obj
 0001:000c2480       ??1c1_MWSwishLayer_c1_Yolov9t0_ex_DLModel_280162@@UEAA@XZ 00000001800c3480 f i c1_ex_DLModel_28.obj
 0001:000c24a0       ??1c1_MWSwishLayer_c1_Yolov9t0_ex_DLModel_280163@@UEAA@XZ 00000001800c34a0 f i c1_ex_DLModel_28.obj
 0001:000c24c0       ??1c1_MWSwishLayer_c1_Yolov9t0_ex_DLModel_280164@@UEAA@XZ 00000001800c34c0 f i c1_ex_DLModel_28.obj
 0001:000c24e0       ??1c1_MWSwishLayer_c1_Yolov9t0_ex_DLModel_280165@@UEAA@XZ 00000001800c34e0 f i c1_ex_DLModel_28.obj
 0001:000c2500       ??1c1_MWSwishLayer_c1_Yolov9t0_ex_DLModel_280166@@UEAA@XZ 00000001800c3500 f i c1_ex_DLModel_28.obj
 0001:000c2520       ??1c1_MWSwishLayer_c1_Yolov9t0_ex_DLModel_280167@@UEAA@XZ 00000001800c3520 f i c1_ex_DLModel_28.obj
 0001:000c2540       ??1c1_MWSwishLayer_c1_Yolov9t0_ex_DLModel_280168@@UEAA@XZ 00000001800c3540 f i c1_ex_DLModel_28.obj
 0001:000c2560       ??1c1_MWSwishLayer_c1_Yolov9t0_ex_DLModel_280169@@UEAA@XZ 00000001800c3560 f i c1_ex_DLModel_28.obj
 0001:000c2580       ??1c1_MWSwishLayer_c1_Yolov9t0_ex_DLModel_28016@@UEAA@XZ 00000001800c3580 f i c1_ex_DLModel_28.obj
 0001:000c25a0       ??1c1_MWSwishLayer_c1_Yolov9t0_ex_DLModel_280170@@UEAA@XZ 00000001800c35a0 f i c1_ex_DLModel_28.obj
 0001:000c25c0       ??1c1_MWSwishLayer_c1_Yolov9t0_ex_DLModel_280171@@UEAA@XZ 00000001800c35c0 f i c1_ex_DLModel_28.obj
 0001:000c25e0       ??1c1_MWSwishLayer_c1_Yolov9t0_ex_DLModel_280172@@UEAA@XZ 00000001800c35e0 f i c1_ex_DLModel_28.obj
 0001:000c2600       ??1c1_MWSwishLayer_c1_Yolov9t0_ex_DLModel_280173@@UEAA@XZ 00000001800c3600 f i c1_ex_DLModel_28.obj
 0001:000c2620       ??1c1_MWSwishLayer_c1_Yolov9t0_ex_DLModel_280174@@UEAA@XZ 00000001800c3620 f i c1_ex_DLModel_28.obj
 0001:000c2640       ??1c1_MWSwishLayer_c1_Yolov9t0_ex_DLModel_280175@@UEAA@XZ 00000001800c3640 f i c1_ex_DLModel_28.obj
 0001:000c2660       ??1c1_MWSwishLayer_c1_Yolov9t0_ex_DLModel_280176@@UEAA@XZ 00000001800c3660 f i c1_ex_DLModel_28.obj
 0001:000c2680       ??1c1_MWSwishLayer_c1_Yolov9t0_ex_DLModel_280177@@UEAA@XZ 00000001800c3680 f i c1_ex_DLModel_28.obj
 0001:000c26a0       ??1c1_MWSwishLayer_c1_Yolov9t0_ex_DLModel_280178@@UEAA@XZ 00000001800c36a0 f i c1_ex_DLModel_28.obj
 0001:000c26c0       ??1c1_MWSwishLayer_c1_Yolov9t0_ex_DLModel_280179@@UEAA@XZ 00000001800c36c0 f i c1_ex_DLModel_28.obj
 0001:000c26e0       ??1c1_MWSwishLayer_c1_Yolov9t0_ex_DLModel_28017@@UEAA@XZ 00000001800c36e0 f i c1_ex_DLModel_28.obj
 0001:000c2700       ??1c1_MWSwishLayer_c1_Yolov9t0_ex_DLModel_28018@@UEAA@XZ 00000001800c3700 f i c1_ex_DLModel_28.obj
 0001:000c2720       ??1c1_MWSwishLayer_c1_Yolov9t0_ex_DLModel_28019@@UEAA@XZ 00000001800c3720 f i c1_ex_DLModel_28.obj
 0001:000c2740       ??1c1_MWSwishLayer_c1_Yolov9t0_ex_DLModel_2801@@UEAA@XZ 00000001800c3740 f i c1_ex_DLModel_28.obj
 0001:000c2760       ??1c1_MWSwishLayer_c1_Yolov9t0_ex_DLModel_28020@@UEAA@XZ 00000001800c3760 f i c1_ex_DLModel_28.obj
 0001:000c2780       ??1c1_MWSwishLayer_c1_Yolov9t0_ex_DLModel_28021@@UEAA@XZ 00000001800c3780 f i c1_ex_DLModel_28.obj
 0001:000c27a0       ??1c1_MWSwishLayer_c1_Yolov9t0_ex_DLModel_28022@@UEAA@XZ 00000001800c37a0 f i c1_ex_DLModel_28.obj
 0001:000c27c0       ??1c1_MWSwishLayer_c1_Yolov9t0_ex_DLModel_28023@@UEAA@XZ 00000001800c37c0 f i c1_ex_DLModel_28.obj
 0001:000c27e0       ??1c1_MWSwishLayer_c1_Yolov9t0_ex_DLModel_28024@@UEAA@XZ 00000001800c37e0 f i c1_ex_DLModel_28.obj
 0001:000c2800       ??1c1_MWSwishLayer_c1_Yolov9t0_ex_DLModel_28025@@UEAA@XZ 00000001800c3800 f i c1_ex_DLModel_28.obj
 0001:000c2820       ??1c1_MWSwishLayer_c1_Yolov9t0_ex_DLModel_28026@@UEAA@XZ 00000001800c3820 f i c1_ex_DLModel_28.obj
 0001:000c2840       ??1c1_MWSwishLayer_c1_Yolov9t0_ex_DLModel_28027@@UEAA@XZ 00000001800c3840 f i c1_ex_DLModel_28.obj
 0001:000c2860       ??1c1_MWSwishLayer_c1_Yolov9t0_ex_DLModel_28028@@UEAA@XZ 00000001800c3860 f i c1_ex_DLModel_28.obj
 0001:000c2880       ??1c1_MWSwishLayer_c1_Yolov9t0_ex_DLModel_28029@@UEAA@XZ 00000001800c3880 f i c1_ex_DLModel_28.obj
 0001:000c28a0       ??1c1_MWSwishLayer_c1_Yolov9t0_ex_DLModel_2802@@UEAA@XZ 00000001800c38a0 f i c1_ex_DLModel_28.obj
 0001:000c28c0       ??1c1_MWSwishLayer_c1_Yolov9t0_ex_DLModel_28030@@UEAA@XZ 00000001800c38c0 f i c1_ex_DLModel_28.obj
 0001:000c28e0       ??1c1_MWSwishLayer_c1_Yolov9t0_ex_DLModel_28031@@UEAA@XZ 00000001800c38e0 f i c1_ex_DLModel_28.obj
 0001:000c2900       ??1c1_MWSwishLayer_c1_Yolov9t0_ex_DLModel_28032@@UEAA@XZ 00000001800c3900 f i c1_ex_DLModel_28.obj
 0001:000c2920       ??1c1_MWSwishLayer_c1_Yolov9t0_ex_DLModel_28033@@UEAA@XZ 00000001800c3920 f i c1_ex_DLModel_28.obj
 0001:000c2940       ??1c1_MWSwishLayer_c1_Yolov9t0_ex_DLModel_28034@@UEAA@XZ 00000001800c3940 f i c1_ex_DLModel_28.obj
 0001:000c2960       ??1c1_MWSwishLayer_c1_Yolov9t0_ex_DLModel_28035@@UEAA@XZ 00000001800c3960 f i c1_ex_DLModel_28.obj
 0001:000c2980       ??1c1_MWSwishLayer_c1_Yolov9t0_ex_DLModel_28036@@UEAA@XZ 00000001800c3980 f i c1_ex_DLModel_28.obj
 0001:000c29a0       ??1c1_MWSwishLayer_c1_Yolov9t0_ex_DLModel_28037@@UEAA@XZ 00000001800c39a0 f i c1_ex_DLModel_28.obj
 0001:000c29c0       ??1c1_MWSwishLayer_c1_Yolov9t0_ex_DLModel_28038@@UEAA@XZ 00000001800c39c0 f i c1_ex_DLModel_28.obj
 0001:000c29e0       ??1c1_MWSwishLayer_c1_Yolov9t0_ex_DLModel_28039@@UEAA@XZ 00000001800c39e0 f i c1_ex_DLModel_28.obj
 0001:000c2a00       ??1c1_MWSwishLayer_c1_Yolov9t0_ex_DLModel_2803@@UEAA@XZ 00000001800c3a00 f i c1_ex_DLModel_28.obj
 0001:000c2a20       ??1c1_MWSwishLayer_c1_Yolov9t0_ex_DLModel_28040@@UEAA@XZ 00000001800c3a20 f i c1_ex_DLModel_28.obj
 0001:000c2a40       ??1c1_MWSwishLayer_c1_Yolov9t0_ex_DLModel_28041@@UEAA@XZ 00000001800c3a40 f i c1_ex_DLModel_28.obj
 0001:000c2a60       ??1c1_MWSwishLayer_c1_Yolov9t0_ex_DLModel_28042@@UEAA@XZ 00000001800c3a60 f i c1_ex_DLModel_28.obj
 0001:000c2a80       ??1c1_MWSwishLayer_c1_Yolov9t0_ex_DLModel_28043@@UEAA@XZ 00000001800c3a80 f i c1_ex_DLModel_28.obj
 0001:000c2aa0       ??1c1_MWSwishLayer_c1_Yolov9t0_ex_DLModel_28044@@UEAA@XZ 00000001800c3aa0 f i c1_ex_DLModel_28.obj
 0001:000c2ac0       ??1c1_MWSwishLayer_c1_Yolov9t0_ex_DLModel_28045@@UEAA@XZ 00000001800c3ac0 f i c1_ex_DLModel_28.obj
 0001:000c2ae0       ??1c1_MWSwishLayer_c1_Yolov9t0_ex_DLModel_28046@@UEAA@XZ 00000001800c3ae0 f i c1_ex_DLModel_28.obj
 0001:000c2b00       ??1c1_MWSwishLayer_c1_Yolov9t0_ex_DLModel_28047@@UEAA@XZ 00000001800c3b00 f i c1_ex_DLModel_28.obj
 0001:000c2b20       ??1c1_MWSwishLayer_c1_Yolov9t0_ex_DLModel_28048@@UEAA@XZ 00000001800c3b20 f i c1_ex_DLModel_28.obj
 0001:000c2b40       ??1c1_MWSwishLayer_c1_Yolov9t0_ex_DLModel_28049@@UEAA@XZ 00000001800c3b40 f i c1_ex_DLModel_28.obj
 0001:000c2b60       ??1c1_MWSwishLayer_c1_Yolov9t0_ex_DLModel_2804@@UEAA@XZ 00000001800c3b60 f i c1_ex_DLModel_28.obj
 0001:000c2b80       ??1c1_MWSwishLayer_c1_Yolov9t0_ex_DLModel_28050@@UEAA@XZ 00000001800c3b80 f i c1_ex_DLModel_28.obj
 0001:000c2ba0       ??1c1_MWSwishLayer_c1_Yolov9t0_ex_DLModel_28051@@UEAA@XZ 00000001800c3ba0 f i c1_ex_DLModel_28.obj
 0001:000c2bc0       ??1c1_MWSwishLayer_c1_Yolov9t0_ex_DLModel_28052@@UEAA@XZ 00000001800c3bc0 f i c1_ex_DLModel_28.obj
 0001:000c2be0       ??1c1_MWSwishLayer_c1_Yolov9t0_ex_DLModel_28053@@UEAA@XZ 00000001800c3be0 f i c1_ex_DLModel_28.obj
 0001:000c2c00       ??1c1_MWSwishLayer_c1_Yolov9t0_ex_DLModel_28054@@UEAA@XZ 00000001800c3c00 f i c1_ex_DLModel_28.obj
 0001:000c2c20       ??1c1_MWSwishLayer_c1_Yolov9t0_ex_DLModel_28055@@UEAA@XZ 00000001800c3c20 f i c1_ex_DLModel_28.obj
 0001:000c2c40       ??1c1_MWSwishLayer_c1_Yolov9t0_ex_DLModel_28056@@UEAA@XZ 00000001800c3c40 f i c1_ex_DLModel_28.obj
 0001:000c2c60       ??1c1_MWSwishLayer_c1_Yolov9t0_ex_DLModel_28057@@UEAA@XZ 00000001800c3c60 f i c1_ex_DLModel_28.obj
 0001:000c2c80       ??1c1_MWSwishLayer_c1_Yolov9t0_ex_DLModel_28058@@UEAA@XZ 00000001800c3c80 f i c1_ex_DLModel_28.obj
 0001:000c2ca0       ??1c1_MWSwishLayer_c1_Yolov9t0_ex_DLModel_28059@@UEAA@XZ 00000001800c3ca0 f i c1_ex_DLModel_28.obj
 0001:000c2cc0       ??1c1_MWSwishLayer_c1_Yolov9t0_ex_DLModel_2805@@UEAA@XZ 00000001800c3cc0 f i c1_ex_DLModel_28.obj
 0001:000c2ce0       ??1c1_MWSwishLayer_c1_Yolov9t0_ex_DLModel_28060@@UEAA@XZ 00000001800c3ce0 f i c1_ex_DLModel_28.obj
 0001:000c2d00       ??1c1_MWSwishLayer_c1_Yolov9t0_ex_DLModel_28061@@UEAA@XZ 00000001800c3d00 f i c1_ex_DLModel_28.obj
 0001:000c2d20       ??1c1_MWSwishLayer_c1_Yolov9t0_ex_DLModel_28062@@UEAA@XZ 00000001800c3d20 f i c1_ex_DLModel_28.obj
 0001:000c2d40       ??1c1_MWSwishLayer_c1_Yolov9t0_ex_DLModel_28063@@UEAA@XZ 00000001800c3d40 f i c1_ex_DLModel_28.obj
 0001:000c2d60       ??1c1_MWSwishLayer_c1_Yolov9t0_ex_DLModel_28064@@UEAA@XZ 00000001800c3d60 f i c1_ex_DLModel_28.obj
 0001:000c2d80       ??1c1_MWSwishLayer_c1_Yolov9t0_ex_DLModel_28065@@UEAA@XZ 00000001800c3d80 f i c1_ex_DLModel_28.obj
 0001:000c2da0       ??1c1_MWSwishLayer_c1_Yolov9t0_ex_DLModel_28066@@UEAA@XZ 00000001800c3da0 f i c1_ex_DLModel_28.obj
 0001:000c2dc0       ??1c1_MWSwishLayer_c1_Yolov9t0_ex_DLModel_28067@@UEAA@XZ 00000001800c3dc0 f i c1_ex_DLModel_28.obj
 0001:000c2de0       ??1c1_MWSwishLayer_c1_Yolov9t0_ex_DLModel_28068@@UEAA@XZ 00000001800c3de0 f i c1_ex_DLModel_28.obj
 0001:000c2e00       ??1c1_MWSwishLayer_c1_Yolov9t0_ex_DLModel_28069@@UEAA@XZ 00000001800c3e00 f i c1_ex_DLModel_28.obj
 0001:000c2e20       ??1c1_MWSwishLayer_c1_Yolov9t0_ex_DLModel_2806@@UEAA@XZ 00000001800c3e20 f i c1_ex_DLModel_28.obj
 0001:000c2e40       ??1c1_MWSwishLayer_c1_Yolov9t0_ex_DLModel_28070@@UEAA@XZ 00000001800c3e40 f i c1_ex_DLModel_28.obj
 0001:000c2e60       ??1c1_MWSwishLayer_c1_Yolov9t0_ex_DLModel_28071@@UEAA@XZ 00000001800c3e60 f i c1_ex_DLModel_28.obj
 0001:000c2e80       ??1c1_MWSwishLayer_c1_Yolov9t0_ex_DLModel_28072@@UEAA@XZ 00000001800c3e80 f i c1_ex_DLModel_28.obj
 0001:000c2ea0       ??1c1_MWSwishLayer_c1_Yolov9t0_ex_DLModel_28073@@UEAA@XZ 00000001800c3ea0 f i c1_ex_DLModel_28.obj
 0001:000c2ec0       ??1c1_MWSwishLayer_c1_Yolov9t0_ex_DLModel_28074@@UEAA@XZ 00000001800c3ec0 f i c1_ex_DLModel_28.obj
 0001:000c2ee0       ??1c1_MWSwishLayer_c1_Yolov9t0_ex_DLModel_28075@@UEAA@XZ 00000001800c3ee0 f i c1_ex_DLModel_28.obj
 0001:000c2f00       ??1c1_MWSwishLayer_c1_Yolov9t0_ex_DLModel_28076@@UEAA@XZ 00000001800c3f00 f i c1_ex_DLModel_28.obj
 0001:000c2f20       ??1c1_MWSwishLayer_c1_Yolov9t0_ex_DLModel_28077@@UEAA@XZ 00000001800c3f20 f i c1_ex_DLModel_28.obj
 0001:000c2f40       ??1c1_MWSwishLayer_c1_Yolov9t0_ex_DLModel_28078@@UEAA@XZ 00000001800c3f40 f i c1_ex_DLModel_28.obj
 0001:000c2f60       ??1c1_MWSwishLayer_c1_Yolov9t0_ex_DLModel_28079@@UEAA@XZ 00000001800c3f60 f i c1_ex_DLModel_28.obj
 0001:000c2f80       ??1c1_MWSwishLayer_c1_Yolov9t0_ex_DLModel_2807@@UEAA@XZ 00000001800c3f80 f i c1_ex_DLModel_28.obj
 0001:000c2fa0       ??1c1_MWSwishLayer_c1_Yolov9t0_ex_DLModel_28080@@UEAA@XZ 00000001800c3fa0 f i c1_ex_DLModel_28.obj
 0001:000c2fc0       ??1c1_MWSwishLayer_c1_Yolov9t0_ex_DLModel_28081@@UEAA@XZ 00000001800c3fc0 f i c1_ex_DLModel_28.obj
 0001:000c2fe0       ??1c1_MWSwishLayer_c1_Yolov9t0_ex_DLModel_28082@@UEAA@XZ 00000001800c3fe0 f i c1_ex_DLModel_28.obj
 0001:000c3000       ??1c1_MWSwishLayer_c1_Yolov9t0_ex_DLModel_28083@@UEAA@XZ 00000001800c4000 f i c1_ex_DLModel_28.obj
 0001:000c3020       ??1c1_MWSwishLayer_c1_Yolov9t0_ex_DLModel_28084@@UEAA@XZ 00000001800c4020 f i c1_ex_DLModel_28.obj
 0001:000c3040       ??1c1_MWSwishLayer_c1_Yolov9t0_ex_DLModel_28085@@UEAA@XZ 00000001800c4040 f i c1_ex_DLModel_28.obj
 0001:000c3060       ??1c1_MWSwishLayer_c1_Yolov9t0_ex_DLModel_28086@@UEAA@XZ 00000001800c4060 f i c1_ex_DLModel_28.obj
 0001:000c3080       ??1c1_MWSwishLayer_c1_Yolov9t0_ex_DLModel_28087@@UEAA@XZ 00000001800c4080 f i c1_ex_DLModel_28.obj
 0001:000c30a0       ??1c1_MWSwishLayer_c1_Yolov9t0_ex_DLModel_28088@@UEAA@XZ 00000001800c40a0 f i c1_ex_DLModel_28.obj
 0001:000c30c0       ??1c1_MWSwishLayer_c1_Yolov9t0_ex_DLModel_28089@@UEAA@XZ 00000001800c40c0 f i c1_ex_DLModel_28.obj
 0001:000c30e0       ??1c1_MWSwishLayer_c1_Yolov9t0_ex_DLModel_2808@@UEAA@XZ 00000001800c40e0 f i c1_ex_DLModel_28.obj
 0001:000c3100       ??1c1_MWSwishLayer_c1_Yolov9t0_ex_DLModel_28090@@UEAA@XZ 00000001800c4100 f i c1_ex_DLModel_28.obj
 0001:000c3120       ??1c1_MWSwishLayer_c1_Yolov9t0_ex_DLModel_28091@@UEAA@XZ 00000001800c4120 f i c1_ex_DLModel_28.obj
 0001:000c3140       ??1c1_MWSwishLayer_c1_Yolov9t0_ex_DLModel_28092@@UEAA@XZ 00000001800c4140 f i c1_ex_DLModel_28.obj
 0001:000c3160       ??1c1_MWSwishLayer_c1_Yolov9t0_ex_DLModel_28093@@UEAA@XZ 00000001800c4160 f i c1_ex_DLModel_28.obj
 0001:000c3180       ??1c1_MWSwishLayer_c1_Yolov9t0_ex_DLModel_28094@@UEAA@XZ 00000001800c4180 f i c1_ex_DLModel_28.obj
 0001:000c31a0       ??1c1_MWSwishLayer_c1_Yolov9t0_ex_DLModel_28095@@UEAA@XZ 00000001800c41a0 f i c1_ex_DLModel_28.obj
 0001:000c31c0       ??1c1_MWSwishLayer_c1_Yolov9t0_ex_DLModel_28096@@UEAA@XZ 00000001800c41c0 f i c1_ex_DLModel_28.obj
 0001:000c31e0       ??1c1_MWSwishLayer_c1_Yolov9t0_ex_DLModel_28097@@UEAA@XZ 00000001800c41e0 f i c1_ex_DLModel_28.obj
 0001:000c3200       ??1c1_MWSwishLayer_c1_Yolov9t0_ex_DLModel_28098@@UEAA@XZ 00000001800c4200 f i c1_ex_DLModel_28.obj
 0001:000c3220       ??1c1_MWSwishLayer_c1_Yolov9t0_ex_DLModel_28099@@UEAA@XZ 00000001800c4220 f i c1_ex_DLModel_28.obj
 0001:000c3240       ??1c1_MWSwishLayer_c1_Yolov9t0_ex_DLModel_2809@@UEAA@XZ 00000001800c4240 f i c1_ex_DLModel_28.obj
 0001:000c3260       ??1cuda_error_category@detail@cuda_cub@system@thrust@@UEAA@XZ 00000001800c4260 f i c1_ex_DLModel_28.obj
 0001:000c3280       ??1error_category@system@thrust@@UEAA@XZ 00000001800c4280 f i c1_ex_DLModel_28.obj
 0001:000c32a0       ??1exception@std@@UEAA@XZ  00000001800c42a0 f i c1_ex_DLModel_28.obj
 0001:000c32d0       ??1generic_error_category@detail@system@thrust@@UEAA@XZ 00000001800c42d0 f i c1_ex_DLModel_28.obj
 0001:000c32f0       ??1runtime_error@std@@UEAA@XZ 00000001800c42f0 f i c1_ex_DLModel_28.obj
 0001:000c3310       ??1system_error@system@thrust@@UEAA@XZ 00000001800c4310 f i c1_ex_DLModel_28.obj
 0001:000c3350       ??1system_error_category@detail@system@thrust@@UEAA@XZ 00000001800c4350 f i c1_ex_DLModel_28.obj
 0001:000c3370       ??2@YAPEAX_KPEAX@Z         00000001800c4370 f i c1_ex_DLModel_28.obj
 0001:000c3380       ??4?$basic_string@DU?$char_traits@D@std@@V?$allocator@D@2@@std@@QEAAAEAV01@QEBD@Z 00000001800c4380 f i c1_ex_DLModel_28.obj
 0001:000c33b0       ??8?$_Tree_const_iterator@V?$_Tree_val@U?$_Tree_simple_types@U?$pair@$$CBHH@std@@@std@@@std@@@std@@QEBA_NAEBV01@@Z 00000001800c43b0 f i c1_ex_DLModel_28.obj
 0001:000c33f0       ??8error_category@system@thrust@@QEBA_NAEBV012@@Z 00000001800c43f0 f i c1_ex_DLModel_28.obj
 0001:000c3430       ??8system@thrust@@YA_NAEBVerror_condition@01@0@Z 00000001800c4430 f i c1_ex_DLModel_28.obj
 0001:000c34b0       ??A?$array@UDeviceEntry@PerDeviceAttributeCache@CUB_200200_890_NS@cub@@$0IA@@std@@QEAAAEAUDeviceEntry@PerDeviceAttributeCache@CUB_200200_890_NS@cub@@_K@Z 00000001800c44b0 f i c1_ex_DLModel_28.obj
 0001:000c34d0       ??A?$map@HHU?$less@H@std@@V?$allocator@U?$pair@$$CBHH@std@@@2@@std@@QEAAAEAHAEBH@Z 00000001800c44d0 f i c1_ex_DLModel_28.obj
 0001:000c3500       ??Berror_code@system@thrust@@QEBA_NXZ 00000001800c4500 f i c1_ex_DLModel_28.obj
 0001:000c3540       ??R<lambda_26dc67e6bdc8c2be849c999d1c759607>@@QEBA@H@Z 00000001800c4540 f i c1_ex_DLModel_28.obj
 0001:000c3590       ??R<lambda_42067c8a666a374cdff22a4ba63c972e>@@QEBA@H@Z 00000001800c4590 f i c1_ex_DLModel_28.obj
 0001:000c35f0       ??R<lambda_65e615be2a453ca0576c979606f46740>@@QEBA@QEADQEBD_K12@Z 00000001800c45f0 f i c1_ex_DLModel_28.obj
 0001:000c3670       ??R<lambda_66f57f934f28d61049862f64df852ff0>@@QEBA@QEAD_KQEBD@Z 00000001800c4670 f i c1_ex_DLModel_28.obj
 0001:000c36d0       ??R<lambda_8e42fde9b3efe5cab16583d698397035>@@QEBA@AEAH@Z 00000001800c46d0 f i c1_ex_DLModel_28.obj
 0001:000c3700       ??R?$less@H@std@@QEBA_NAEBH0@Z 00000001800c4700 f i c1_ex_DLModel_28.obj
 0001:000c3740       ??Y?$basic_string@DU?$char_traits@D@std@@V?$allocator@D@2@@std@@QEAAAEAV01@AEBV01@@Z 00000001800c4740 f i c1_ex_DLModel_28.obj
 0001:000c3770       ??Y?$basic_string@DU?$char_traits@D@std@@V?$allocator@D@2@@std@@QEAAAEAV01@QEBD@Z 00000001800c4770 f i c1_ex_DLModel_28.obj
 0001:000c37a0       ??_E?$MWTensor@M@@UEAAPEAXI@Z 00000001800c47a0 f i c1_ex_DLModel_28.obj
 0001:000c37a0       ??_G?$MWTensor@M@@UEAAPEAXI@Z 00000001800c47a0 f i c1_ex_DLModel_28.obj
 0001:000c37e0       ??_EMWAvgPoolingLayer@@UEAAPEAXI@Z 00000001800c47e0 f i c1_ex_DLModel_28.obj
 0001:000c37e0       ??_GMWAvgPoolingLayer@@UEAAPEAXI@Z 00000001800c47e0 f i c1_ex_DLModel_28.obj
 0001:000c3820       ??_GMWConvLayer@@UEAAPEAXI@Z 00000001800c4820 f i c1_ex_DLModel_28.obj
 0001:000c3820       ??_EMWConvLayer@@UEAAPEAXI@Z 00000001800c4820 f i c1_ex_DLModel_28.obj
 0001:000c3860       ??_GMWInputLayer@@UEAAPEAXI@Z 00000001800c4860 f i c1_ex_DLModel_28.obj
 0001:000c3860       ??_EMWInputLayer@@UEAAPEAXI@Z 00000001800c4860 f i c1_ex_DLModel_28.obj
 0001:000c38a0       ??_EMWMaxPoolingLayer@@UEAAPEAXI@Z 00000001800c48a0 f i c1_ex_DLModel_28.obj
 0001:000c38a0       ??_GMWMaxPoolingLayer@@UEAAPEAXI@Z 00000001800c48a0 f i c1_ex_DLModel_28.obj
 0001:000c38e0       ??_GMWOutputLayer@@UEAAPEAXI@Z 00000001800c48e0 f i c1_ex_DLModel_28.obj
 0001:000c38e0       ??_EMWOutputLayer@@UEAAPEAXI@Z 00000001800c48e0 f i c1_ex_DLModel_28.obj
 0001:000c3920       ??_GMWTensorBase@@UEAAPEAXI@Z 00000001800c4920 f i c1_ex_DLModel_28.obj
 0001:000c3920       ??_EMWTensorBase@@UEAAPEAXI@Z 00000001800c4920 f i c1_ex_DLModel_28.obj
 0001:000c3960       ??_GSFc1_ex_DLModel_28InstanceStruct@@QEAAPEAXI@Z 00000001800c4960 f i c1_ex_DLModel_28.obj
 0001:000c39a0       ??_Ebad_alloc@std@@UEAAPEAXI@Z 00000001800c49a0 f i c1_ex_DLModel_28.obj
 0001:000c39a0       ??_Gbad_alloc@std@@UEAAPEAXI@Z 00000001800c49a0 f i c1_ex_DLModel_28.obj
 0001:000c39e0       ??_Ebad_array_new_length@std@@UEAAPEAXI@Z 00000001800c49e0 f i c1_ex_DLModel_28.obj
 0001:000c39e0       ??_Gbad_array_new_length@std@@UEAAPEAXI@Z 00000001800c49e0 f i c1_ex_DLModel_28.obj
 0001:000c3a20       ??_Ec1_MWCustomSliceLayer_c1_Yolov9t0_ex_DLModel_2801@@UEAAPEAXI@Z 00000001800c4a20 f i c1_ex_DLModel_28.obj
 0001:000c3a20       ??_Gc1_MWCustomSliceLayer_c1_Yolov9t0_ex_DLModel_2801@@UEAAPEAXI@Z 00000001800c4a20 f i c1_ex_DLModel_28.obj
 0001:000c3a60       ??_Ec1_MWCustomSliceLayer_c1_Yolov9t0_ex_DLModel_2802@@UEAAPEAXI@Z 00000001800c4a60 f i c1_ex_DLModel_28.obj
 0001:000c3a60       ??_Gc1_MWCustomSliceLayer_c1_Yolov9t0_ex_DLModel_2802@@UEAAPEAXI@Z 00000001800c4a60 f i c1_ex_DLModel_28.obj
 0001:000c3aa0       ??_Ec1_MWCustomSliceLayer_c1_Yolov9t0_ex_DLModel_2803@@UEAAPEAXI@Z 00000001800c4aa0 f i c1_ex_DLModel_28.obj
 0001:000c3aa0       ??_Gc1_MWCustomSliceLayer_c1_Yolov9t0_ex_DLModel_2803@@UEAAPEAXI@Z 00000001800c4aa0 f i c1_ex_DLModel_28.obj
 0001:000c3ae0       ??_Gc1_MWCustomSliceLayer_c1_Yolov9t0_ex_DLModel_2804@@UEAAPEAXI@Z 00000001800c4ae0 f i c1_ex_DLModel_28.obj
 0001:000c3ae0       ??_Ec1_MWCustomSliceLayer_c1_Yolov9t0_ex_DLModel_2804@@UEAAPEAXI@Z 00000001800c4ae0 f i c1_ex_DLModel_28.obj
 0001:000c3b20       ??_Ec1_MWCustomSliceLayer_c1_Yolov9t0_ex_DLModel_2805@@UEAAPEAXI@Z 00000001800c4b20 f i c1_ex_DLModel_28.obj
 0001:000c3b20       ??_Gc1_MWCustomSliceLayer_c1_Yolov9t0_ex_DLModel_2805@@UEAAPEAXI@Z 00000001800c4b20 f i c1_ex_DLModel_28.obj
 0001:000c3b60       ??_Gc1_MWCustomSliceLayer_c1_Yolov9t0_ex_DLModel_2806@@UEAAPEAXI@Z 00000001800c4b60 f i c1_ex_DLModel_28.obj
 0001:000c3b60       ??_Ec1_MWCustomSliceLayer_c1_Yolov9t0_ex_DLModel_2806@@UEAAPEAXI@Z 00000001800c4b60 f i c1_ex_DLModel_28.obj
 0001:000c3ba0       ??_Gc1_MWCustomSliceLayer_c1_Yolov9t0_ex_DLModel_2807@@UEAAPEAXI@Z 00000001800c4ba0 f i c1_ex_DLModel_28.obj
 0001:000c3ba0       ??_Ec1_MWCustomSliceLayer_c1_Yolov9t0_ex_DLModel_2807@@UEAAPEAXI@Z 00000001800c4ba0 f i c1_ex_DLModel_28.obj
 0001:000c3be0       ??_Ec1_MWCustomSliceLayer_c1_Yolov9t0_ex_DLModel_2808@@UEAAPEAXI@Z 00000001800c4be0 f i c1_ex_DLModel_28.obj
 0001:000c3be0       ??_Gc1_MWCustomSliceLayer_c1_Yolov9t0_ex_DLModel_2808@@UEAAPEAXI@Z 00000001800c4be0 f i c1_ex_DLModel_28.obj
 0001:000c3c20       ??_Gc1_MWResize2DLayer_c1_Yolov9t0_ex_DLModel_2801@@UEAAPEAXI@Z 00000001800c4c20 f i c1_ex_DLModel_28.obj
 0001:000c3c20       ??_Ec1_MWResize2DLayer_c1_Yolov9t0_ex_DLModel_2801@@UEAAPEAXI@Z 00000001800c4c20 f i c1_ex_DLModel_28.obj
 0001:000c3c60       ??_Gc1_MWResize2DLayer_c1_Yolov9t0_ex_DLModel_2802@@UEAAPEAXI@Z 00000001800c4c60 f i c1_ex_DLModel_28.obj
 0001:000c3c60       ??_Ec1_MWResize2DLayer_c1_Yolov9t0_ex_DLModel_2802@@UEAAPEAXI@Z 00000001800c4c60 f i c1_ex_DLModel_28.obj
 0001:000c3ca0       ??_Gc1_MWSwishLayer_c1_Yolov9t0_ex_DLModel_280100@@UEAAPEAXI@Z 00000001800c4ca0 f i c1_ex_DLModel_28.obj
 0001:000c3ca0       ??_Ec1_MWSwishLayer_c1_Yolov9t0_ex_DLModel_280100@@UEAAPEAXI@Z 00000001800c4ca0 f i c1_ex_DLModel_28.obj
 0001:000c3ce0       ??_Ec1_MWSwishLayer_c1_Yolov9t0_ex_DLModel_280101@@UEAAPEAXI@Z 00000001800c4ce0 f i c1_ex_DLModel_28.obj
 0001:000c3ce0       ??_Gc1_MWSwishLayer_c1_Yolov9t0_ex_DLModel_280101@@UEAAPEAXI@Z 00000001800c4ce0 f i c1_ex_DLModel_28.obj
 0001:000c3d20       ??_Ec1_MWSwishLayer_c1_Yolov9t0_ex_DLModel_280102@@UEAAPEAXI@Z 00000001800c4d20 f i c1_ex_DLModel_28.obj
 0001:000c3d20       ??_Gc1_MWSwishLayer_c1_Yolov9t0_ex_DLModel_280102@@UEAAPEAXI@Z 00000001800c4d20 f i c1_ex_DLModel_28.obj
 0001:000c3d60       ??_Gc1_MWSwishLayer_c1_Yolov9t0_ex_DLModel_280103@@UEAAPEAXI@Z 00000001800c4d60 f i c1_ex_DLModel_28.obj
 0001:000c3d60       ??_Ec1_MWSwishLayer_c1_Yolov9t0_ex_DLModel_280103@@UEAAPEAXI@Z 00000001800c4d60 f i c1_ex_DLModel_28.obj
 0001:000c3da0       ??_Ec1_MWSwishLayer_c1_Yolov9t0_ex_DLModel_280104@@UEAAPEAXI@Z 00000001800c4da0 f i c1_ex_DLModel_28.obj
 0001:000c3da0       ??_Gc1_MWSwishLayer_c1_Yolov9t0_ex_DLModel_280104@@UEAAPEAXI@Z 00000001800c4da0 f i c1_ex_DLModel_28.obj
 0001:000c3de0       ??_Gc1_MWSwishLayer_c1_Yolov9t0_ex_DLModel_280105@@UEAAPEAXI@Z 00000001800c4de0 f i c1_ex_DLModel_28.obj
 0001:000c3de0       ??_Ec1_MWSwishLayer_c1_Yolov9t0_ex_DLModel_280105@@UEAAPEAXI@Z 00000001800c4de0 f i c1_ex_DLModel_28.obj
 0001:000c3e20       ??_Ec1_MWSwishLayer_c1_Yolov9t0_ex_DLModel_280106@@UEAAPEAXI@Z 00000001800c4e20 f i c1_ex_DLModel_28.obj
 0001:000c3e20       ??_Gc1_MWSwishLayer_c1_Yolov9t0_ex_DLModel_280106@@UEAAPEAXI@Z 00000001800c4e20 f i c1_ex_DLModel_28.obj
 0001:000c3e60       ??_Gc1_MWSwishLayer_c1_Yolov9t0_ex_DLModel_280107@@UEAAPEAXI@Z 00000001800c4e60 f i c1_ex_DLModel_28.obj
 0001:000c3e60       ??_Ec1_MWSwishLayer_c1_Yolov9t0_ex_DLModel_280107@@UEAAPEAXI@Z 00000001800c4e60 f i c1_ex_DLModel_28.obj
 0001:000c3ea0       ??_Ec1_MWSwishLayer_c1_Yolov9t0_ex_DLModel_280108@@UEAAPEAXI@Z 00000001800c4ea0 f i c1_ex_DLModel_28.obj
 0001:000c3ea0       ??_Gc1_MWSwishLayer_c1_Yolov9t0_ex_DLModel_280108@@UEAAPEAXI@Z 00000001800c4ea0 f i c1_ex_DLModel_28.obj
 0001:000c3ee0       ??_Ec1_MWSwishLayer_c1_Yolov9t0_ex_DLModel_280109@@UEAAPEAXI@Z 00000001800c4ee0 f i c1_ex_DLModel_28.obj
 0001:000c3ee0       ??_Gc1_MWSwishLayer_c1_Yolov9t0_ex_DLModel_280109@@UEAAPEAXI@Z 00000001800c4ee0 f i c1_ex_DLModel_28.obj
 0001:000c3f20       ??_Ec1_MWSwishLayer_c1_Yolov9t0_ex_DLModel_28010@@UEAAPEAXI@Z 00000001800c4f20 f i c1_ex_DLModel_28.obj
 0001:000c3f20       ??_Gc1_MWSwishLayer_c1_Yolov9t0_ex_DLModel_28010@@UEAAPEAXI@Z 00000001800c4f20 f i c1_ex_DLModel_28.obj
 0001:000c3f60       ??_Ec1_MWSwishLayer_c1_Yolov9t0_ex_DLModel_280110@@UEAAPEAXI@Z 00000001800c4f60 f i c1_ex_DLModel_28.obj
 0001:000c3f60       ??_Gc1_MWSwishLayer_c1_Yolov9t0_ex_DLModel_280110@@UEAAPEAXI@Z 00000001800c4f60 f i c1_ex_DLModel_28.obj
 0001:000c3fa0       ??_Gc1_MWSwishLayer_c1_Yolov9t0_ex_DLModel_280111@@UEAAPEAXI@Z 00000001800c4fa0 f i c1_ex_DLModel_28.obj
 0001:000c3fa0       ??_Ec1_MWSwishLayer_c1_Yolov9t0_ex_DLModel_280111@@UEAAPEAXI@Z 00000001800c4fa0 f i c1_ex_DLModel_28.obj
 0001:000c3fe0       ??_Gc1_MWSwishLayer_c1_Yolov9t0_ex_DLModel_280112@@UEAAPEAXI@Z 00000001800c4fe0 f i c1_ex_DLModel_28.obj
 0001:000c3fe0       ??_Ec1_MWSwishLayer_c1_Yolov9t0_ex_DLModel_280112@@UEAAPEAXI@Z 00000001800c4fe0 f i c1_ex_DLModel_28.obj
 0001:000c4020       ??_Gc1_MWSwishLayer_c1_Yolov9t0_ex_DLModel_280113@@UEAAPEAXI@Z 00000001800c5020 f i c1_ex_DLModel_28.obj
 0001:000c4020       ??_Ec1_MWSwishLayer_c1_Yolov9t0_ex_DLModel_280113@@UEAAPEAXI@Z 00000001800c5020 f i c1_ex_DLModel_28.obj
 0001:000c4060       ??_Ec1_MWSwishLayer_c1_Yolov9t0_ex_DLModel_280114@@UEAAPEAXI@Z 00000001800c5060 f i c1_ex_DLModel_28.obj
 0001:000c4060       ??_Gc1_MWSwishLayer_c1_Yolov9t0_ex_DLModel_280114@@UEAAPEAXI@Z 00000001800c5060 f i c1_ex_DLModel_28.obj
 0001:000c40a0       ??_Ec1_MWSwishLayer_c1_Yolov9t0_ex_DLModel_280115@@UEAAPEAXI@Z 00000001800c50a0 f i c1_ex_DLModel_28.obj
 0001:000c40a0       ??_Gc1_MWSwishLayer_c1_Yolov9t0_ex_DLModel_280115@@UEAAPEAXI@Z 00000001800c50a0 f i c1_ex_DLModel_28.obj
 0001:000c40e0       ??_Ec1_MWSwishLayer_c1_Yolov9t0_ex_DLModel_280116@@UEAAPEAXI@Z 00000001800c50e0 f i c1_ex_DLModel_28.obj
 0001:000c40e0       ??_Gc1_MWSwishLayer_c1_Yolov9t0_ex_DLModel_280116@@UEAAPEAXI@Z 00000001800c50e0 f i c1_ex_DLModel_28.obj
 0001:000c4120       ??_Ec1_MWSwishLayer_c1_Yolov9t0_ex_DLModel_280117@@UEAAPEAXI@Z 00000001800c5120 f i c1_ex_DLModel_28.obj
 0001:000c4120       ??_Gc1_MWSwishLayer_c1_Yolov9t0_ex_DLModel_280117@@UEAAPEAXI@Z 00000001800c5120 f i c1_ex_DLModel_28.obj
 0001:000c4160       ??_Gc1_MWSwishLayer_c1_Yolov9t0_ex_DLModel_280118@@UEAAPEAXI@Z 00000001800c5160 f i c1_ex_DLModel_28.obj
 0001:000c4160       ??_Ec1_MWSwishLayer_c1_Yolov9t0_ex_DLModel_280118@@UEAAPEAXI@Z 00000001800c5160 f i c1_ex_DLModel_28.obj
 0001:000c41a0       ??_Gc1_MWSwishLayer_c1_Yolov9t0_ex_DLModel_280119@@UEAAPEAXI@Z 00000001800c51a0 f i c1_ex_DLModel_28.obj
 0001:000c41a0       ??_Ec1_MWSwishLayer_c1_Yolov9t0_ex_DLModel_280119@@UEAAPEAXI@Z 00000001800c51a0 f i c1_ex_DLModel_28.obj
 0001:000c41e0       ??_Ec1_MWSwishLayer_c1_Yolov9t0_ex_DLModel_28011@@UEAAPEAXI@Z 00000001800c51e0 f i c1_ex_DLModel_28.obj
 0001:000c41e0       ??_Gc1_MWSwishLayer_c1_Yolov9t0_ex_DLModel_28011@@UEAAPEAXI@Z 00000001800c51e0 f i c1_ex_DLModel_28.obj
 0001:000c4220       ??_Gc1_MWSwishLayer_c1_Yolov9t0_ex_DLModel_280120@@UEAAPEAXI@Z 00000001800c5220 f i c1_ex_DLModel_28.obj
 0001:000c4220       ??_Ec1_MWSwishLayer_c1_Yolov9t0_ex_DLModel_280120@@UEAAPEAXI@Z 00000001800c5220 f i c1_ex_DLModel_28.obj
 0001:000c4260       ??_Ec1_MWSwishLayer_c1_Yolov9t0_ex_DLModel_280121@@UEAAPEAXI@Z 00000001800c5260 f i c1_ex_DLModel_28.obj
 0001:000c4260       ??_Gc1_MWSwishLayer_c1_Yolov9t0_ex_DLModel_280121@@UEAAPEAXI@Z 00000001800c5260 f i c1_ex_DLModel_28.obj
 0001:000c42a0       ??_Gc1_MWSwishLayer_c1_Yolov9t0_ex_DLModel_280122@@UEAAPEAXI@Z 00000001800c52a0 f i c1_ex_DLModel_28.obj
 0001:000c42a0       ??_Ec1_MWSwishLayer_c1_Yolov9t0_ex_DLModel_280122@@UEAAPEAXI@Z 00000001800c52a0 f i c1_ex_DLModel_28.obj
 0001:000c42e0       ??_Ec1_MWSwishLayer_c1_Yolov9t0_ex_DLModel_280123@@UEAAPEAXI@Z 00000001800c52e0 f i c1_ex_DLModel_28.obj
 0001:000c42e0       ??_Gc1_MWSwishLayer_c1_Yolov9t0_ex_DLModel_280123@@UEAAPEAXI@Z 00000001800c52e0 f i c1_ex_DLModel_28.obj
 0001:000c4320       ??_Ec1_MWSwishLayer_c1_Yolov9t0_ex_DLModel_280124@@UEAAPEAXI@Z 00000001800c5320 f i c1_ex_DLModel_28.obj
 0001:000c4320       ??_Gc1_MWSwishLayer_c1_Yolov9t0_ex_DLModel_280124@@UEAAPEAXI@Z 00000001800c5320 f i c1_ex_DLModel_28.obj
 0001:000c4360       ??_Gc1_MWSwishLayer_c1_Yolov9t0_ex_DLModel_280125@@UEAAPEAXI@Z 00000001800c5360 f i c1_ex_DLModel_28.obj
 0001:000c4360       ??_Ec1_MWSwishLayer_c1_Yolov9t0_ex_DLModel_280125@@UEAAPEAXI@Z 00000001800c5360 f i c1_ex_DLModel_28.obj
 0001:000c43a0       ??_Gc1_MWSwishLayer_c1_Yolov9t0_ex_DLModel_280126@@UEAAPEAXI@Z 00000001800c53a0 f i c1_ex_DLModel_28.obj
 0001:000c43a0       ??_Ec1_MWSwishLayer_c1_Yolov9t0_ex_DLModel_280126@@UEAAPEAXI@Z 00000001800c53a0 f i c1_ex_DLModel_28.obj
 0001:000c43e0       ??_Gc1_MWSwishLayer_c1_Yolov9t0_ex_DLModel_280127@@UEAAPEAXI@Z 00000001800c53e0 f i c1_ex_DLModel_28.obj
 0001:000c43e0       ??_Ec1_MWSwishLayer_c1_Yolov9t0_ex_DLModel_280127@@UEAAPEAXI@Z 00000001800c53e0 f i c1_ex_DLModel_28.obj
 0001:000c4420       ??_Ec1_MWSwishLayer_c1_Yolov9t0_ex_DLModel_280128@@UEAAPEAXI@Z 00000001800c5420 f i c1_ex_DLModel_28.obj
 0001:000c4420       ??_Gc1_MWSwishLayer_c1_Yolov9t0_ex_DLModel_280128@@UEAAPEAXI@Z 00000001800c5420 f i c1_ex_DLModel_28.obj
 0001:000c4460       ??_Gc1_MWSwishLayer_c1_Yolov9t0_ex_DLModel_280129@@UEAAPEAXI@Z 00000001800c5460 f i c1_ex_DLModel_28.obj
 0001:000c4460       ??_Ec1_MWSwishLayer_c1_Yolov9t0_ex_DLModel_280129@@UEAAPEAXI@Z 00000001800c5460 f i c1_ex_DLModel_28.obj
 0001:000c44a0       ??_Ec1_MWSwishLayer_c1_Yolov9t0_ex_DLModel_28012@@UEAAPEAXI@Z 00000001800c54a0 f i c1_ex_DLModel_28.obj
 0001:000c44a0       ??_Gc1_MWSwishLayer_c1_Yolov9t0_ex_DLModel_28012@@UEAAPEAXI@Z 00000001800c54a0 f i c1_ex_DLModel_28.obj
 0001:000c44e0       ??_Gc1_MWSwishLayer_c1_Yolov9t0_ex_DLModel_280130@@UEAAPEAXI@Z 00000001800c54e0 f i c1_ex_DLModel_28.obj
 0001:000c44e0       ??_Ec1_MWSwishLayer_c1_Yolov9t0_ex_DLModel_280130@@UEAAPEAXI@Z 00000001800c54e0 f i c1_ex_DLModel_28.obj
 0001:000c4520       ??_Ec1_MWSwishLayer_c1_Yolov9t0_ex_DLModel_280131@@UEAAPEAXI@Z 00000001800c5520 f i c1_ex_DLModel_28.obj
 0001:000c4520       ??_Gc1_MWSwishLayer_c1_Yolov9t0_ex_DLModel_280131@@UEAAPEAXI@Z 00000001800c5520 f i c1_ex_DLModel_28.obj
 0001:000c4560       ??_Gc1_MWSwishLayer_c1_Yolov9t0_ex_DLModel_280132@@UEAAPEAXI@Z 00000001800c5560 f i c1_ex_DLModel_28.obj
 0001:000c4560       ??_Ec1_MWSwishLayer_c1_Yolov9t0_ex_DLModel_280132@@UEAAPEAXI@Z 00000001800c5560 f i c1_ex_DLModel_28.obj
 0001:000c45a0       ??_Ec1_MWSwishLayer_c1_Yolov9t0_ex_DLModel_280133@@UEAAPEAXI@Z 00000001800c55a0 f i c1_ex_DLModel_28.obj
 0001:000c45a0       ??_Gc1_MWSwishLayer_c1_Yolov9t0_ex_DLModel_280133@@UEAAPEAXI@Z 00000001800c55a0 f i c1_ex_DLModel_28.obj
 0001:000c45e0       ??_Gc1_MWSwishLayer_c1_Yolov9t0_ex_DLModel_280134@@UEAAPEAXI@Z 00000001800c55e0 f i c1_ex_DLModel_28.obj
 0001:000c45e0       ??_Ec1_MWSwishLayer_c1_Yolov9t0_ex_DLModel_280134@@UEAAPEAXI@Z 00000001800c55e0 f i c1_ex_DLModel_28.obj
 0001:000c4620       ??_Ec1_MWSwishLayer_c1_Yolov9t0_ex_DLModel_280135@@UEAAPEAXI@Z 00000001800c5620 f i c1_ex_DLModel_28.obj
 0001:000c4620       ??_Gc1_MWSwishLayer_c1_Yolov9t0_ex_DLModel_280135@@UEAAPEAXI@Z 00000001800c5620 f i c1_ex_DLModel_28.obj
 0001:000c4660       ??_Gc1_MWSwishLayer_c1_Yolov9t0_ex_DLModel_280136@@UEAAPEAXI@Z 00000001800c5660 f i c1_ex_DLModel_28.obj
 0001:000c4660       ??_Ec1_MWSwishLayer_c1_Yolov9t0_ex_DLModel_280136@@UEAAPEAXI@Z 00000001800c5660 f i c1_ex_DLModel_28.obj
 0001:000c46a0       ??_Gc1_MWSwishLayer_c1_Yolov9t0_ex_DLModel_280137@@UEAAPEAXI@Z 00000001800c56a0 f i c1_ex_DLModel_28.obj
 0001:000c46a0       ??_Ec1_MWSwishLayer_c1_Yolov9t0_ex_DLModel_280137@@UEAAPEAXI@Z 00000001800c56a0 f i c1_ex_DLModel_28.obj
 0001:000c46e0       ??_Ec1_MWSwishLayer_c1_Yolov9t0_ex_DLModel_280138@@UEAAPEAXI@Z 00000001800c56e0 f i c1_ex_DLModel_28.obj
 0001:000c46e0       ??_Gc1_MWSwishLayer_c1_Yolov9t0_ex_DLModel_280138@@UEAAPEAXI@Z 00000001800c56e0 f i c1_ex_DLModel_28.obj
 0001:000c4720       ??_Gc1_MWSwishLayer_c1_Yolov9t0_ex_DLModel_280139@@UEAAPEAXI@Z 00000001800c5720 f i c1_ex_DLModel_28.obj
 0001:000c4720       ??_Ec1_MWSwishLayer_c1_Yolov9t0_ex_DLModel_280139@@UEAAPEAXI@Z 00000001800c5720 f i c1_ex_DLModel_28.obj
 0001:000c4760       ??_Gc1_MWSwishLayer_c1_Yolov9t0_ex_DLModel_28013@@UEAAPEAXI@Z 00000001800c5760 f i c1_ex_DLModel_28.obj
 0001:000c4760       ??_Ec1_MWSwishLayer_c1_Yolov9t0_ex_DLModel_28013@@UEAAPEAXI@Z 00000001800c5760 f i c1_ex_DLModel_28.obj
 0001:000c47a0       ??_Gc1_MWSwishLayer_c1_Yolov9t0_ex_DLModel_280140@@UEAAPEAXI@Z 00000001800c57a0 f i c1_ex_DLModel_28.obj
 0001:000c47a0       ??_Ec1_MWSwishLayer_c1_Yolov9t0_ex_DLModel_280140@@UEAAPEAXI@Z 00000001800c57a0 f i c1_ex_DLModel_28.obj
 0001:000c47e0       ??_Gc1_MWSwishLayer_c1_Yolov9t0_ex_DLModel_280141@@UEAAPEAXI@Z 00000001800c57e0 f i c1_ex_DLModel_28.obj
 0001:000c47e0       ??_Ec1_MWSwishLayer_c1_Yolov9t0_ex_DLModel_280141@@UEAAPEAXI@Z 00000001800c57e0 f i c1_ex_DLModel_28.obj
 0001:000c4820       ??_Gc1_MWSwishLayer_c1_Yolov9t0_ex_DLModel_280142@@UEAAPEAXI@Z 00000001800c5820 f i c1_ex_DLModel_28.obj
 0001:000c4820       ??_Ec1_MWSwishLayer_c1_Yolov9t0_ex_DLModel_280142@@UEAAPEAXI@Z 00000001800c5820 f i c1_ex_DLModel_28.obj
 0001:000c4860       ??_Gc1_MWSwishLayer_c1_Yolov9t0_ex_DLModel_280143@@UEAAPEAXI@Z 00000001800c5860 f i c1_ex_DLModel_28.obj
 0001:000c4860       ??_Ec1_MWSwishLayer_c1_Yolov9t0_ex_DLModel_280143@@UEAAPEAXI@Z 00000001800c5860 f i c1_ex_DLModel_28.obj
 0001:000c48a0       ??_Ec1_MWSwishLayer_c1_Yolov9t0_ex_DLModel_280144@@UEAAPEAXI@Z 00000001800c58a0 f i c1_ex_DLModel_28.obj
 0001:000c48a0       ??_Gc1_MWSwishLayer_c1_Yolov9t0_ex_DLModel_280144@@UEAAPEAXI@Z 00000001800c58a0 f i c1_ex_DLModel_28.obj
 0001:000c48e0       ??_Gc1_MWSwishLayer_c1_Yolov9t0_ex_DLModel_280145@@UEAAPEAXI@Z 00000001800c58e0 f i c1_ex_DLModel_28.obj
 0001:000c48e0       ??_Ec1_MWSwishLayer_c1_Yolov9t0_ex_DLModel_280145@@UEAAPEAXI@Z 00000001800c58e0 f i c1_ex_DLModel_28.obj
 0001:000c4920       ??_Ec1_MWSwishLayer_c1_Yolov9t0_ex_DLModel_280146@@UEAAPEAXI@Z 00000001800c5920 f i c1_ex_DLModel_28.obj
 0001:000c4920       ??_Gc1_MWSwishLayer_c1_Yolov9t0_ex_DLModel_280146@@UEAAPEAXI@Z 00000001800c5920 f i c1_ex_DLModel_28.obj
 0001:000c4960       ??_Gc1_MWSwishLayer_c1_Yolov9t0_ex_DLModel_280147@@UEAAPEAXI@Z 00000001800c5960 f i c1_ex_DLModel_28.obj
 0001:000c4960       ??_Ec1_MWSwishLayer_c1_Yolov9t0_ex_DLModel_280147@@UEAAPEAXI@Z 00000001800c5960 f i c1_ex_DLModel_28.obj
 0001:000c49a0       ??_Gc1_MWSwishLayer_c1_Yolov9t0_ex_DLModel_280148@@UEAAPEAXI@Z 00000001800c59a0 f i c1_ex_DLModel_28.obj
 0001:000c49a0       ??_Ec1_MWSwishLayer_c1_Yolov9t0_ex_DLModel_280148@@UEAAPEAXI@Z 00000001800c59a0 f i c1_ex_DLModel_28.obj
 0001:000c49e0       ??_Gc1_MWSwishLayer_c1_Yolov9t0_ex_DLModel_280149@@UEAAPEAXI@Z 00000001800c59e0 f i c1_ex_DLModel_28.obj
 0001:000c49e0       ??_Ec1_MWSwishLayer_c1_Yolov9t0_ex_DLModel_280149@@UEAAPEAXI@Z 00000001800c59e0 f i c1_ex_DLModel_28.obj
 0001:000c4a20       ??_Gc1_MWSwishLayer_c1_Yolov9t0_ex_DLModel_28014@@UEAAPEAXI@Z 00000001800c5a20 f i c1_ex_DLModel_28.obj
 0001:000c4a20       ??_Ec1_MWSwishLayer_c1_Yolov9t0_ex_DLModel_28014@@UEAAPEAXI@Z 00000001800c5a20 f i c1_ex_DLModel_28.obj
 0001:000c4a60       ??_Ec1_MWSwishLayer_c1_Yolov9t0_ex_DLModel_280150@@UEAAPEAXI@Z 00000001800c5a60 f i c1_ex_DLModel_28.obj
 0001:000c4a60       ??_Gc1_MWSwishLayer_c1_Yolov9t0_ex_DLModel_280150@@UEAAPEAXI@Z 00000001800c5a60 f i c1_ex_DLModel_28.obj
 0001:000c4aa0       ??_Ec1_MWSwishLayer_c1_Yolov9t0_ex_DLModel_280151@@UEAAPEAXI@Z 00000001800c5aa0 f i c1_ex_DLModel_28.obj
 0001:000c4aa0       ??_Gc1_MWSwishLayer_c1_Yolov9t0_ex_DLModel_280151@@UEAAPEAXI@Z 00000001800c5aa0 f i c1_ex_DLModel_28.obj
 0001:000c4ae0       ??_Ec1_MWSwishLayer_c1_Yolov9t0_ex_DLModel_280152@@UEAAPEAXI@Z 00000001800c5ae0 f i c1_ex_DLModel_28.obj
 0001:000c4ae0       ??_Gc1_MWSwishLayer_c1_Yolov9t0_ex_DLModel_280152@@UEAAPEAXI@Z 00000001800c5ae0 f i c1_ex_DLModel_28.obj
 0001:000c4b20       ??_Ec1_MWSwishLayer_c1_Yolov9t0_ex_DLModel_280153@@UEAAPEAXI@Z 00000001800c5b20 f i c1_ex_DLModel_28.obj
 0001:000c4b20       ??_Gc1_MWSwishLayer_c1_Yolov9t0_ex_DLModel_280153@@UEAAPEAXI@Z 00000001800c5b20 f i c1_ex_DLModel_28.obj
 0001:000c4b60       ??_Gc1_MWSwishLayer_c1_Yolov9t0_ex_DLModel_280154@@UEAAPEAXI@Z 00000001800c5b60 f i c1_ex_DLModel_28.obj
 0001:000c4b60       ??_Ec1_MWSwishLayer_c1_Yolov9t0_ex_DLModel_280154@@UEAAPEAXI@Z 00000001800c5b60 f i c1_ex_DLModel_28.obj
 0001:000c4ba0       ??_Gc1_MWSwishLayer_c1_Yolov9t0_ex_DLModel_280155@@UEAAPEAXI@Z 00000001800c5ba0 f i c1_ex_DLModel_28.obj
 0001:000c4ba0       ??_Ec1_MWSwishLayer_c1_Yolov9t0_ex_DLModel_280155@@UEAAPEAXI@Z 00000001800c5ba0 f i c1_ex_DLModel_28.obj
 0001:000c4be0       ??_Ec1_MWSwishLayer_c1_Yolov9t0_ex_DLModel_280156@@UEAAPEAXI@Z 00000001800c5be0 f i c1_ex_DLModel_28.obj
 0001:000c4be0       ??_Gc1_MWSwishLayer_c1_Yolov9t0_ex_DLModel_280156@@UEAAPEAXI@Z 00000001800c5be0 f i c1_ex_DLModel_28.obj
 0001:000c4c20       ??_Ec1_MWSwishLayer_c1_Yolov9t0_ex_DLModel_280157@@UEAAPEAXI@Z 00000001800c5c20 f i c1_ex_DLModel_28.obj
 0001:000c4c20       ??_Gc1_MWSwishLayer_c1_Yolov9t0_ex_DLModel_280157@@UEAAPEAXI@Z 00000001800c5c20 f i c1_ex_DLModel_28.obj
 0001:000c4c60       ??_Gc1_MWSwishLayer_c1_Yolov9t0_ex_DLModel_280158@@UEAAPEAXI@Z 00000001800c5c60 f i c1_ex_DLModel_28.obj
 0001:000c4c60       ??_Ec1_MWSwishLayer_c1_Yolov9t0_ex_DLModel_280158@@UEAAPEAXI@Z 00000001800c5c60 f i c1_ex_DLModel_28.obj
 0001:000c4ca0       ??_Ec1_MWSwishLayer_c1_Yolov9t0_ex_DLModel_280159@@UEAAPEAXI@Z 00000001800c5ca0 f i c1_ex_DLModel_28.obj
 0001:000c4ca0       ??_Gc1_MWSwishLayer_c1_Yolov9t0_ex_DLModel_280159@@UEAAPEAXI@Z 00000001800c5ca0 f i c1_ex_DLModel_28.obj
 0001:000c4ce0       ??_Ec1_MWSwishLayer_c1_Yolov9t0_ex_DLModel_28015@@UEAAPEAXI@Z 00000001800c5ce0 f i c1_ex_DLModel_28.obj
 0001:000c4ce0       ??_Gc1_MWSwishLayer_c1_Yolov9t0_ex_DLModel_28015@@UEAAPEAXI@Z 00000001800c5ce0 f i c1_ex_DLModel_28.obj
 0001:000c4d20       ??_Ec1_MWSwishLayer_c1_Yolov9t0_ex_DLModel_280160@@UEAAPEAXI@Z 00000001800c5d20 f i c1_ex_DLModel_28.obj
 0001:000c4d20       ??_Gc1_MWSwishLayer_c1_Yolov9t0_ex_DLModel_280160@@UEAAPEAXI@Z 00000001800c5d20 f i c1_ex_DLModel_28.obj
 0001:000c4d60       ??_Gc1_MWSwishLayer_c1_Yolov9t0_ex_DLModel_280161@@UEAAPEAXI@Z 00000001800c5d60 f i c1_ex_DLModel_28.obj
 0001:000c4d60       ??_Ec1_MWSwishLayer_c1_Yolov9t0_ex_DLModel_280161@@UEAAPEAXI@Z 00000001800c5d60 f i c1_ex_DLModel_28.obj
 0001:000c4da0       ??_Ec1_MWSwishLayer_c1_Yolov9t0_ex_DLModel_280162@@UEAAPEAXI@Z 00000001800c5da0 f i c1_ex_DLModel_28.obj
 0001:000c4da0       ??_Gc1_MWSwishLayer_c1_Yolov9t0_ex_DLModel_280162@@UEAAPEAXI@Z 00000001800c5da0 f i c1_ex_DLModel_28.obj
 0001:000c4de0       ??_Ec1_MWSwishLayer_c1_Yolov9t0_ex_DLModel_280163@@UEAAPEAXI@Z 00000001800c5de0 f i c1_ex_DLModel_28.obj
 0001:000c4de0       ??_Gc1_MWSwishLayer_c1_Yolov9t0_ex_DLModel_280163@@UEAAPEAXI@Z 00000001800c5de0 f i c1_ex_DLModel_28.obj
 0001:000c4e20       ??_Gc1_MWSwishLayer_c1_Yolov9t0_ex_DLModel_280164@@UEAAPEAXI@Z 00000001800c5e20 f i c1_ex_DLModel_28.obj
 0001:000c4e20       ??_Ec1_MWSwishLayer_c1_Yolov9t0_ex_DLModel_280164@@UEAAPEAXI@Z 00000001800c5e20 f i c1_ex_DLModel_28.obj
 0001:000c4e60       ??_Ec1_MWSwishLayer_c1_Yolov9t0_ex_DLModel_280165@@UEAAPEAXI@Z 00000001800c5e60 f i c1_ex_DLModel_28.obj
 0001:000c4e60       ??_Gc1_MWSwishLayer_c1_Yolov9t0_ex_DLModel_280165@@UEAAPEAXI@Z 00000001800c5e60 f i c1_ex_DLModel_28.obj
 0001:000c4ea0       ??_Gc1_MWSwishLayer_c1_Yolov9t0_ex_DLModel_280166@@UEAAPEAXI@Z 00000001800c5ea0 f i c1_ex_DLModel_28.obj
 0001:000c4ea0       ??_Ec1_MWSwishLayer_c1_Yolov9t0_ex_DLModel_280166@@UEAAPEAXI@Z 00000001800c5ea0 f i c1_ex_DLModel_28.obj
 0001:000c4ee0       ??_Ec1_MWSwishLayer_c1_Yolov9t0_ex_DLModel_280167@@UEAAPEAXI@Z 00000001800c5ee0 f i c1_ex_DLModel_28.obj
 0001:000c4ee0       ??_Gc1_MWSwishLayer_c1_Yolov9t0_ex_DLModel_280167@@UEAAPEAXI@Z 00000001800c5ee0 f i c1_ex_DLModel_28.obj
 0001:000c4f20       ??_Ec1_MWSwishLayer_c1_Yolov9t0_ex_DLModel_280168@@UEAAPEAXI@Z 00000001800c5f20 f i c1_ex_DLModel_28.obj
 0001:000c4f20       ??_Gc1_MWSwishLayer_c1_Yolov9t0_ex_DLModel_280168@@UEAAPEAXI@Z 00000001800c5f20 f i c1_ex_DLModel_28.obj
 0001:000c4f60       ??_Gc1_MWSwishLayer_c1_Yolov9t0_ex_DLModel_280169@@UEAAPEAXI@Z 00000001800c5f60 f i c1_ex_DLModel_28.obj
 0001:000c4f60       ??_Ec1_MWSwishLayer_c1_Yolov9t0_ex_DLModel_280169@@UEAAPEAXI@Z 00000001800c5f60 f i c1_ex_DLModel_28.obj
 0001:000c4fa0       ??_Ec1_MWSwishLayer_c1_Yolov9t0_ex_DLModel_28016@@UEAAPEAXI@Z 00000001800c5fa0 f i c1_ex_DLModel_28.obj
 0001:000c4fa0       ??_Gc1_MWSwishLayer_c1_Yolov9t0_ex_DLModel_28016@@UEAAPEAXI@Z 00000001800c5fa0 f i c1_ex_DLModel_28.obj
 0001:000c4fe0       ??_Gc1_MWSwishLayer_c1_Yolov9t0_ex_DLModel_280170@@UEAAPEAXI@Z 00000001800c5fe0 f i c1_ex_DLModel_28.obj
 0001:000c4fe0       ??_Ec1_MWSwishLayer_c1_Yolov9t0_ex_DLModel_280170@@UEAAPEAXI@Z 00000001800c5fe0 f i c1_ex_DLModel_28.obj
 0001:000c5020       ??_Ec1_MWSwishLayer_c1_Yolov9t0_ex_DLModel_280171@@UEAAPEAXI@Z 00000001800c6020 f i c1_ex_DLModel_28.obj
 0001:000c5020       ??_Gc1_MWSwishLayer_c1_Yolov9t0_ex_DLModel_280171@@UEAAPEAXI@Z 00000001800c6020 f i c1_ex_DLModel_28.obj
 0001:000c5060       ??_Gc1_MWSwishLayer_c1_Yolov9t0_ex_DLModel_280172@@UEAAPEAXI@Z 00000001800c6060 f i c1_ex_DLModel_28.obj
 0001:000c5060       ??_Ec1_MWSwishLayer_c1_Yolov9t0_ex_DLModel_280172@@UEAAPEAXI@Z 00000001800c6060 f i c1_ex_DLModel_28.obj
 0001:000c50a0       ??_Gc1_MWSwishLayer_c1_Yolov9t0_ex_DLModel_280173@@UEAAPEAXI@Z 00000001800c60a0 f i c1_ex_DLModel_28.obj
 0001:000c50a0       ??_Ec1_MWSwishLayer_c1_Yolov9t0_ex_DLModel_280173@@UEAAPEAXI@Z 00000001800c60a0 f i c1_ex_DLModel_28.obj
 0001:000c50e0       ??_Gc1_MWSwishLayer_c1_Yolov9t0_ex_DLModel_280174@@UEAAPEAXI@Z 00000001800c60e0 f i c1_ex_DLModel_28.obj
 0001:000c50e0       ??_Ec1_MWSwishLayer_c1_Yolov9t0_ex_DLModel_280174@@UEAAPEAXI@Z 00000001800c60e0 f i c1_ex_DLModel_28.obj
 0001:000c5120       ??_Gc1_MWSwishLayer_c1_Yolov9t0_ex_DLModel_280175@@UEAAPEAXI@Z 00000001800c6120 f i c1_ex_DLModel_28.obj
 0001:000c5120       ??_Ec1_MWSwishLayer_c1_Yolov9t0_ex_DLModel_280175@@UEAAPEAXI@Z 00000001800c6120 f i c1_ex_DLModel_28.obj
 0001:000c5160       ??_Ec1_MWSwishLayer_c1_Yolov9t0_ex_DLModel_280176@@UEAAPEAXI@Z 00000001800c6160 f i c1_ex_DLModel_28.obj
 0001:000c5160       ??_Gc1_MWSwishLayer_c1_Yolov9t0_ex_DLModel_280176@@UEAAPEAXI@Z 00000001800c6160 f i c1_ex_DLModel_28.obj
 0001:000c51a0       ??_Gc1_MWSwishLayer_c1_Yolov9t0_ex_DLModel_280177@@UEAAPEAXI@Z 00000001800c61a0 f i c1_ex_DLModel_28.obj
 0001:000c51a0       ??_Ec1_MWSwishLayer_c1_Yolov9t0_ex_DLModel_280177@@UEAAPEAXI@Z 00000001800c61a0 f i c1_ex_DLModel_28.obj
 0001:000c51e0       ??_Ec1_MWSwishLayer_c1_Yolov9t0_ex_DLModel_280178@@UEAAPEAXI@Z 00000001800c61e0 f i c1_ex_DLModel_28.obj
 0001:000c51e0       ??_Gc1_MWSwishLayer_c1_Yolov9t0_ex_DLModel_280178@@UEAAPEAXI@Z 00000001800c61e0 f i c1_ex_DLModel_28.obj
 0001:000c5220       ??_Gc1_MWSwishLayer_c1_Yolov9t0_ex_DLModel_280179@@UEAAPEAXI@Z 00000001800c6220 f i c1_ex_DLModel_28.obj
 0001:000c5220       ??_Ec1_MWSwishLayer_c1_Yolov9t0_ex_DLModel_280179@@UEAAPEAXI@Z 00000001800c6220 f i c1_ex_DLModel_28.obj
 0001:000c5260       ??_Ec1_MWSwishLayer_c1_Yolov9t0_ex_DLModel_28017@@UEAAPEAXI@Z 00000001800c6260 f i c1_ex_DLModel_28.obj
 0001:000c5260       ??_Gc1_MWSwishLayer_c1_Yolov9t0_ex_DLModel_28017@@UEAAPEAXI@Z 00000001800c6260 f i c1_ex_DLModel_28.obj
 0001:000c52a0       ??_Gc1_MWSwishLayer_c1_Yolov9t0_ex_DLModel_28018@@UEAAPEAXI@Z 00000001800c62a0 f i c1_ex_DLModel_28.obj
 0001:000c52a0       ??_Ec1_MWSwishLayer_c1_Yolov9t0_ex_DLModel_28018@@UEAAPEAXI@Z 00000001800c62a0 f i c1_ex_DLModel_28.obj
 0001:000c52e0       ??_Gc1_MWSwishLayer_c1_Yolov9t0_ex_DLModel_28019@@UEAAPEAXI@Z 00000001800c62e0 f i c1_ex_DLModel_28.obj
 0001:000c52e0       ??_Ec1_MWSwishLayer_c1_Yolov9t0_ex_DLModel_28019@@UEAAPEAXI@Z 00000001800c62e0 f i c1_ex_DLModel_28.obj
 0001:000c5320       ??_Gc1_MWSwishLayer_c1_Yolov9t0_ex_DLModel_2801@@UEAAPEAXI@Z 00000001800c6320 f i c1_ex_DLModel_28.obj
 0001:000c5320       ??_Ec1_MWSwishLayer_c1_Yolov9t0_ex_DLModel_2801@@UEAAPEAXI@Z 00000001800c6320 f i c1_ex_DLModel_28.obj
 0001:000c5360       ??_Gc1_MWSwishLayer_c1_Yolov9t0_ex_DLModel_28020@@UEAAPEAXI@Z 00000001800c6360 f i c1_ex_DLModel_28.obj
 0001:000c5360       ??_Ec1_MWSwishLayer_c1_Yolov9t0_ex_DLModel_28020@@UEAAPEAXI@Z 00000001800c6360 f i c1_ex_DLModel_28.obj
 0001:000c53a0       ??_Ec1_MWSwishLayer_c1_Yolov9t0_ex_DLModel_28021@@UEAAPEAXI@Z 00000001800c63a0 f i c1_ex_DLModel_28.obj
 0001:000c53a0       ??_Gc1_MWSwishLayer_c1_Yolov9t0_ex_DLModel_28021@@UEAAPEAXI@Z 00000001800c63a0 f i c1_ex_DLModel_28.obj
 0001:000c53e0       ??_Ec1_MWSwishLayer_c1_Yolov9t0_ex_DLModel_28022@@UEAAPEAXI@Z 00000001800c63e0 f i c1_ex_DLModel_28.obj
 0001:000c53e0       ??_Gc1_MWSwishLayer_c1_Yolov9t0_ex_DLModel_28022@@UEAAPEAXI@Z 00000001800c63e0 f i c1_ex_DLModel_28.obj
 0001:000c5420       ??_Gc1_MWSwishLayer_c1_Yolov9t0_ex_DLModel_28023@@UEAAPEAXI@Z 00000001800c6420 f i c1_ex_DLModel_28.obj
 0001:000c5420       ??_Ec1_MWSwishLayer_c1_Yolov9t0_ex_DLModel_28023@@UEAAPEAXI@Z 00000001800c6420 f i c1_ex_DLModel_28.obj
 0001:000c5460       ??_Gc1_MWSwishLayer_c1_Yolov9t0_ex_DLModel_28024@@UEAAPEAXI@Z 00000001800c6460 f i c1_ex_DLModel_28.obj
 0001:000c5460       ??_Ec1_MWSwishLayer_c1_Yolov9t0_ex_DLModel_28024@@UEAAPEAXI@Z 00000001800c6460 f i c1_ex_DLModel_28.obj
 0001:000c54a0       ??_Gc1_MWSwishLayer_c1_Yolov9t0_ex_DLModel_28025@@UEAAPEAXI@Z 00000001800c64a0 f i c1_ex_DLModel_28.obj
 0001:000c54a0       ??_Ec1_MWSwishLayer_c1_Yolov9t0_ex_DLModel_28025@@UEAAPEAXI@Z 00000001800c64a0 f i c1_ex_DLModel_28.obj
 0001:000c54e0       ??_Gc1_MWSwishLayer_c1_Yolov9t0_ex_DLModel_28026@@UEAAPEAXI@Z 00000001800c64e0 f i c1_ex_DLModel_28.obj
 0001:000c54e0       ??_Ec1_MWSwishLayer_c1_Yolov9t0_ex_DLModel_28026@@UEAAPEAXI@Z 00000001800c64e0 f i c1_ex_DLModel_28.obj
 0001:000c5520       ??_Ec1_MWSwishLayer_c1_Yolov9t0_ex_DLModel_28027@@UEAAPEAXI@Z 00000001800c6520 f i c1_ex_DLModel_28.obj
 0001:000c5520       ??_Gc1_MWSwishLayer_c1_Yolov9t0_ex_DLModel_28027@@UEAAPEAXI@Z 00000001800c6520 f i c1_ex_DLModel_28.obj
 0001:000c5560       ??_Ec1_MWSwishLayer_c1_Yolov9t0_ex_DLModel_28028@@UEAAPEAXI@Z 00000001800c6560 f i c1_ex_DLModel_28.obj
 0001:000c5560       ??_Gc1_MWSwishLayer_c1_Yolov9t0_ex_DLModel_28028@@UEAAPEAXI@Z 00000001800c6560 f i c1_ex_DLModel_28.obj
 0001:000c55a0       ??_Gc1_MWSwishLayer_c1_Yolov9t0_ex_DLModel_28029@@UEAAPEAXI@Z 00000001800c65a0 f i c1_ex_DLModel_28.obj
 0001:000c55a0       ??_Ec1_MWSwishLayer_c1_Yolov9t0_ex_DLModel_28029@@UEAAPEAXI@Z 00000001800c65a0 f i c1_ex_DLModel_28.obj
 0001:000c55e0       ??_Ec1_MWSwishLayer_c1_Yolov9t0_ex_DLModel_2802@@UEAAPEAXI@Z 00000001800c65e0 f i c1_ex_DLModel_28.obj
 0001:000c55e0       ??_Gc1_MWSwishLayer_c1_Yolov9t0_ex_DLModel_2802@@UEAAPEAXI@Z 00000001800c65e0 f i c1_ex_DLModel_28.obj
 0001:000c5620       ??_Ec1_MWSwishLayer_c1_Yolov9t0_ex_DLModel_28030@@UEAAPEAXI@Z 00000001800c6620 f i c1_ex_DLModel_28.obj
 0001:000c5620       ??_Gc1_MWSwishLayer_c1_Yolov9t0_ex_DLModel_28030@@UEAAPEAXI@Z 00000001800c6620 f i c1_ex_DLModel_28.obj
 0001:000c5660       ??_Ec1_MWSwishLayer_c1_Yolov9t0_ex_DLModel_28031@@UEAAPEAXI@Z 00000001800c6660 f i c1_ex_DLModel_28.obj
 0001:000c5660       ??_Gc1_MWSwishLayer_c1_Yolov9t0_ex_DLModel_28031@@UEAAPEAXI@Z 00000001800c6660 f i c1_ex_DLModel_28.obj
 0001:000c56a0       ??_Gc1_MWSwishLayer_c1_Yolov9t0_ex_DLModel_28032@@UEAAPEAXI@Z 00000001800c66a0 f i c1_ex_DLModel_28.obj
 0001:000c56a0       ??_Ec1_MWSwishLayer_c1_Yolov9t0_ex_DLModel_28032@@UEAAPEAXI@Z 00000001800c66a0 f i c1_ex_DLModel_28.obj
 0001:000c56e0       ??_Ec1_MWSwishLayer_c1_Yolov9t0_ex_DLModel_28033@@UEAAPEAXI@Z 00000001800c66e0 f i c1_ex_DLModel_28.obj
 0001:000c56e0       ??_Gc1_MWSwishLayer_c1_Yolov9t0_ex_DLModel_28033@@UEAAPEAXI@Z 00000001800c66e0 f i c1_ex_DLModel_28.obj
 0001:000c5720       ??_Ec1_MWSwishLayer_c1_Yolov9t0_ex_DLModel_28034@@UEAAPEAXI@Z 00000001800c6720 f i c1_ex_DLModel_28.obj
 0001:000c5720       ??_Gc1_MWSwishLayer_c1_Yolov9t0_ex_DLModel_28034@@UEAAPEAXI@Z 00000001800c6720 f i c1_ex_DLModel_28.obj
 0001:000c5760       ??_Gc1_MWSwishLayer_c1_Yolov9t0_ex_DLModel_28035@@UEAAPEAXI@Z 00000001800c6760 f i c1_ex_DLModel_28.obj
 0001:000c5760       ??_Ec1_MWSwishLayer_c1_Yolov9t0_ex_DLModel_28035@@UEAAPEAXI@Z 00000001800c6760 f i c1_ex_DLModel_28.obj
 0001:000c57a0       ??_Gc1_MWSwishLayer_c1_Yolov9t0_ex_DLModel_28036@@UEAAPEAXI@Z 00000001800c67a0 f i c1_ex_DLModel_28.obj
 0001:000c57a0       ??_Ec1_MWSwishLayer_c1_Yolov9t0_ex_DLModel_28036@@UEAAPEAXI@Z 00000001800c67a0 f i c1_ex_DLModel_28.obj
 0001:000c57e0       ??_Gc1_MWSwishLayer_c1_Yolov9t0_ex_DLModel_28037@@UEAAPEAXI@Z 00000001800c67e0 f i c1_ex_DLModel_28.obj
 0001:000c57e0       ??_Ec1_MWSwishLayer_c1_Yolov9t0_ex_DLModel_28037@@UEAAPEAXI@Z 00000001800c67e0 f i c1_ex_DLModel_28.obj
 0001:000c5820       ??_Gc1_MWSwishLayer_c1_Yolov9t0_ex_DLModel_28038@@UEAAPEAXI@Z 00000001800c6820 f i c1_ex_DLModel_28.obj
 0001:000c5820       ??_Ec1_MWSwishLayer_c1_Yolov9t0_ex_DLModel_28038@@UEAAPEAXI@Z 00000001800c6820 f i c1_ex_DLModel_28.obj
 0001:000c5860       ??_Ec1_MWSwishLayer_c1_Yolov9t0_ex_DLModel_28039@@UEAAPEAXI@Z 00000001800c6860 f i c1_ex_DLModel_28.obj
 0001:000c5860       ??_Gc1_MWSwishLayer_c1_Yolov9t0_ex_DLModel_28039@@UEAAPEAXI@Z 00000001800c6860 f i c1_ex_DLModel_28.obj
 0001:000c58a0       ??_Gc1_MWSwishLayer_c1_Yolov9t0_ex_DLModel_2803@@UEAAPEAXI@Z 00000001800c68a0 f i c1_ex_DLModel_28.obj
 0001:000c58a0       ??_Ec1_MWSwishLayer_c1_Yolov9t0_ex_DLModel_2803@@UEAAPEAXI@Z 00000001800c68a0 f i c1_ex_DLModel_28.obj
 0001:000c58e0       ??_Gc1_MWSwishLayer_c1_Yolov9t0_ex_DLModel_28040@@UEAAPEAXI@Z 00000001800c68e0 f i c1_ex_DLModel_28.obj
 0001:000c58e0       ??_Ec1_MWSwishLayer_c1_Yolov9t0_ex_DLModel_28040@@UEAAPEAXI@Z 00000001800c68e0 f i c1_ex_DLModel_28.obj
 0001:000c5920       ??_Ec1_MWSwishLayer_c1_Yolov9t0_ex_DLModel_28041@@UEAAPEAXI@Z 00000001800c6920 f i c1_ex_DLModel_28.obj
 0001:000c5920       ??_Gc1_MWSwishLayer_c1_Yolov9t0_ex_DLModel_28041@@UEAAPEAXI@Z 00000001800c6920 f i c1_ex_DLModel_28.obj
 0001:000c5960       ??_Gc1_MWSwishLayer_c1_Yolov9t0_ex_DLModel_28042@@UEAAPEAXI@Z 00000001800c6960 f i c1_ex_DLModel_28.obj
 0001:000c5960       ??_Ec1_MWSwishLayer_c1_Yolov9t0_ex_DLModel_28042@@UEAAPEAXI@Z 00000001800c6960 f i c1_ex_DLModel_28.obj
 0001:000c59a0       ??_Gc1_MWSwishLayer_c1_Yolov9t0_ex_DLModel_28043@@UEAAPEAXI@Z 00000001800c69a0 f i c1_ex_DLModel_28.obj
 0001:000c59a0       ??_Ec1_MWSwishLayer_c1_Yolov9t0_ex_DLModel_28043@@UEAAPEAXI@Z 00000001800c69a0 f i c1_ex_DLModel_28.obj
 0001:000c59e0       ??_Gc1_MWSwishLayer_c1_Yolov9t0_ex_DLModel_28044@@UEAAPEAXI@Z 00000001800c69e0 f i c1_ex_DLModel_28.obj
 0001:000c59e0       ??_Ec1_MWSwishLayer_c1_Yolov9t0_ex_DLModel_28044@@UEAAPEAXI@Z 00000001800c69e0 f i c1_ex_DLModel_28.obj
 0001:000c5a20       ??_Ec1_MWSwishLayer_c1_Yolov9t0_ex_DLModel_28045@@UEAAPEAXI@Z 00000001800c6a20 f i c1_ex_DLModel_28.obj
 0001:000c5a20       ??_Gc1_MWSwishLayer_c1_Yolov9t0_ex_DLModel_28045@@UEAAPEAXI@Z 00000001800c6a20 f i c1_ex_DLModel_28.obj
 0001:000c5a60       ??_Gc1_MWSwishLayer_c1_Yolov9t0_ex_DLModel_28046@@UEAAPEAXI@Z 00000001800c6a60 f i c1_ex_DLModel_28.obj
 0001:000c5a60       ??_Ec1_MWSwishLayer_c1_Yolov9t0_ex_DLModel_28046@@UEAAPEAXI@Z 00000001800c6a60 f i c1_ex_DLModel_28.obj
 0001:000c5aa0       ??_Ec1_MWSwishLayer_c1_Yolov9t0_ex_DLModel_28047@@UEAAPEAXI@Z 00000001800c6aa0 f i c1_ex_DLModel_28.obj
 0001:000c5aa0       ??_Gc1_MWSwishLayer_c1_Yolov9t0_ex_DLModel_28047@@UEAAPEAXI@Z 00000001800c6aa0 f i c1_ex_DLModel_28.obj
 0001:000c5ae0       ??_Ec1_MWSwishLayer_c1_Yolov9t0_ex_DLModel_28048@@UEAAPEAXI@Z 00000001800c6ae0 f i c1_ex_DLModel_28.obj
 0001:000c5ae0       ??_Gc1_MWSwishLayer_c1_Yolov9t0_ex_DLModel_28048@@UEAAPEAXI@Z 00000001800c6ae0 f i c1_ex_DLModel_28.obj
 0001:000c5b20       ??_Gc1_MWSwishLayer_c1_Yolov9t0_ex_DLModel_28049@@UEAAPEAXI@Z 00000001800c6b20 f i c1_ex_DLModel_28.obj
 0001:000c5b20       ??_Ec1_MWSwishLayer_c1_Yolov9t0_ex_DLModel_28049@@UEAAPEAXI@Z 00000001800c6b20 f i c1_ex_DLModel_28.obj
 0001:000c5b60       ??_Ec1_MWSwishLayer_c1_Yolov9t0_ex_DLModel_2804@@UEAAPEAXI@Z 00000001800c6b60 f i c1_ex_DLModel_28.obj
 0001:000c5b60       ??_Gc1_MWSwishLayer_c1_Yolov9t0_ex_DLModel_2804@@UEAAPEAXI@Z 00000001800c6b60 f i c1_ex_DLModel_28.obj
 0001:000c5ba0       ??_Gc1_MWSwishLayer_c1_Yolov9t0_ex_DLModel_28050@@UEAAPEAXI@Z 00000001800c6ba0 f i c1_ex_DLModel_28.obj
 0001:000c5ba0       ??_Ec1_MWSwishLayer_c1_Yolov9t0_ex_DLModel_28050@@UEAAPEAXI@Z 00000001800c6ba0 f i c1_ex_DLModel_28.obj
 0001:000c5be0       ??_Gc1_MWSwishLayer_c1_Yolov9t0_ex_DLModel_28051@@UEAAPEAXI@Z 00000001800c6be0 f i c1_ex_DLModel_28.obj
 0001:000c5be0       ??_Ec1_MWSwishLayer_c1_Yolov9t0_ex_DLModel_28051@@UEAAPEAXI@Z 00000001800c6be0 f i c1_ex_DLModel_28.obj
 0001:000c5c20       ??_Gc1_MWSwishLayer_c1_Yolov9t0_ex_DLModel_28052@@UEAAPEAXI@Z 00000001800c6c20 f i c1_ex_DLModel_28.obj
 0001:000c5c20       ??_Ec1_MWSwishLayer_c1_Yolov9t0_ex_DLModel_28052@@UEAAPEAXI@Z 00000001800c6c20 f i c1_ex_DLModel_28.obj
 0001:000c5c60       ??_Ec1_MWSwishLayer_c1_Yolov9t0_ex_DLModel_28053@@UEAAPEAXI@Z 00000001800c6c60 f i c1_ex_DLModel_28.obj
 0001:000c5c60       ??_Gc1_MWSwishLayer_c1_Yolov9t0_ex_DLModel_28053@@UEAAPEAXI@Z 00000001800c6c60 f i c1_ex_DLModel_28.obj
 0001:000c5ca0       ??_Gc1_MWSwishLayer_c1_Yolov9t0_ex_DLModel_28054@@UEAAPEAXI@Z 00000001800c6ca0 f i c1_ex_DLModel_28.obj
 0001:000c5ca0       ??_Ec1_MWSwishLayer_c1_Yolov9t0_ex_DLModel_28054@@UEAAPEAXI@Z 00000001800c6ca0 f i c1_ex_DLModel_28.obj
 0001:000c5ce0       ??_Ec1_MWSwishLayer_c1_Yolov9t0_ex_DLModel_28055@@UEAAPEAXI@Z 00000001800c6ce0 f i c1_ex_DLModel_28.obj
 0001:000c5ce0       ??_Gc1_MWSwishLayer_c1_Yolov9t0_ex_DLModel_28055@@UEAAPEAXI@Z 00000001800c6ce0 f i c1_ex_DLModel_28.obj
 0001:000c5d20       ??_Gc1_MWSwishLayer_c1_Yolov9t0_ex_DLModel_28056@@UEAAPEAXI@Z 00000001800c6d20 f i c1_ex_DLModel_28.obj
 0001:000c5d20       ??_Ec1_MWSwishLayer_c1_Yolov9t0_ex_DLModel_28056@@UEAAPEAXI@Z 00000001800c6d20 f i c1_ex_DLModel_28.obj
 0001:000c5d60       ??_Ec1_MWSwishLayer_c1_Yolov9t0_ex_DLModel_28057@@UEAAPEAXI@Z 00000001800c6d60 f i c1_ex_DLModel_28.obj
 0001:000c5d60       ??_Gc1_MWSwishLayer_c1_Yolov9t0_ex_DLModel_28057@@UEAAPEAXI@Z 00000001800c6d60 f i c1_ex_DLModel_28.obj
 0001:000c5da0       ??_Ec1_MWSwishLayer_c1_Yolov9t0_ex_DLModel_28058@@UEAAPEAXI@Z 00000001800c6da0 f i c1_ex_DLModel_28.obj
 0001:000c5da0       ??_Gc1_MWSwishLayer_c1_Yolov9t0_ex_DLModel_28058@@UEAAPEAXI@Z 00000001800c6da0 f i c1_ex_DLModel_28.obj
 0001:000c5de0       ??_Gc1_MWSwishLayer_c1_Yolov9t0_ex_DLModel_28059@@UEAAPEAXI@Z 00000001800c6de0 f i c1_ex_DLModel_28.obj
 0001:000c5de0       ??_Ec1_MWSwishLayer_c1_Yolov9t0_ex_DLModel_28059@@UEAAPEAXI@Z 00000001800c6de0 f i c1_ex_DLModel_28.obj
 0001:000c5e20       ??_Ec1_MWSwishLayer_c1_Yolov9t0_ex_DLModel_2805@@UEAAPEAXI@Z 00000001800c6e20 f i c1_ex_DLModel_28.obj
 0001:000c5e20       ??_Gc1_MWSwishLayer_c1_Yolov9t0_ex_DLModel_2805@@UEAAPEAXI@Z 00000001800c6e20 f i c1_ex_DLModel_28.obj
 0001:000c5e60       ??_Gc1_MWSwishLayer_c1_Yolov9t0_ex_DLModel_28060@@UEAAPEAXI@Z 00000001800c6e60 f i c1_ex_DLModel_28.obj
 0001:000c5e60       ??_Ec1_MWSwishLayer_c1_Yolov9t0_ex_DLModel_28060@@UEAAPEAXI@Z 00000001800c6e60 f i c1_ex_DLModel_28.obj
 0001:000c5ea0       ??_Gc1_MWSwishLayer_c1_Yolov9t0_ex_DLModel_28061@@UEAAPEAXI@Z 00000001800c6ea0 f i c1_ex_DLModel_28.obj
 0001:000c5ea0       ??_Ec1_MWSwishLayer_c1_Yolov9t0_ex_DLModel_28061@@UEAAPEAXI@Z 00000001800c6ea0 f i c1_ex_DLModel_28.obj
 0001:000c5ee0       ??_Ec1_MWSwishLayer_c1_Yolov9t0_ex_DLModel_28062@@UEAAPEAXI@Z 00000001800c6ee0 f i c1_ex_DLModel_28.obj
 0001:000c5ee0       ??_Gc1_MWSwishLayer_c1_Yolov9t0_ex_DLModel_28062@@UEAAPEAXI@Z 00000001800c6ee0 f i c1_ex_DLModel_28.obj
 0001:000c5f20       ??_Gc1_MWSwishLayer_c1_Yolov9t0_ex_DLModel_28063@@UEAAPEAXI@Z 00000001800c6f20 f i c1_ex_DLModel_28.obj
 0001:000c5f20       ??_Ec1_MWSwishLayer_c1_Yolov9t0_ex_DLModel_28063@@UEAAPEAXI@Z 00000001800c6f20 f i c1_ex_DLModel_28.obj
 0001:000c5f60       ??_Ec1_MWSwishLayer_c1_Yolov9t0_ex_DLModel_28064@@UEAAPEAXI@Z 00000001800c6f60 f i c1_ex_DLModel_28.obj
 0001:000c5f60       ??_Gc1_MWSwishLayer_c1_Yolov9t0_ex_DLModel_28064@@UEAAPEAXI@Z 00000001800c6f60 f i c1_ex_DLModel_28.obj
 0001:000c5fa0       ??_Gc1_MWSwishLayer_c1_Yolov9t0_ex_DLModel_28065@@UEAAPEAXI@Z 00000001800c6fa0 f i c1_ex_DLModel_28.obj
 0001:000c5fa0       ??_Ec1_MWSwishLayer_c1_Yolov9t0_ex_DLModel_28065@@UEAAPEAXI@Z 00000001800c6fa0 f i c1_ex_DLModel_28.obj
 0001:000c5fe0       ??_Gc1_MWSwishLayer_c1_Yolov9t0_ex_DLModel_28066@@UEAAPEAXI@Z 00000001800c6fe0 f i c1_ex_DLModel_28.obj
 0001:000c5fe0       ??_Ec1_MWSwishLayer_c1_Yolov9t0_ex_DLModel_28066@@UEAAPEAXI@Z 00000001800c6fe0 f i c1_ex_DLModel_28.obj
 0001:000c6020       ??_Ec1_MWSwishLayer_c1_Yolov9t0_ex_DLModel_28067@@UEAAPEAXI@Z 00000001800c7020 f i c1_ex_DLModel_28.obj
 0001:000c6020       ??_Gc1_MWSwishLayer_c1_Yolov9t0_ex_DLModel_28067@@UEAAPEAXI@Z 00000001800c7020 f i c1_ex_DLModel_28.obj
 0001:000c6060       ??_Gc1_MWSwishLayer_c1_Yolov9t0_ex_DLModel_28068@@UEAAPEAXI@Z 00000001800c7060 f i c1_ex_DLModel_28.obj
 0001:000c6060       ??_Ec1_MWSwishLayer_c1_Yolov9t0_ex_DLModel_28068@@UEAAPEAXI@Z 00000001800c7060 f i c1_ex_DLModel_28.obj
 0001:000c60a0       ??_Ec1_MWSwishLayer_c1_Yolov9t0_ex_DLModel_28069@@UEAAPEAXI@Z 00000001800c70a0 f i c1_ex_DLModel_28.obj
 0001:000c60a0       ??_Gc1_MWSwishLayer_c1_Yolov9t0_ex_DLModel_28069@@UEAAPEAXI@Z 00000001800c70a0 f i c1_ex_DLModel_28.obj
 0001:000c60e0       ??_Gc1_MWSwishLayer_c1_Yolov9t0_ex_DLModel_2806@@UEAAPEAXI@Z 00000001800c70e0 f i c1_ex_DLModel_28.obj
 0001:000c60e0       ??_Ec1_MWSwishLayer_c1_Yolov9t0_ex_DLModel_2806@@UEAAPEAXI@Z 00000001800c70e0 f i c1_ex_DLModel_28.obj
 0001:000c6120       ??_Gc1_MWSwishLayer_c1_Yolov9t0_ex_DLModel_28070@@UEAAPEAXI@Z 00000001800c7120 f i c1_ex_DLModel_28.obj
 0001:000c6120       ??_Ec1_MWSwishLayer_c1_Yolov9t0_ex_DLModel_28070@@UEAAPEAXI@Z 00000001800c7120 f i c1_ex_DLModel_28.obj
 0001:000c6160       ??_Ec1_MWSwishLayer_c1_Yolov9t0_ex_DLModel_28071@@UEAAPEAXI@Z 00000001800c7160 f i c1_ex_DLModel_28.obj
 0001:000c6160       ??_Gc1_MWSwishLayer_c1_Yolov9t0_ex_DLModel_28071@@UEAAPEAXI@Z 00000001800c7160 f i c1_ex_DLModel_28.obj
 0001:000c61a0       ??_Ec1_MWSwishLayer_c1_Yolov9t0_ex_DLModel_28072@@UEAAPEAXI@Z 00000001800c71a0 f i c1_ex_DLModel_28.obj
 0001:000c61a0       ??_Gc1_MWSwishLayer_c1_Yolov9t0_ex_DLModel_28072@@UEAAPEAXI@Z 00000001800c71a0 f i c1_ex_DLModel_28.obj
 0001:000c61e0       ??_Gc1_MWSwishLayer_c1_Yolov9t0_ex_DLModel_28073@@UEAAPEAXI@Z 00000001800c71e0 f i c1_ex_DLModel_28.obj
 0001:000c61e0       ??_Ec1_MWSwishLayer_c1_Yolov9t0_ex_DLModel_28073@@UEAAPEAXI@Z 00000001800c71e0 f i c1_ex_DLModel_28.obj
 0001:000c6220       ??_Gc1_MWSwishLayer_c1_Yolov9t0_ex_DLModel_28074@@UEAAPEAXI@Z 00000001800c7220 f i c1_ex_DLModel_28.obj
 0001:000c6220       ??_Ec1_MWSwishLayer_c1_Yolov9t0_ex_DLModel_28074@@UEAAPEAXI@Z 00000001800c7220 f i c1_ex_DLModel_28.obj
 0001:000c6260       ??_Ec1_MWSwishLayer_c1_Yolov9t0_ex_DLModel_28075@@UEAAPEAXI@Z 00000001800c7260 f i c1_ex_DLModel_28.obj
 0001:000c6260       ??_Gc1_MWSwishLayer_c1_Yolov9t0_ex_DLModel_28075@@UEAAPEAXI@Z 00000001800c7260 f i c1_ex_DLModel_28.obj
 0001:000c62a0       ??_Ec1_MWSwishLayer_c1_Yolov9t0_ex_DLModel_28076@@UEAAPEAXI@Z 00000001800c72a0 f i c1_ex_DLModel_28.obj
 0001:000c62a0       ??_Gc1_MWSwishLayer_c1_Yolov9t0_ex_DLModel_28076@@UEAAPEAXI@Z 00000001800c72a0 f i c1_ex_DLModel_28.obj
 0001:000c62e0       ??_Gc1_MWSwishLayer_c1_Yolov9t0_ex_DLModel_28077@@UEAAPEAXI@Z 00000001800c72e0 f i c1_ex_DLModel_28.obj
 0001:000c62e0       ??_Ec1_MWSwishLayer_c1_Yolov9t0_ex_DLModel_28077@@UEAAPEAXI@Z 00000001800c72e0 f i c1_ex_DLModel_28.obj
 0001:000c6320       ??_Gc1_MWSwishLayer_c1_Yolov9t0_ex_DLModel_28078@@UEAAPEAXI@Z 00000001800c7320 f i c1_ex_DLModel_28.obj
 0001:000c6320       ??_Ec1_MWSwishLayer_c1_Yolov9t0_ex_DLModel_28078@@UEAAPEAXI@Z 00000001800c7320 f i c1_ex_DLModel_28.obj
 0001:000c6360       ??_Ec1_MWSwishLayer_c1_Yolov9t0_ex_DLModel_28079@@UEAAPEAXI@Z 00000001800c7360 f i c1_ex_DLModel_28.obj
 0001:000c6360       ??_Gc1_MWSwishLayer_c1_Yolov9t0_ex_DLModel_28079@@UEAAPEAXI@Z 00000001800c7360 f i c1_ex_DLModel_28.obj
 0001:000c63a0       ??_Gc1_MWSwishLayer_c1_Yolov9t0_ex_DLModel_2807@@UEAAPEAXI@Z 00000001800c73a0 f i c1_ex_DLModel_28.obj
 0001:000c63a0       ??_Ec1_MWSwishLayer_c1_Yolov9t0_ex_DLModel_2807@@UEAAPEAXI@Z 00000001800c73a0 f i c1_ex_DLModel_28.obj
 0001:000c63e0       ??_Ec1_MWSwishLayer_c1_Yolov9t0_ex_DLModel_28080@@UEAAPEAXI@Z 00000001800c73e0 f i c1_ex_DLModel_28.obj
 0001:000c63e0       ??_Gc1_MWSwishLayer_c1_Yolov9t0_ex_DLModel_28080@@UEAAPEAXI@Z 00000001800c73e0 f i c1_ex_DLModel_28.obj
 0001:000c6420       ??_Ec1_MWSwishLayer_c1_Yolov9t0_ex_DLModel_28081@@UEAAPEAXI@Z 00000001800c7420 f i c1_ex_DLModel_28.obj
 0001:000c6420       ??_Gc1_MWSwishLayer_c1_Yolov9t0_ex_DLModel_28081@@UEAAPEAXI@Z 00000001800c7420 f i c1_ex_DLModel_28.obj
 0001:000c6460       ??_Gc1_MWSwishLayer_c1_Yolov9t0_ex_DLModel_28082@@UEAAPEAXI@Z 00000001800c7460 f i c1_ex_DLModel_28.obj
 0001:000c6460       ??_Ec1_MWSwishLayer_c1_Yolov9t0_ex_DLModel_28082@@UEAAPEAXI@Z 00000001800c7460 f i c1_ex_DLModel_28.obj
 0001:000c64a0       ??_Ec1_MWSwishLayer_c1_Yolov9t0_ex_DLModel_28083@@UEAAPEAXI@Z 00000001800c74a0 f i c1_ex_DLModel_28.obj
 0001:000c64a0       ??_Gc1_MWSwishLayer_c1_Yolov9t0_ex_DLModel_28083@@UEAAPEAXI@Z 00000001800c74a0 f i c1_ex_DLModel_28.obj
 0001:000c64e0       ??_Ec1_MWSwishLayer_c1_Yolov9t0_ex_DLModel_28084@@UEAAPEAXI@Z 00000001800c74e0 f i c1_ex_DLModel_28.obj
 0001:000c64e0       ??_Gc1_MWSwishLayer_c1_Yolov9t0_ex_DLModel_28084@@UEAAPEAXI@Z 00000001800c74e0 f i c1_ex_DLModel_28.obj
 0001:000c6520       ??_Ec1_MWSwishLayer_c1_Yolov9t0_ex_DLModel_28085@@UEAAPEAXI@Z 00000001800c7520 f i c1_ex_DLModel_28.obj
 0001:000c6520       ??_Gc1_MWSwishLayer_c1_Yolov9t0_ex_DLModel_28085@@UEAAPEAXI@Z 00000001800c7520 f i c1_ex_DLModel_28.obj
 0001:000c6560       ??_Ec1_MWSwishLayer_c1_Yolov9t0_ex_DLModel_28086@@UEAAPEAXI@Z 00000001800c7560 f i c1_ex_DLModel_28.obj
 0001:000c6560       ??_Gc1_MWSwishLayer_c1_Yolov9t0_ex_DLModel_28086@@UEAAPEAXI@Z 00000001800c7560 f i c1_ex_DLModel_28.obj
 0001:000c65a0       ??_Ec1_MWSwishLayer_c1_Yolov9t0_ex_DLModel_28087@@UEAAPEAXI@Z 00000001800c75a0 f i c1_ex_DLModel_28.obj
 0001:000c65a0       ??_Gc1_MWSwishLayer_c1_Yolov9t0_ex_DLModel_28087@@UEAAPEAXI@Z 00000001800c75a0 f i c1_ex_DLModel_28.obj
 0001:000c65e0       ??_Gc1_MWSwishLayer_c1_Yolov9t0_ex_DLModel_28088@@UEAAPEAXI@Z 00000001800c75e0 f i c1_ex_DLModel_28.obj
 0001:000c65e0       ??_Ec1_MWSwishLayer_c1_Yolov9t0_ex_DLModel_28088@@UEAAPEAXI@Z 00000001800c75e0 f i c1_ex_DLModel_28.obj
 0001:000c6620       ??_Gc1_MWSwishLayer_c1_Yolov9t0_ex_DLModel_28089@@UEAAPEAXI@Z 00000001800c7620 f i c1_ex_DLModel_28.obj
 0001:000c6620       ??_Ec1_MWSwishLayer_c1_Yolov9t0_ex_DLModel_28089@@UEAAPEAXI@Z 00000001800c7620 f i c1_ex_DLModel_28.obj
 0001:000c6660       ??_Gc1_MWSwishLayer_c1_Yolov9t0_ex_DLModel_2808@@UEAAPEAXI@Z 00000001800c7660 f i c1_ex_DLModel_28.obj
 0001:000c6660       ??_Ec1_MWSwishLayer_c1_Yolov9t0_ex_DLModel_2808@@UEAAPEAXI@Z 00000001800c7660 f i c1_ex_DLModel_28.obj
 0001:000c66a0       ??_Gc1_MWSwishLayer_c1_Yolov9t0_ex_DLModel_28090@@UEAAPEAXI@Z 00000001800c76a0 f i c1_ex_DLModel_28.obj
 0001:000c66a0       ??_Ec1_MWSwishLayer_c1_Yolov9t0_ex_DLModel_28090@@UEAAPEAXI@Z 00000001800c76a0 f i c1_ex_DLModel_28.obj
 0001:000c66e0       ??_Gc1_MWSwishLayer_c1_Yolov9t0_ex_DLModel_28091@@UEAAPEAXI@Z 00000001800c76e0 f i c1_ex_DLModel_28.obj
 0001:000c66e0       ??_Ec1_MWSwishLayer_c1_Yolov9t0_ex_DLModel_28091@@UEAAPEAXI@Z 00000001800c76e0 f i c1_ex_DLModel_28.obj
 0001:000c6720       ??_Ec1_MWSwishLayer_c1_Yolov9t0_ex_DLModel_28092@@UEAAPEAXI@Z 00000001800c7720 f i c1_ex_DLModel_28.obj
 0001:000c6720       ??_Gc1_MWSwishLayer_c1_Yolov9t0_ex_DLModel_28092@@UEAAPEAXI@Z 00000001800c7720 f i c1_ex_DLModel_28.obj
 0001:000c6760       ??_Gc1_MWSwishLayer_c1_Yolov9t0_ex_DLModel_28093@@UEAAPEAXI@Z 00000001800c7760 f i c1_ex_DLModel_28.obj
 0001:000c6760       ??_Ec1_MWSwishLayer_c1_Yolov9t0_ex_DLModel_28093@@UEAAPEAXI@Z 00000001800c7760 f i c1_ex_DLModel_28.obj
 0001:000c67a0       ??_Ec1_MWSwishLayer_c1_Yolov9t0_ex_DLModel_28094@@UEAAPEAXI@Z 00000001800c77a0 f i c1_ex_DLModel_28.obj
 0001:000c67a0       ??_Gc1_MWSwishLayer_c1_Yolov9t0_ex_DLModel_28094@@UEAAPEAXI@Z 00000001800c77a0 f i c1_ex_DLModel_28.obj
 0001:000c67e0       ??_Ec1_MWSwishLayer_c1_Yolov9t0_ex_DLModel_28095@@UEAAPEAXI@Z 00000001800c77e0 f i c1_ex_DLModel_28.obj
 0001:000c67e0       ??_Gc1_MWSwishLayer_c1_Yolov9t0_ex_DLModel_28095@@UEAAPEAXI@Z 00000001800c77e0 f i c1_ex_DLModel_28.obj
 0001:000c6820       ??_Gc1_MWSwishLayer_c1_Yolov9t0_ex_DLModel_28096@@UEAAPEAXI@Z 00000001800c7820 f i c1_ex_DLModel_28.obj
 0001:000c6820       ??_Ec1_MWSwishLayer_c1_Yolov9t0_ex_DLModel_28096@@UEAAPEAXI@Z 00000001800c7820 f i c1_ex_DLModel_28.obj
 0001:000c6860       ??_Ec1_MWSwishLayer_c1_Yolov9t0_ex_DLModel_28097@@UEAAPEAXI@Z 00000001800c7860 f i c1_ex_DLModel_28.obj
 0001:000c6860       ??_Gc1_MWSwishLayer_c1_Yolov9t0_ex_DLModel_28097@@UEAAPEAXI@Z 00000001800c7860 f i c1_ex_DLModel_28.obj
 0001:000c68a0       ??_Gc1_MWSwishLayer_c1_Yolov9t0_ex_DLModel_28098@@UEAAPEAXI@Z 00000001800c78a0 f i c1_ex_DLModel_28.obj
 0001:000c68a0       ??_Ec1_MWSwishLayer_c1_Yolov9t0_ex_DLModel_28098@@UEAAPEAXI@Z 00000001800c78a0 f i c1_ex_DLModel_28.obj
 0001:000c68e0       ??_Ec1_MWSwishLayer_c1_Yolov9t0_ex_DLModel_28099@@UEAAPEAXI@Z 00000001800c78e0 f i c1_ex_DLModel_28.obj
 0001:000c68e0       ??_Gc1_MWSwishLayer_c1_Yolov9t0_ex_DLModel_28099@@UEAAPEAXI@Z 00000001800c78e0 f i c1_ex_DLModel_28.obj
 0001:000c6920       ??_Gc1_MWSwishLayer_c1_Yolov9t0_ex_DLModel_2809@@UEAAPEAXI@Z 00000001800c7920 f i c1_ex_DLModel_28.obj
 0001:000c6920       ??_Ec1_MWSwishLayer_c1_Yolov9t0_ex_DLModel_2809@@UEAAPEAXI@Z 00000001800c7920 f i c1_ex_DLModel_28.obj
 0001:000c6960       ??_Gcuda_error_category@detail@cuda_cub@system@thrust@@UEAAPEAXI@Z 00000001800c7960 f i c1_ex_DLModel_28.obj
 0001:000c6960       ??_Ecuda_error_category@detail@cuda_cub@system@thrust@@UEAAPEAXI@Z 00000001800c7960 f i c1_ex_DLModel_28.obj
 0001:000c69a0       ??_Eerror_category@system@thrust@@UEAAPEAXI@Z 00000001800c79a0 f i c1_ex_DLModel_28.obj
 0001:000c69a0       ??_Gerror_category@system@thrust@@UEAAPEAXI@Z 00000001800c79a0 f i c1_ex_DLModel_28.obj
 0001:000c69e0       ??_Gexception@std@@UEAAPEAXI@Z 00000001800c79e0 f i c1_ex_DLModel_28.obj
 0001:000c69e0       ??_Eexception@std@@UEAAPEAXI@Z 00000001800c79e0 f i c1_ex_DLModel_28.obj
 0001:000c6a20       ??_Egeneric_error_category@detail@system@thrust@@UEAAPEAXI@Z 00000001800c7a20 f i c1_ex_DLModel_28.obj
 0001:000c6a20       ??_Ggeneric_error_category@detail@system@thrust@@UEAAPEAXI@Z 00000001800c7a20 f i c1_ex_DLModel_28.obj
 0001:000c6a60       ??_Eruntime_error@std@@UEAAPEAXI@Z 00000001800c7a60 f i c1_ex_DLModel_28.obj
 0001:000c6a60       ??_Gruntime_error@std@@UEAAPEAXI@Z 00000001800c7a60 f i c1_ex_DLModel_28.obj
 0001:000c6aa0       ??_Esystem_error@system@thrust@@UEAAPEAXI@Z 00000001800c7aa0 f i c1_ex_DLModel_28.obj
 0001:000c6aa0       ??_Gsystem_error@system@thrust@@UEAAPEAXI@Z 00000001800c7aa0 f i c1_ex_DLModel_28.obj
 0001:000c6ae0       ??_Gsystem_error_category@detail@system@thrust@@UEAAPEAXI@Z 00000001800c7ae0 f i c1_ex_DLModel_28.obj
 0001:000c6ae0       ??_Esystem_error_category@detail@system@thrust@@UEAAPEAXI@Z 00000001800c7ae0 f i c1_ex_DLModel_28.obj
 0001:000c6b20       ?Alternate@?$DoubleBuffer@H@CUB_200200_890_NS@cub@@QEAAPEAHXZ 00000001800c7b20 f i c1_ex_DLModel_28.obj
 0001:000c6b40       ?Alternate@?$DoubleBuffer@U?$ValueIndexPair@N@@@CUB_200200_890_NS@cub@@QEAAPEAU?$ValueIndexPair@N@@XZ 00000001800c7b40 f i c1_ex_DLModel_28.obj
 0001:000c6b60       ?Current@?$DoubleBuffer@H@CUB_200200_890_NS@cub@@QEAAPEAHXZ 00000001800c7b60 f i c1_ex_DLModel_28.obj
 0001:000c6b80       ?Current@?$DoubleBuffer@U?$ValueIndexPair@N@@@CUB_200200_890_NS@cub@@QEAAPEAU?$ValueIndexPair@N@@XZ 00000001800c7b80 f i c1_ex_DLModel_28.obj
 0001:000c6ba0       ?CurrentDevice@CUB_200200_890_NS@cub@@YAHXZ 00000001800c7ba0 f i c1_ex_DLModel_28.obj
 0001:000c6be0       ?Debug@CUB_200200_890_NS@cub@@YA?AW4cudaError@@W43@PEBDH@Z 00000001800c7be0 f i c1_ex_DLModel_28.obj
 0001:000c6c00       ?DebugSyncStream@detail@CUB_200200_890_NS@cub@@YA?AW4cudaError@@PEAUCUstream_st@@@Z 00000001800c7c00 f i c1_ex_DLModel_28.obj
 0001:000c6c10       ?DeviceCount@CUB_200200_890_NS@cub@@YAHXZ 00000001800c7c10 f i c1_ex_DLModel_28.obj
 0001:000c6c30       ?DeviceCountCachedValue@CUB_200200_890_NS@cub@@YAHXZ 00000001800c7c30 f i c1_ex_DLModel_28.obj
 0001:000c6ca0       ?DeviceCountUncached@CUB_200200_890_NS@cub@@YAHXZ 00000001800c7ca0 f i c1_ex_DLModel_28.obj
 0001:000c6ce0       ?Dispatch@?$DispatchMergeSort@PEANPEANPEANPEANHU?$customGreater@N@@U?$DeviceMergeSortPolicy@PEAN@CUB_200200_890_NS@cub@@@CUB_200200_890_NS@cub@@SA?AW4cudaError@@PEAXAEA_KPEAN222HU?$customGreater@N@@PEAUCUstream_st@@@Z 00000001800c7ce0 f i c1_ex_DLModel_28.obj
 0001:000c6e00       ?Dispatch@?$DispatchMergeSort@PEANPEANPEANPEANHU?$customLesser@N@@U?$DeviceMergeSortPolicy@PEAN@CUB_200200_890_NS@cub@@@CUB_200200_890_NS@cub@@SA?AW4cudaError@@PEAXAEA_KPEAN222HU?$customLesser@N@@PEAUCUstream_st@@@Z 00000001800c7e00 f i c1_ex_DLModel_28.obj
 0001:000c6f20       ?Dispatch@?$DispatchMergeSort@PEANV?$zip_iterator@V?$tuple@PEAHPEANUnull_type@thrust@@U12@U12@U12@U12@U12@U12@U12@@thrust@@@thrust@@PEANV12@HU?$customGreater@N@@U?$DeviceMergeSortPolicy@PEAN@CUB_200200_890_NS@cub@@@CUB_200200_890_NS@cub@@SA?AW4cudaError@@PEAXAEA_KPEANV?$zip_iterator@V?$tuple@PEAHPEANUnull_type@thrust@@U12@U12@U12@U12@U12@U12@U12@@thrust@@@thrust@@23HU?$customGreater@N@@PEAUCUstream_st@@@Z 00000001800c7f20 f i c1_ex_DLModel_28.obj
 0001:000c7070       ?Dispatch@?$DispatchMergeSort@PEANV?$zip_iterator@V?$tuple@PEAHPEANUnull_type@thrust@@U12@U12@U12@U12@U12@U12@U12@@thrust@@@thrust@@PEANV12@HU?$customLesser@N@@U?$DeviceMergeSortPolicy@PEAN@CUB_200200_890_NS@cub@@@CUB_200200_890_NS@cub@@SA?AW4cudaError@@PEAXAEA_KPEANV?$zip_iterator@V?$tuple@PEAHPEANUnull_type@thrust@@U12@U12@U12@U12@U12@U12@U12@@thrust@@@thrust@@23HU?$customLesser@N@@PEAUCUstream_st@@@Z 00000001800c8070 f i c1_ex_DLModel_28.obj
 0001:000c71c0       ?Dispatch@?$DispatchRadixSort@$0A@HU?$ValueIndexPair@N@@IU?$DeviceRadixSortPolicy@HU?$ValueIndexPair@N@@I@CUB_200200_890_NS@cub@@Uidentity_decomposer_t@detail@34@@CUB_200200_890_NS@cub@@SA?AW4cudaError@@PEAXAEA_KAEAU?$DoubleBuffer@H@23@AEAU?$DoubleBuffer@U?$ValueIndexPair@N@@@23@IHH_NPEAUCUstream_st@@Uidentity_decomposer_t@detail@23@@Z 00000001800c81c0 f i c1_ex_DLModel_28.obj
 0001:000c72e0       ?DispatchInit@?$GridEvenShare@I@CUB_200200_890_NS@cub@@QEAAXIHH@Z 00000001800c82e0 f i c1_ex_DLModel_28.obj
 0001:000c73e0       ?HasUVA@detail@CUB_200200_890_NS@cub@@YA?AW4cudaError@@AEA_N@Z 00000001800c83e0 f i c1_ex_DLModel_28.obj
 0001:000c74a0       ?InvokeCopy@?$DispatchRadixSort@$0A@HU?$ValueIndexPair@N@@IU?$DeviceRadixSortPolicy@HU?$ValueIndexPair@N@@I@CUB_200200_890_NS@cub@@Uidentity_decomposer_t@detail@34@@CUB_200200_890_NS@cub@@QEAA?AW4cudaError@@XZ 00000001800c84a0 f i c1_ex_DLModel_28.obj
 0001:000c7690       ?PtxVersion@CUB_200200_890_NS@cub@@YA?AW4cudaError@@AEAH@Z 00000001800c8690 f i c1_ex_DLModel_28.obj
 0001:000c7720       ?PtxVersionUncached@CUB_200200_890_NS@cub@@YA?AW4cudaError@@AEAH@Z 00000001800c8720 f i c1_ex_DLModel_28.obj
 0001:000c77b0       ?PtxVersionUncached@CUB_200200_890_NS@cub@@YA?AW4cudaError@@AEAHH@Z 00000001800c87b0 f i c1_ex_DLModel_28.obj
 0001:000c77f0       ?SyncStream@CUB_200200_890_NS@cub@@YA?AW4cudaError@@PEAUCUstream_st@@@Z 00000001800c87f0 f i c1_ex_DLModel_28.obj
 0001:000c7830       ?VshmemSize@detail@CUB_200200_890_NS@cub@@YA_K_K00@Z 00000001800c8830 f i c1_ex_DLModel_28.obj
 0001:000c7880       ?_Adjust_manually_vector_aligned@std@@YAXAEAPEAXAEA_K@Z 00000001800c8880 f i c1_ex_DLModel_28.obj
 0001:000c7920       ?_Adopt@_Iterator_base0@std@@QEAAXPEBX@Z 00000001800c8920 f i c1_ex_DLModel_28.obj
 0001:000c7930       ?_Alloc_proxy@_Container_base0@std@@QEAAXAEBU_Fake_allocator@2@@Z 00000001800c8930 f i c1_ex_DLModel_28.obj
 0001:000c7940       ?_Allocate@?$_Alloc_construct_ptr@V?$allocator@U?$_Tree_node@U?$pair@$$CBHH@std@@PEAX@std@@@std@@@std@@QEAAXXZ 00000001800c8940 f i c1_ex_DLModel_28.obj
 0001:000c7980       ?_Allocate@_Default_allocate_traits@std@@SAPEAX_K@Z 00000001800c8980 f i c1_ex_DLModel_28.obj
 0001:000c79a0       ?_Calculate_growth@?$basic_string@DU?$char_traits@D@std@@V?$allocator@D@2@@std@@AEBA_K_K@Z 00000001800c89a0 f i c1_ex_DLModel_28.obj
 0001:000c79e0       ?_Calculate_growth@?$basic_string@DU?$char_traits@D@std@@V?$allocator@D@2@@std@@CA_K_K00@Z 00000001800c89e0 f i c1_ex_DLModel_28.obj
 0001:000c7a80       ?_Check_grow_by_1@?$_Tree@V?$_Tmap_traits@HHU?$less@H@std@@V?$allocator@U?$pair@$$CBHH@std@@@2@$0A@@std@@@std@@IEAAXXZ 00000001800c8a80 f i c1_ex_DLModel_28.obj
 0001:000c7ac0       ?_Check_load_memory_order@std@@YAXW4memory_order@1@@Z 00000001800c8ac0 f i c1_ex_DLModel_28.obj
 0001:000c7ae0       ?_Check_memory_order@std@@YAXW4memory_order@1@@Z 00000001800c8ae0 f i c1_ex_DLModel_28.obj
 0001:000c7af0       ?_Combine_cas_memory_orders@std@@YA?AW4memory_order@1@W421@0@Z 00000001800c8af0 f i c1_ex_DLModel_28.obj
 0001:000c7b40       ?_Construct_lv_contents@?$basic_string@DU?$char_traits@D@std@@V?$allocator@D@2@@std@@AEAAXAEBV12@@Z 00000001800c8b40 f i c1_ex_DLModel_28.obj
 0001:000c7cb0       ?_Get_first@?$_Compressed_pair@U?$less@H@std@@V?$_Compressed_pair@V?$allocator@U?$_Tree_node@U?$pair@$$CBHH@std@@PEAX@std@@@std@@V?$_Tree_val@U?$_Tree_simple_types@U?$pair@$$CBHH@std@@@std@@@2@$00@2@$00@std@@QEBAAEBU?$less@H@2@XZ 00000001800c8cb0 f i c1_ex_DLModel_28.obj
 0001:000c7cc0       ?_Get_first@?$_Compressed_pair@V?$allocator@D@std@@V?$_String_val@U?$_Simple_types@D@std@@@2@$00@std@@QEAAAEAV?$allocator@D@2@XZ 00000001800c8cc0 f i c1_ex_DLModel_28.obj
 0001:000c7cd0       ?_Get_first@?$_Compressed_pair@V?$allocator@D@std@@V?$_String_val@U?$_Simple_types@D@std@@@2@$00@std@@QEBAAEBV?$allocator@D@2@XZ 00000001800c8cd0 f i c1_ex_DLModel_28.obj
 0001:000c7ce0       ?_Get_first@?$_Compressed_pair@V?$allocator@U?$_Tree_node@U?$pair@$$CBHH@std@@PEAX@std@@@std@@V?$_Tree_val@U?$_Tree_simple_types@U?$pair@$$CBHH@std@@@std@@@2@$00@std@@QEAAAEAV?$allocator@U?$_Tree_node@U?$pair@$$CBHH@std@@PEAX@std@@@2@XZ 00000001800c8ce0 f i c1_ex_DLModel_28.obj
 0001:000c7cf0       ?_Get_first@?$_Compressed_pair@V?$allocator@U?$_Tree_node@U?$pair@$$CBHH@std@@PEAX@std@@@std@@V?$_Tree_val@U?$_Tree_simple_types@U?$pair@$$CBHH@std@@@std@@@2@$00@std@@QEBAAEBV?$allocator@U?$_Tree_node@U?$pair@$$CBHH@std@@PEAX@std@@@2@XZ 00000001800c8cf0 f i c1_ex_DLModel_28.obj
 0001:000c7d00       ?_Get_scary@?$_Tree@V?$_Tmap_traits@HHU?$less@H@std@@V?$allocator@U?$pair@$$CBHH@std@@@2@$0A@@std@@@std@@IEAAPEAV?$_Tree_val@U?$_Tree_simple_types@U?$pair@$$CBHH@std@@@std@@@2@XZ 00000001800c8d00 f i c1_ex_DLModel_28.obj
 0001:000c7d20       ?_Get_scary@?$_Tree@V?$_Tmap_traits@HHU?$less@H@std@@V?$allocator@U?$pair@$$CBHH@std@@@2@$0A@@std@@@std@@IEBAPEBV?$_Tree_val@U?$_Tree_simple_types@U?$pair@$$CBHH@std@@@std@@@2@XZ 00000001800c8d20 f i c1_ex_DLModel_28.obj
 0001:000c7d40       ?_Get_scary@?$_Tree@V?$_Tmap_traits@HPEAVMWTensorBase@@U?$less@H@std@@V?$allocator@U?$pair@$$CBHPEAVMWTensorBase@@@std@@@3@$0A@@std@@@std@@IEBAPEBV?$_Tree_val@U?$_Tree_simple_types@U?$pair@$$CBHPEAVMWTensorBase@@@std@@@std@@@2@XZ 00000001800c8d40 f i c1_ex_DLModel_28.obj
 0001:000c7d60       ?_Getal@?$_Tree@V?$_Tmap_traits@HHU?$less@H@std@@V?$allocator@U?$pair@$$CBHH@std@@@2@$0A@@std@@@std@@IEAAAEAV?$allocator@U?$_Tree_node@U?$pair@$$CBHH@std@@PEAX@std@@@2@XZ 00000001800c8d60 f i c1_ex_DLModel_28.obj
 0001:000c7d80       ?_Getal@?$_Tree@V?$_Tmap_traits@HHU?$less@H@std@@V?$allocator@U?$pair@$$CBHH@std@@@2@$0A@@std@@@std@@IEBAAEBV?$allocator@U?$_Tree_node@U?$pair@$$CBHH@std@@PEAX@std@@@2@XZ 00000001800c8d80 f i c1_ex_DLModel_28.obj
 0001:000c7da0       ?_Getal@?$basic_string@DU?$char_traits@D@std@@V?$allocator@D@2@@std@@AEAAAEAV?$allocator@D@2@XZ 00000001800c8da0 f i c1_ex_DLModel_28.obj
 0001:000c7dc0       ?_Getal@?$basic_string@DU?$char_traits@D@std@@V?$allocator@D@2@@std@@AEBAAEBV?$allocator@D@2@XZ 00000001800c8dc0 f i c1_ex_DLModel_28.obj
 0001:000c7de0       ?_Getcomp@?$_Tree@V?$_Tmap_traits@HHU?$less@H@std@@V?$allocator@U?$pair@$$CBHH@std@@@2@$0A@@std@@@std@@IEBAAEBU?$less@H@2@XZ 00000001800c8de0 f i c1_ex_DLModel_28.obj
 0001:000c7e00       ?_Insert_node@?$_Tree_val@U?$_Tree_simple_types@U?$pair@$$CBHH@std@@@std@@@std@@QEAAPEAU?$_Tree_node@U?$pair@$$CBHH@std@@PEAX@2@U?$_Tree_id@PEAU?$_Tree_node@U?$pair@$$CBHH@std@@PEAX@std@@@2@QEAU32@@Z 00000001800c8e00 f i c1_ex_DLModel_28.obj
 0001:000c80f0       ?_Large_string_engaged@?$_String_val@U?$_Simple_types@D@std@@@std@@QEBA_NXZ 00000001800c90f0 f i c1_ex_DLModel_28.obj
 0001:000c8120       ?_Load_barrier@std@@YAXW4memory_order@1@@Z 00000001800c9120 f i c1_ex_DLModel_28.obj
 0001:000c8170       ?_Lrotate@?$_Tree_val@U?$_Tree_simple_types@U?$pair@$$CBHH@std@@@std@@@std@@QEAAXPEAU?$_Tree_node@U?$pair@$$CBHH@std@@PEAX@2@@Z 00000001800c9170 f i c1_ex_DLModel_28.obj
 0001:000c8250       ?_Memcpy_val_from@?$basic_string@DU?$char_traits@D@std@@V?$allocator@D@2@@std@@AEAAXAEBV12@@Z 00000001800c9250 f i c1_ex_DLModel_28.obj
 0001:000c82a0       ?_Myptr@?$_String_val@U?$_Simple_types@D@std@@@std@@QEAAPEADXZ 00000001800c92a0 f i c1_ex_DLModel_28.obj
 0001:000c82e0       ?_Myptr@?$_String_val@U?$_Simple_types@D@std@@@std@@QEBAPEBDXZ 00000001800c92e0 f i c1_ex_DLModel_28.obj
 0001:000c8320       ?_Orphan_all@_Container_base0@std@@QEAAXXZ 00000001800c9320 f i c1_ex_DLModel_28.obj
 0001:000c8330       ?_Release@?$_Alloc_construct_ptr@V?$allocator@U?$_Tree_node@U?$pair@$$CBHH@std@@PEAX@std@@@std@@@std@@QEAAPEAU?$_Tree_node@U?$pair@$$CBHH@std@@PEAX@2@XZ 00000001800c9330 f i c1_ex_DLModel_28.obj
 0001:000c8360       ?_Release@_Fake_proxy_ptr_impl@std@@QEAAXXZ 00000001800c9360 f i c1_ex_DLModel_28.obj
 0001:000c8370       ?_Rrotate@?$_Tree_val@U?$_Tree_simple_types@U?$pair@$$CBHH@std@@@std@@@std@@QEAAXPEAU?$_Tree_node@U?$pair@$$CBHH@std@@PEAX@2@@Z 00000001800c9370 f i c1_ex_DLModel_28.obj
 0001:000c8450       ?_Swap_proxy_and_iterators@?$basic_string@DU?$char_traits@D@std@@V?$allocator@D@2@@std@@AEAAXAEAV12@@Z 00000001800c9450 f i c1_ex_DLModel_28.obj
 0001:000c8480       ?_Swap_proxy_and_iterators@_Container_base0@std@@QEAAXAEAU12@@Z 00000001800c9480 f i c1_ex_DLModel_28.obj
 0001:000c8490       ?_Take_contents@?$basic_string@DU?$char_traits@D@std@@V?$allocator@D@2@@std@@AEAAXAEAV12@@Z 00000001800c9490 f i c1_ex_DLModel_28.obj
 0001:000c8580       ?_Throw_bad_array_new_length@std@@YAXXZ 00000001800c9580 f i c1_ex_DLModel_28.obj
 0001:000c85b0       ?_Throw_tree_length_error@std@@YAXXZ 00000001800c95b0 f i c1_ex_DLModel_28.obj
 0001:000c85d0       ?_Tidy_deallocate@?$basic_string@DU?$char_traits@D@std@@V?$allocator@D@2@@std@@AEAAXXZ 00000001800c95d0 f i c1_ex_DLModel_28.obj
 0001:000c8690       ?_Tidy_init@?$basic_string@DU?$char_traits@D@std@@V?$allocator@D@2@@std@@AEAAXXZ 00000001800c9690 f i c1_ex_DLModel_28.obj
 0001:000c86f0       ?_Xlen_string@std@@YAXXZ   00000001800c96f0 f i c1_ex_DLModel_28.obj
 0001:000c8710       ?allocate@?$allocator@D@std@@QEAAPEAD_K@Z 00000001800c9710 f i c1_ex_DLModel_28.obj
 0001:000c8740       ?allocate@?$allocator@U?$_Tree_node@U?$pair@$$CBHH@std@@PEAX@std@@@std@@QEAAPEAU?$_Tree_node@U?$pair@$$CBHH@std@@PEAX@2@_K@Z 00000001800c9740 f i c1_ex_DLModel_28.obj
 0001:000c8770       ?append@?$basic_string@DU?$char_traits@D@std@@V?$allocator@D@2@@std@@QEAAAEAV12@AEBV12@@Z 00000001800c9770 f i c1_ex_DLModel_28.obj
 0001:000c87b0       ?append@?$basic_string@DU?$char_traits@D@std@@V?$allocator@D@2@@std@@QEAAAEAV12@QEBD@Z 00000001800c97b0 f i c1_ex_DLModel_28.obj
 0001:000c87f0       ?append@?$basic_string@DU?$char_traits@D@std@@V?$allocator@D@2@@std@@QEAAAEAV12@QEBD_K@Z 00000001800c97f0 f i c1_ex_DLModel_28.obj
 0001:000c88f0       ?assign@?$_Narrow_char_traits@DH@std@@SAXAEADAEBD@Z 00000001800c98f0 f i c1_ex_DLModel_28.obj
 0001:000c8910       ?assign@?$basic_string@DU?$char_traits@D@std@@V?$allocator@D@2@@std@@QEAAAEAV12@QEBD@Z 00000001800c9910 f i c1_ex_DLModel_28.obj
 0001:000c8950       ?assign@?$basic_string@DU?$char_traits@D@std@@V?$allocator@D@2@@std@@QEAAAEAV12@QEBD_K@Z 00000001800c9950 f i c1_ex_DLModel_28.obj
 0001:000c8a10       ?c_str@?$basic_string@DU?$char_traits@D@std@@V?$allocator@D@2@@std@@QEBAPEBDXZ 00000001800c9a10 f i c1_ex_DLModel_28.obj
 0001:000c8a30       ?category@error_code@system@thrust@@QEBAAEBVerror_category@23@XZ 00000001800c9a30 f i c1_ex_DLModel_28.obj
 0001:000c8a40       ?category@error_condition@system@thrust@@QEBAAEBVerror_category@23@XZ 00000001800c9a40 f i c1_ex_DLModel_28.obj
 0001:000c8a50       ?compare_exchange_strong@?$_Atomic_storage@W4DeviceEntryStatus@PerDeviceAttributeCache@CUB_200200_890_NS@cub@@$03@std@@QEAA_NAEAW4DeviceEntryStatus@PerDeviceAttributeCache@CUB_200200_890_NS@cub@@W43456@W4memory_order@2@@Z 00000001800c9a50 f i c1_ex_DLModel_28.obj
 0001:000c8af0       ?compare_exchange_strong@?$atomic@W4DeviceEntryStatus@PerDeviceAttributeCache@CUB_200200_890_NS@cub@@@std@@QEAA_NAEAW4DeviceEntryStatus@PerDeviceAttributeCache@CUB_200200_890_NS@cub@@W43456@W4memory_order@2@2@Z 00000001800c9af0 f i c1_ex_DLModel_28.obj
 0001:000c8b40       ?copy@?$_Char_traits@DH@std@@SAPEADQEADQEBD_K@Z 00000001800c9b40 f i c1_ex_DLModel_28.obj
 0001:000c8b80       ?cuda_category@system@thrust@@YAAEBVerror_category@12@XZ 00000001800c9b80 f i c1_ex_DLModel_28.obj
 0001:000c8bf0       ?deallocate@?$allocator@D@std@@QEAAXQEAD_K@Z 00000001800c9bf0 f i c1_ex_DLModel_28.obj
 0001:000c8c20       ?deallocate@?$allocator@U?$_Tree_node@U?$pair@$$CBHH@std@@PEAX@std@@@std@@QEAAXQEAU?$_Tree_node@U?$pair@$$CBHH@std@@PEAX@2@_K@Z 00000001800c9c20 f i c1_ex_DLModel_28.obj
 0001:000c8c50       ?default_error_condition@cuda_error_category@detail@cuda_cub@system@thrust@@UEBA?AVerror_condition@45@H@Z 00000001800c9c50 f i c1_ex_DLModel_28.obj
 0001:000c8cb0       ?default_error_condition@error_category@system@thrust@@UEBA?AVerror_condition@23@H@Z 00000001800c9cb0 f i c1_ex_DLModel_28.obj
 0001:000c8ce0       ?default_error_condition@system_error_category@detail@system@thrust@@UEBA?AVerror_condition@34@H@Z 00000001800c9ce0 f i c1_ex_DLModel_28.obj
 0001:000c9620       ?default_stream@cuda_cub@thrust@@YAPEAUCUstream_st@@XZ 00000001800ca620 f i c1_ex_DLModel_28.obj
 0001:000c9630       ?empty@?$basic_string@DU?$char_traits@D@std@@V?$allocator@D@2@@std@@QEBA_NXZ 00000001800ca630 f i c1_ex_DLModel_28.obj
 0001:000c9670       ?end@?$_Tree@V?$_Tmap_traits@HHU?$less@H@std@@V?$allocator@U?$pair@$$CBHH@std@@@2@$0A@@std@@@std@@QEAA?AV?$_Tree_iterator@V?$_Tree_val@U?$_Tree_simple_types@U?$pair@$$CBHH@std@@@std@@@std@@@2@XZ 00000001800ca670 f i c1_ex_DLModel_28.obj
 0001:000c96b0       ?equivalent@error_category@system@thrust@@UEBA_NAEBVerror_code@23@H@Z 00000001800ca6b0 f i c1_ex_DLModel_28.obj
 0001:000c9720       ?equivalent@error_category@system@thrust@@UEBA_NHAEBVerror_condition@23@@Z 00000001800ca720 f i c1_ex_DLModel_28.obj
 0001:000c9760       ?find@?$_Tree@V?$_Tmap_traits@HHU?$less@H@std@@V?$allocator@U?$pair@$$CBHH@std@@@2@$0A@@std@@@std@@QEAA?AV?$_Tree_iterator@V?$_Tree_val@U?$_Tree_simple_types@U?$pair@$$CBHH@std@@@std@@@std@@@2@AEBH@Z 00000001800ca760 f i c1_ex_DLModel_28.obj
 0001:000c97b0       ?generic_category@system@thrust@@YAAEBVerror_category@12@XZ 00000001800ca7b0 f i c1_ex_DLModel_28.obj
 0001:000c9820       ?get@?$get_agent_plan_impl@U?$ParallelForAgent@U?$functor@PEANH@__fill@cuda_cub@thrust@@_J@__parallel_for@cuda_cub@thrust@@U?$typelist@Usm30@core@cuda_cub@thrust@@V_@234@V5234@V5234@V5234@V5234@V5234@V5234@V5234@V5234@@core@34@@core@cuda_cub@thrust@@SA?AUAgentPlan@234@H@Z 00000001800ca820 f i c1_ex_DLModel_28.obj
 0001:000c9850       ?get@?$get_agent_plan_impl@U?$ParallelForAgent@U?$functor@PEANH@__fill@cuda_cub@thrust@@_J@__parallel_for@cuda_cub@thrust@@U?$typelist@Usm35@core@cuda_cub@thrust@@Usm30@234@V_@234@V6234@V6234@V6234@V6234@V6234@V6234@V6234@@core@34@@core@cuda_cub@thrust@@SA?AUAgentPlan@234@H@Z 00000001800ca850 f i c1_ex_DLModel_28.obj
 0001:000c98a0       ?get@?$get_agent_plan_impl@U?$ParallelForAgent@U?$functor@PEANH@__fill@cuda_cub@thrust@@_J@__parallel_for@cuda_cub@thrust@@U?$typelist@Usm52@core@cuda_cub@thrust@@Usm35@234@Usm30@234@V_@234@V7234@V7234@V7234@V7234@V7234@V7234@@core@34@@core@cuda_cub@thrust@@SA?AUAgentPlan@234@H@Z 00000001800ca8a0 f i c1_ex_DLModel_28.obj
 0001:000c98f0       ?get@?$get_agent_plan_impl@U?$ParallelForAgent@U?$functor@PEANH@__fill@cuda_cub@thrust@@_J@__parallel_for@cuda_cub@thrust@@U?$typelist@Usm60@core@cuda_cub@thrust@@Usm52@234@Usm35@234@Usm30@234@V_@234@V8234@V8234@V8234@V8234@V8234@@core@34@@core@cuda_cub@thrust@@SA?AUAgentPlan@234@H@Z 00000001800ca8f0 f i c1_ex_DLModel_28.obj
 0001:000c9940       ?get@?$get_agent_plan_impl@U?$ParallelForAgent@U?$functor@PEANU?$compute_sequence_value@HX@detail@generic@2system@thrust@@_J@__tabulate@cuda_cub@thrust@@_J@__parallel_for@cuda_cub@thrust@@U?$typelist@Usm30@core@cuda_cub@thrust@@V_@234@V5234@V5234@V5234@V5234@V5234@V5234@V5234@V5234@@core@34@@core@cuda_cub@thrust@@SA?AUAgentPlan@234@H@Z 00000001800ca940 f i c1_ex_DLModel_28.obj
 0001:000c9970       ?get@?$get_agent_plan_impl@U?$ParallelForAgent@U?$functor@PEANU?$compute_sequence_value@HX@detail@generic@2system@thrust@@_J@__tabulate@cuda_cub@thrust@@_J@__parallel_for@cuda_cub@thrust@@U?$typelist@Usm35@core@cuda_cub@thrust@@Usm30@234@V_@234@V6234@V6234@V6234@V6234@V6234@V6234@V6234@@core@34@@core@cuda_cub@thrust@@SA?AUAgentPlan@234@H@Z 00000001800ca970 f i c1_ex_DLModel_28.obj
 0001:000c99c0       ?get@?$get_agent_plan_impl@U?$ParallelForAgent@U?$functor@PEANU?$compute_sequence_value@HX@detail@generic@2system@thrust@@_J@__tabulate@cuda_cub@thrust@@_J@__parallel_for@cuda_cub@thrust@@U?$typelist@Usm52@core@cuda_cub@thrust@@Usm35@234@Usm30@234@V_@234@V7234@V7234@V7234@V7234@V7234@V7234@@core@34@@core@cuda_cub@thrust@@SA?AUAgentPlan@234@H@Z 00000001800ca9c0 f i c1_ex_DLModel_28.obj
 0001:000c9a10       ?get@?$get_agent_plan_impl@U?$ParallelForAgent@U?$functor@PEANU?$compute_sequence_value@HX@detail@generic@2system@thrust@@_J@__tabulate@cuda_cub@thrust@@_J@__parallel_for@cuda_cub@thrust@@U?$typelist@Usm60@core@cuda_cub@thrust@@Usm52@234@Usm35@234@Usm30@234@V_@234@V8234@V8234@V8234@V8234@V8234@@core@34@@core@cuda_cub@thrust@@SA?AUAgentPlan@234@H@Z 00000001800caa10 f i c1_ex_DLModel_28.obj
 0001:000c9a60       ?getBatchSize@MWTensorBase@@QEBAHXZ 00000001800caa60 f i c1_ex_DLModel_28.obj
 0001:000c9a80       ?getChannels@MWTensorBase@@QEBAHXZ 00000001800caa80 f i c1_ex_DLModel_28.obj
 0001:000c9aa0       ?getData@?$MWTensor@M@@QEBAPEAMXZ 00000001800caaa0 f i c1_ex_DLModel_28.obj
 0001:000c9ab0       ?getHeight@MWTensorBase@@QEBAHXZ 00000001800caab0 f i c1_ex_DLModel_28.obj
 0001:000c9ad0       ?getNumElements@MWTensorBase@@QEBAHXZ 00000001800caad0 f i c1_ex_DLModel_28.obj
 0001:000c9b50       ?getNumInstrumentedOutputs@MWCNNLayer@@UEAAHXZ 00000001800cab50 f i c1_ex_DLModel_28.obj
 0001:000c9b70       ?getNumInstrumentedOutputs@MWMaxPoolingLayer@@UEAAHXZ 00000001800cab70 f i c1_ex_DLModel_28.obj
 0001:000c9b80       ?getNumOutputs@MWCNNLayer@@QEAA_KXZ 00000001800cab80 f i c1_ex_DLModel_28.obj
 0001:000c9ba0       ?getSequenceLength@MWTensorBase@@QEBAHXZ 00000001800caba0 f i c1_ex_DLModel_28.obj
 0001:000c9bc0       ?getWidth@MWTensorBase@@QEBAHXZ 00000001800cabc0 f i c1_ex_DLModel_28.obj
 0001:000c9be0       ?get_max_shared_memory_per_block@core@cuda_cub@thrust@@YA_KXZ 00000001800cabe0 f i c1_ex_DLModel_28.obj
 0001:000c9c30       ?get_plan@?$AgentLauncher@U?$ParallelForAgent@U?$functor@PEANH@__fill@cuda_cub@thrust@@_J@__parallel_for@cuda_cub@thrust@@@core@cuda_cub@thrust@@SA?AUAgentPlan@234@PEAUCUstream_st@@PEAX@Z 00000001800cac30 f i c1_ex_DLModel_28.obj
 0001:000c9c70       ?get_plan@?$AgentLauncher@U?$ParallelForAgent@U?$functor@PEANU?$compute_sequence_value@HX@detail@generic@2system@thrust@@_J@__tabulate@cuda_cub@thrust@@_J@__parallel_for@cuda_cub@thrust@@@core@cuda_cub@thrust@@SA?AUAgentPlan@234@PEAUCUstream_st@@PEAX@Z 00000001800cac70 f i c1_ex_DLModel_28.obj
 0001:000c9cb0       ?get_ptx_version@core@cuda_cub@thrust@@YAHXZ 00000001800cacb0 f i c1_ex_DLModel_28.obj
 0001:000c9e00       ?isFloat@?$MWTensor@M@@UEBA_NXZ 00000001800cae00 f i c1_ex_DLModel_28.obj
 0001:000c9e20       ?isInt8@?$MWTensor@M@@UEBA_NXZ 00000001800cae20 f i c1_ex_DLModel_28.obj
 0001:000c9e40       ?launch@?$BlockSortLauncher@PEANPEANPEANPEANHUPolicy600@?$DeviceMergeSortPolicy@PEAN@CUB_200200_890_NS@cub@@U1234@U?$customGreater@N@@NN$00@CUB_200200_890_NS@cub@@QEBAXXZ 00000001800cae40 f i c1_ex_DLModel_28.obj
 0001:000c9e70       ?launch@?$BlockSortLauncher@PEANPEANPEANPEANHUPolicy600@?$DeviceMergeSortPolicy@PEAN@CUB_200200_890_NS@cub@@U1234@U?$customLesser@N@@NN$00@CUB_200200_890_NS@cub@@QEBAXXZ 00000001800cae70 f i c1_ex_DLModel_28.obj
 0001:000c9ea0       ?launch@?$BlockSortLauncher@PEANPEANPEANPEANHUPolicy600@?$DeviceMergeSortPolicy@PEAN@CUB_200200_890_NS@cub@@UPolicy350@234@U?$customGreater@N@@NN$00@CUB_200200_890_NS@cub@@QEBAXXZ 00000001800caea0 f i c1_ex_DLModel_28.obj
 0001:000c9ed0       ?launch@?$BlockSortLauncher@PEANPEANPEANPEANHUPolicy600@?$DeviceMergeSortPolicy@PEAN@CUB_200200_890_NS@cub@@UPolicy350@234@U?$customLesser@N@@NN$00@CUB_200200_890_NS@cub@@QEBAXXZ 00000001800caed0 f i c1_ex_DLModel_28.obj
 0001:000c9f00       ?launch@?$BlockSortLauncher@PEANPEANPEANPEANHUPolicy600@?$DeviceMergeSortPolicy@PEAN@CUB_200200_890_NS@cub@@UPolicy520@234@U?$customGreater@N@@NN$00@CUB_200200_890_NS@cub@@QEBAXXZ 00000001800caf00 f i c1_ex_DLModel_28.obj
 0001:000c9f30       ?launch@?$BlockSortLauncher@PEANPEANPEANPEANHUPolicy600@?$DeviceMergeSortPolicy@PEAN@CUB_200200_890_NS@cub@@UPolicy520@234@U?$customLesser@N@@NN$00@CUB_200200_890_NS@cub@@QEBAXXZ 00000001800caf30 f i c1_ex_DLModel_28.obj
 0001:000c9f60       ?launch@?$BlockSortLauncher@PEANV?$zip_iterator@V?$tuple@PEAHPEANUnull_type@thrust@@U12@U12@U12@U12@U12@U12@U12@@thrust@@@thrust@@PEANV12@HUPolicy600@?$DeviceMergeSortPolicy@PEAN@CUB_200200_890_NS@cub@@U3456@U?$customGreater@N@@NV?$tuple@HNUnull_type@thrust@@U12@U12@U12@U12@U12@U12@U12@@2@$00@CUB_200200_890_NS@cub@@QEBAXXZ 00000001800caf60 f i c1_ex_DLModel_28.obj
 0001:000c9f90       ?launch@?$BlockSortLauncher@PEANV?$zip_iterator@V?$tuple@PEAHPEANUnull_type@thrust@@U12@U12@U12@U12@U12@U12@U12@@thrust@@@thrust@@PEANV12@HUPolicy600@?$DeviceMergeSortPolicy@PEAN@CUB_200200_890_NS@cub@@U3456@U?$customLesser@N@@NV?$tuple@HNUnull_type@thrust@@U12@U12@U12@U12@U12@U12@U12@@2@$00@CUB_200200_890_NS@cub@@QEBAXXZ 00000001800caf90 f i c1_ex_DLModel_28.obj
 0001:000c9fc0       ?launch@?$BlockSortLauncher@PEANV?$zip_iterator@V?$tuple@PEAHPEANUnull_type@thrust@@U12@U12@U12@U12@U12@U12@U12@@thrust@@@thrust@@PEANV12@HUPolicy600@?$DeviceMergeSortPolicy@PEAN@CUB_200200_890_NS@cub@@UPolicy350@456@U?$customGreater@N@@NV?$tuple@HNUnull_type@thrust@@U12@U12@U12@U12@U12@U12@U12@@2@$00@CUB_200200_890_NS@cub@@QEBAXXZ 00000001800cafc0 f i c1_ex_DLModel_28.obj
 0001:000c9ff0       ?launch@?$BlockSortLauncher@PEANV?$zip_iterator@V?$tuple@PEAHPEANUnull_type@thrust@@U12@U12@U12@U12@U12@U12@U12@@thrust@@@thrust@@PEANV12@HUPolicy600@?$DeviceMergeSortPolicy@PEAN@CUB_200200_890_NS@cub@@UPolicy350@456@U?$customLesser@N@@NV?$tuple@HNUnull_type@thrust@@U12@U12@U12@U12@U12@U12@U12@@2@$00@CUB_200200_890_NS@cub@@QEBAXXZ 00000001800caff0 f i c1_ex_DLModel_28.obj
 0001:000ca020       ?launch@?$BlockSortLauncher@PEANV?$zip_iterator@V?$tuple@PEAHPEANUnull_type@thrust@@U12@U12@U12@U12@U12@U12@U12@@thrust@@@thrust@@PEANV12@HUPolicy600@?$DeviceMergeSortPolicy@PEAN@CUB_200200_890_NS@cub@@UPolicy520@456@U?$customGreater@N@@NV?$tuple@HNUnull_type@thrust@@U12@U12@U12@U12@U12@U12@U12@@2@$0A@@CUB_200200_890_NS@cub@@QEBAXXZ 00000001800cb020 f i c1_ex_DLModel_28.obj
 0001:000ca050       ?launch@?$BlockSortLauncher@PEANV?$zip_iterator@V?$tuple@PEAHPEANUnull_type@thrust@@U12@U12@U12@U12@U12@U12@U12@@thrust@@@thrust@@PEANV12@HUPolicy600@?$DeviceMergeSortPolicy@PEAN@CUB_200200_890_NS@cub@@UPolicy520@456@U?$customLesser@N@@NV?$tuple@HNUnull_type@thrust@@U12@U12@U12@U12@U12@U12@U12@@2@$0A@@CUB_200200_890_NS@cub@@QEBAXXZ 00000001800cb050 f i c1_ex_DLModel_28.obj
 0001:000ca080       ?launch@?$MergeLauncher@PEANPEANHUPolicy600@?$DeviceMergeSortPolicy@PEAN@CUB_200200_890_NS@cub@@U1234@U?$customGreater@N@@NN$00@CUB_200200_890_NS@cub@@QEBAX_NH@Z 00000001800cb080 f i c1_ex_DLModel_28.obj
 0001:000ca0d0       ?launch@?$MergeLauncher@PEANPEANHUPolicy600@?$DeviceMergeSortPolicy@PEAN@CUB_200200_890_NS@cub@@U1234@U?$customLesser@N@@NN$00@CUB_200200_890_NS@cub@@QEBAX_NH@Z 00000001800cb0d0 f i c1_ex_DLModel_28.obj
 0001:000ca120       ?launch@?$MergeLauncher@PEANPEANHUPolicy600@?$DeviceMergeSortPolicy@PEAN@CUB_200200_890_NS@cub@@UPolicy350@234@U?$customGreater@N@@NN$00@CUB_200200_890_NS@cub@@QEBAX_NH@Z 00000001800cb120 f i c1_ex_DLModel_28.obj
 0001:000ca170       ?launch@?$MergeLauncher@PEANPEANHUPolicy600@?$DeviceMergeSortPolicy@PEAN@CUB_200200_890_NS@cub@@UPolicy350@234@U?$customLesser@N@@NN$00@CUB_200200_890_NS@cub@@QEBAX_NH@Z 00000001800cb170 f i c1_ex_DLModel_28.obj
 0001:000ca1c0       ?launch@?$MergeLauncher@PEANPEANHUPolicy600@?$DeviceMergeSortPolicy@PEAN@CUB_200200_890_NS@cub@@UPolicy520@234@U?$customGreater@N@@NN$00@CUB_200200_890_NS@cub@@QEBAX_NH@Z 00000001800cb1c0 f i c1_ex_DLModel_28.obj
 0001:000ca210       ?launch@?$MergeLauncher@PEANPEANHUPolicy600@?$DeviceMergeSortPolicy@PEAN@CUB_200200_890_NS@cub@@UPolicy520@234@U?$customLesser@N@@NN$00@CUB_200200_890_NS@cub@@QEBAX_NH@Z 00000001800cb210 f i c1_ex_DLModel_28.obj
 0001:000ca260       ?launch@?$MergeLauncher@PEANV?$zip_iterator@V?$tuple@PEAHPEANUnull_type@thrust@@U12@U12@U12@U12@U12@U12@U12@@thrust@@@thrust@@HUPolicy600@?$DeviceMergeSortPolicy@PEAN@CUB_200200_890_NS@cub@@U3456@U?$customGreater@N@@NV?$tuple@HNUnull_type@thrust@@U12@U12@U12@U12@U12@U12@U12@@2@$00@CUB_200200_890_NS@cub@@QEBAX_NH@Z 00000001800cb260 f i c1_ex_DLModel_28.obj
 0001:000ca2b0       ?launch@?$MergeLauncher@PEANV?$zip_iterator@V?$tuple@PEAHPEANUnull_type@thrust@@U12@U12@U12@U12@U12@U12@U12@@thrust@@@thrust@@HUPolicy600@?$DeviceMergeSortPolicy@PEAN@CUB_200200_890_NS@cub@@U3456@U?$customLesser@N@@NV?$tuple@HNUnull_type@thrust@@U12@U12@U12@U12@U12@U12@U12@@2@$00@CUB_200200_890_NS@cub@@QEBAX_NH@Z 00000001800cb2b0 f i c1_ex_DLModel_28.obj
 0001:000ca300       ?launch@?$MergeLauncher@PEANV?$zip_iterator@V?$tuple@PEAHPEANUnull_type@thrust@@U12@U12@U12@U12@U12@U12@U12@@thrust@@@thrust@@HUPolicy600@?$DeviceMergeSortPolicy@PEAN@CUB_200200_890_NS@cub@@UPolicy350@456@U?$customGreater@N@@NV?$tuple@HNUnull_type@thrust@@U12@U12@U12@U12@U12@U12@U12@@2@$00@CUB_200200_890_NS@cub@@QEBAX_NH@Z 00000001800cb300 f i c1_ex_DLModel_28.obj
 0001:000ca350       ?launch@?$MergeLauncher@PEANV?$zip_iterator@V?$tuple@PEAHPEANUnull_type@thrust@@U12@U12@U12@U12@U12@U12@U12@@thrust@@@thrust@@HUPolicy600@?$DeviceMergeSortPolicy@PEAN@CUB_200200_890_NS@cub@@UPolicy350@456@U?$customLesser@N@@NV?$tuple@HNUnull_type@thrust@@U12@U12@U12@U12@U12@U12@U12@@2@$00@CUB_200200_890_NS@cub@@QEBAX_NH@Z 00000001800cb350 f i c1_ex_DLModel_28.obj
 0001:000ca3a0       ?launch@?$MergeLauncher@PEANV?$zip_iterator@V?$tuple@PEAHPEANUnull_type@thrust@@U12@U12@U12@U12@U12@U12@U12@@thrust@@@thrust@@HUPolicy600@?$DeviceMergeSortPolicy@PEAN@CUB_200200_890_NS@cub@@UPolicy520@456@U?$customGreater@N@@NV?$tuple@HNUnull_type@thrust@@U12@U12@U12@U12@U12@U12@U12@@2@$0A@@CUB_200200_890_NS@cub@@QEBAX_NH@Z 00000001800cb3a0 f i c1_ex_DLModel_28.obj
 0001:000ca3f0       ?launch@?$MergeLauncher@PEANV?$zip_iterator@V?$tuple@PEAHPEANUnull_type@thrust@@U12@U12@U12@U12@U12@U12@U12@@thrust@@@thrust@@HUPolicy600@?$DeviceMergeSortPolicy@PEAN@CUB_200200_890_NS@cub@@UPolicy520@456@U?$customLesser@N@@NV?$tuple@HNUnull_type@thrust@@U12@U12@U12@U12@U12@U12@U12@@2@$0A@@CUB_200200_890_NS@cub@@QEBAX_NH@Z 00000001800cb3f0 f i c1_ex_DLModel_28.obj
 0001:000ca440       ?length@?$_Narrow_char_traits@DH@std@@SA_KQEBD@Z 00000001800cb440 f i c1_ex_DLModel_28.obj
 0001:000ca460       ?load@?$_Atomic_storage@W4DeviceEntryStatus@PerDeviceAttributeCache@CUB_200200_890_NS@cub@@$03@std@@QEBA?AW4DeviceEntryStatus@PerDeviceAttributeCache@CUB_200200_890_NS@cub@@W4memory_order@2@@Z 00000001800cb460 f i c1_ex_DLModel_28.obj
 0001:000ca4a0       ?make_error_condition@system@thrust@@YA?AVerror_condition@12@W4errc_t@errc@12@@Z 00000001800cb4a0 f i c1_ex_DLModel_28.obj
 0001:000ca4d0       ?make_error_condition@system@thrust@@YA?AVerror_condition@12@W4errc_t@errc@cuda@12@@Z 00000001800cb4d0 f i c1_ex_DLModel_28.obj
 0001:000ca500       ?max@?$numeric_limits@_J@std@@SA_JXZ 00000001800cb500 f i c1_ex_DLModel_28.obj
 0001:000ca510       ?max_size@?$_Default_allocator_traits@V?$allocator@D@std@@@std@@SA_KAEBV?$allocator@D@2@@Z 00000001800cb510 f i c1_ex_DLModel_28.obj
 0001:000ca520       ?max_size@?$_Default_allocator_traits@V?$allocator@U?$_Tree_node@U?$pair@$$CBHH@std@@PEAX@std@@@std@@@std@@SA_KAEBV?$allocator@U?$_Tree_node@U?$pair@$$CBHH@std@@PEAX@std@@@2@@Z 00000001800cb520 f i c1_ex_DLModel_28.obj
 0001:000ca530       ?max_size@?$_Tree@V?$_Tmap_traits@HHU?$less@H@std@@V?$allocator@U?$pair@$$CBHH@std@@@2@$0A@@std@@@std@@QEBA_KXZ 00000001800cb530 f i c1_ex_DLModel_28.obj
 0001:000ca580       ?max_size@?$basic_string@DU?$char_traits@D@std@@V?$allocator@D@2@@std@@QEBA_KXZ 00000001800cb580 f i c1_ex_DLModel_28.obj
 0001:000ca5f0       ?message@cuda_error_category@detail@cuda_cub@system@thrust@@UEBA?AV?$basic_string@DU?$char_traits@D@std@@V?$allocator@D@2@@std@@H@Z 00000001800cb5f0 f i c1_ex_DLModel_28.obj
 0001:000ca740       ?message@error_code@system@thrust@@QEBA?AV?$basic_string@DU?$char_traits@D@std@@V?$allocator@D@2@@std@@XZ 00000001800cb740 f i c1_ex_DLModel_28.obj
 0001:000ca7b0       ?message@generic_error_category@detail@system@thrust@@UEBA?AV?$basic_string@DU?$char_traits@D@std@@V?$allocator@D@2@@std@@H@Z 00000001800cb7b0 f i c1_ex_DLModel_28.obj
 0001:000ca940       ?message@system_error_category@detail@system@thrust@@UEBA?AV?$basic_string@DU?$char_traits@D@std@@V?$allocator@D@2@@std@@H@Z 00000001800cb940 f i c1_ex_DLModel_28.obj
 0001:000ca9a0       ?move@?$_Char_traits@DH@std@@SAPEADQEADQEBD_K@Z 00000001800cb9a0 f i c1_ex_DLModel_28.obj
 0001:000ca9e0       ?name@cuda_error_category@detail@cuda_cub@system@thrust@@UEBAPEBDXZ 00000001800cb9e0 f i c1_ex_DLModel_28.obj
 0001:000ca9f0       ?name@generic_error_category@detail@system@thrust@@UEBAPEBDXZ 00000001800cb9f0 f i c1_ex_DLModel_28.obj
 0001:000caa00       ?name@system_error_category@detail@system@thrust@@UEBAPEBDXZ 00000001800cba00 f i c1_ex_DLModel_28.obj
 0001:000caa10       ?select_on_container_copy_construction@?$_Default_allocator_traits@V?$allocator@D@std@@@std@@SA?AV?$allocator@D@2@AEBV32@@Z 00000001800cba10 f i c1_ex_DLModel_28.obj
 0001:000caa20       ?setBatchSize@MWTensorBase@@QEAAXH@Z 00000001800cba20 f i c1_ex_DLModel_28.obj
 0001:000caa40       ?setChannels@MWTensorBase@@QEAAXH@Z 00000001800cba40 f i c1_ex_DLModel_28.obj
 0001:000caa60       ?setData@?$MWTensor@M@@QEAAXPEAM@Z 00000001800cba60 f i c1_ex_DLModel_28.obj
 0001:000caa80       ?setHeight@MWTensorBase@@QEAAXH@Z 00000001800cba80 f i c1_ex_DLModel_28.obj
 0001:000caaa0       ?setInPlaceIndex@MWCNNLayer@@QEAAXHH@Z 00000001800cbaa0 f i c1_ex_DLModel_28.obj
 0001:000cab40       ?setSequenceLength@MWTensorBase@@QEAAXH@Z 00000001800cbb40 f i c1_ex_DLModel_28.obj
 0001:000cab60       ?setWidth@MWTensorBase@@QEAAXH@Z 00000001800cbb60 f i c1_ex_DLModel_28.obj
 0001:000cab80       ?size@?$_Tree@V?$_Tmap_traits@HPEAVMWTensorBase@@U?$less@H@std@@V?$allocator@U?$pair@$$CBHPEAVMWTensorBase@@@std@@@3@$0A@@std@@@std@@QEBA_KXZ 00000001800cbb80 f i c1_ex_DLModel_28.obj
 0001:000caba0       ?size@?$basic_string@DU?$char_traits@D@std@@V?$allocator@D@2@@std@@QEBA_KXZ 00000001800cbba0 f i c1_ex_DLModel_28.obj
 0001:000cabb0       ?store@?$_Atomic_storage@W4DeviceEntryStatus@PerDeviceAttributeCache@CUB_200200_890_NS@cub@@$03@std@@QEAAXW4DeviceEntryStatus@PerDeviceAttributeCache@CUB_200200_890_NS@cub@@@Z 00000001800cbbb0 f i c1_ex_DLModel_28.obj
 0001:000cabe0       ?store@?$_Atomic_storage@W4DeviceEntryStatus@PerDeviceAttributeCache@CUB_200200_890_NS@cub@@$03@std@@QEAAXW4DeviceEntryStatus@PerDeviceAttributeCache@CUB_200200_890_NS@cub@@W4memory_order@2@@Z 00000001800cbbe0 f i c1_ex_DLModel_28.obj
 0001:000cac80       ?strrchr@@YAPEADQEADH@Z    00000001800cbc80 f i c1_ex_DLModel_28.obj
 0001:000caca0       ?sync@?$AgentLauncher@U?$ParallelForAgent@U?$functor@PEANH@__fill@cuda_cub@thrust@@_J@__parallel_for@cuda_cub@thrust@@@core@cuda_cub@thrust@@QEBAXXZ 00000001800cbca0 f i c1_ex_DLModel_28.obj
 0001:000cacd0       ?sync@?$AgentLauncher@U?$ParallelForAgent@U?$functor@PEANU?$compute_sequence_value@HX@detail@generic@2system@thrust@@_J@__tabulate@cuda_cub@thrust@@_J@__parallel_for@cuda_cub@thrust@@@core@cuda_cub@thrust@@QEBAXXZ 00000001800cbcd0 f i c1_ex_DLModel_28.obj
 0001:000cad00       ?system_category@system@thrust@@YAAEBVerror_category@12@XZ 00000001800cbd00 f i c1_ex_DLModel_28.obj
 0001:000cad70       ?throw_on_error@cuda_cub@thrust@@YAXW4cudaError@@PEBD@Z 00000001800cbd70 f i c1_ex_DLModel_28.obj
 0001:000cadf0       ?value@error_code@system@thrust@@QEBAHXZ 00000001800cbdf0 f i c1_ex_DLModel_28.obj
 0001:000cae00       ?value@error_condition@system@thrust@@QEBAHXZ 00000001800cbe00 f i c1_ex_DLModel_28.obj
 0001:000cae10       ?what@exception@std@@UEBAPEBDXZ 00000001800cbe10 f i c1_ex_DLModel_28.obj
 0001:000cae50       ?what@system_error@system@thrust@@UEBAPEBDXZ 00000001800cbe50 f i c1_ex_DLModel_28.obj
 0001:000cafe0       ?sf_c2_ex_DLModel_28_get_eml_resolved_functions_info@@YAPEBUmxArray_tag@@XZ 00000001800cbfe0 f   c2_ex_DLModel_28.obj
 0001:000cb080       ?sf_c2_ex_DLModel_28_get_check_sum@@YAXQEAPEAUmxArray_tag@@@Z 00000001800cc080 f   c2_ex_DLModel_28.obj
 0001:000cb150       ?c2_ex_DLModel_28_method_dispatcher@@YAXPEAUSimStruct_tag@@HPEAX@Z 00000001800cc150 f   c2_ex_DLModel_28.obj
 0001:000e5c70       ?sf_c2_ex_DLModel_28_third_party_uses_info@@YAPEAUmxArray_tag@@XZ 00000001800e6c70 f   c2_ex_DLModel_28.obj
 0001:000e5ce0       ?sf_c2_ex_DLModel_28_jit_fallback_info@@YAPEAUmxArray_tag@@XZ 00000001800e6ce0 f   c2_ex_DLModel_28.obj
 0001:000e5e70       ?sf_c2_ex_DLModel_28_updateBuildInfo_args_info@@YAPEAUmxArray_tag@@XZ 00000001800e6e70 f   c2_ex_DLModel_28.obj
 0001:000e60d0       ?sf_c2_ex_DLModel_28_get_post_codegen_info@@YAPEBDXZ 00000001800e70d0 f   c2_ex_DLModel_28.obj
 0001:000f2c20       ??$cudaMalloc@$$BY01N@@YA?AW4cudaError@@PEAPEAY01N_K@Z 00000001800f3c20 f i c2_ex_DLModel_28.obj
 0001:000f2c50       ??$cudaMalloc@$$BY02E@@YA?AW4cudaError@@PEAPEAY02E_K@Z 00000001800f3c50 f i c2_ex_DLModel_28.obj
 0001:000f2c80       ??$cudaMalloc@$$BY03H@@YA?AW4cudaError@@PEAPEAY03H_K@Z 00000001800f3c80 f i c2_ex_DLModel_28.obj
 0001:000f2cb0       ??$cudaMalloc@$$BY03N@@YA?AW4cudaError@@PEAPEAY03N_K@Z 00000001800f3cb0 f i c2_ex_DLModel_28.obj
 0001:000f2ce0       ??$cudaMalloc@$$BY0BAA@G@@YA?AW4cudaError@@PEAPEAY0BAA@G_K@Z 00000001800f3ce0 f i c2_ex_DLModel_28.obj
 0001:000f2d10       ??$cudaMalloc@$$BY0BAF@C@@YA?AW4cudaError@@PEAPEAY0BAF@C_K@Z 00000001800f3d10 f i c2_ex_DLModel_28.obj
 0001:000f2d40       ??$cudaMalloc@$$BY0BLJ@E@@YA?AW4cudaError@@PEAPEAY0BLJ@E_K@Z 00000001800f3d40 f i c2_ex_DLModel_28.obj
 0001:000f2d70       ??$cudaMalloc@$$BY0CIA@E@@YA?AW4cudaError@@PEAPEAY0CIA@E_K@Z 00000001800f3d70 f i c2_ex_DLModel_28.obj
 0001:000f2da0       ??$cudaMalloc@$$BY0CJKI@E@@YA?AW4cudaError@@PEAPEAY0CJKI@E_K@Z 00000001800f3da0 f i c2_ex_DLModel_28.obj
 0001:000f2dd0       ??$cudaMalloc@$$BY0ELAAA@E@@YA?AW4cudaError@@PEAPEAY0ELAAA@E_K@Z 00000001800f3dd0 f i c2_ex_DLModel_28.obj
 0001:000f2e00       ??$cudaMalloc@$$BY0HLIE@E@@YA?AW4cudaError@@PEAPEAY0HLIE@E_K@Z 00000001800f3e00 f i c2_ex_DLModel_28.obj
 0001:000f2e30       ??$cudaMalloc@$$BY0JA@E@@YA?AW4cudaError@@PEAPEAY0JA@E_K@Z 00000001800f3e30 f i c2_ex_DLModel_28.obj
 0001:000f2e60       ??$cudaMalloc@C@@YA?AW4cudaError@@PEAPEAC_K@Z 00000001800f3e60 f i c2_ex_DLModel_28.obj
 0001:000f2e90       ??$cudaMalloc@D@@YA?AW4cudaError@@PEAPEAD_K@Z 00000001800f3e90 f i c2_ex_DLModel_28.obj
 0001:000f2ec0       ??$cudaMalloc@E@@YA?AW4cudaError@@PEAPEAE_K@Z 00000001800f3ec0 f i c2_ex_DLModel_28.obj
 0001:000f2ef0       ??$cudaMalloc@G@@YA?AW4cudaError@@PEAPEAG_K@Z 00000001800f3ef0 f i c2_ex_DLModel_28.obj
 0001:000f2f70       ?sf_c5_ex_DLModel_28_get_eml_resolved_functions_info@@YAPEBUmxArray_tag@@XZ 00000001800f3f70 f   c5_ex_DLModel_28.obj
 0001:000f2ff0       ?sf_c5_ex_DLModel_28_get_check_sum@@YAXQEAPEAUmxArray_tag@@@Z 00000001800f3ff0 f   c5_ex_DLModel_28.obj
 0001:000f30c0       ?c5_ex_DLModel_28_method_dispatcher@@YAXPEAUSimStruct_tag@@HPEAX@Z 00000001800f40c0 f   c5_ex_DLModel_28.obj
 0001:000f3d00       ?sf_c5_ex_DLModel_28_third_party_uses_info@@YAPEAUmxArray_tag@@XZ 00000001800f4d00 f   c5_ex_DLModel_28.obj
 0001:000f3d30       ?sf_c5_ex_DLModel_28_jit_fallback_info@@YAPEAUmxArray_tag@@XZ 00000001800f4d30 f   c5_ex_DLModel_28.obj
 0001:000f3ec0       ?sf_c5_ex_DLModel_28_updateBuildInfo_args_info@@YAPEAUmxArray_tag@@XZ 00000001800f4ec0 f   c5_ex_DLModel_28.obj
 0001:000f4120       ?sf_c5_ex_DLModel_28_get_post_codegen_info@@YAPEBDXZ 00000001800f5120 f   c5_ex_DLModel_28.obj
 0001:000f4cd0       ?getBitfieldFromFloat@@YAIM@Z 00000001800f5cd0 f   half_type.obj
 0001:000f4d00       ?getFloatFromBitfield@@YAMI@Z 00000001800f5d00 f   half_type.obj
 0001:000f4d30       ??0real16_T@@QEAA@M@Z      00000001800f5d30 f   half_type.obj
 0001:000f4f80       ??0real16_T@@QEAA@N@Z      00000001800f5f80 f   half_type.obj
 0001:000f5270       ??Breal16_T@@QEBAMXZ       00000001800f6270 f   half_type.obj
 0001:000f5400       ??Breal16_T@@QEBANXZ       00000001800f6400 f   half_type.obj
 0001:000f5430       ??Hreal16_T@@QEBA?AV0@V0@@Z 00000001800f6430 f   half_type.obj
 0001:000f5490       ??Greal16_T@@QEBA?AV0@V0@@Z 00000001800f6490 f   half_type.obj
 0001:000f54f0       ??Dreal16_T@@QEBA?AV0@V0@@Z 00000001800f64f0 f   half_type.obj
 0001:000f5550       ??Kreal16_T@@QEBA?AV0@V0@@Z 00000001800f6550 f   half_type.obj
 0001:000f55b0       ??Hreal16_T@@QEBA?AV0@XZ   00000001800f65b0 f   half_type.obj
 0001:000f55e0       ??Greal16_T@@QEBA?AV0@XZ   00000001800f65e0 f   half_type.obj
 0001:000f5620       ??Ereal16_T@@QEAAAEAV0@XZ  00000001800f6620 f   half_type.obj
 0001:000f5670       ??Ereal16_T@@QEAA?AV0@H@Z  00000001800f6670 f   half_type.obj
 0001:000f56e0       ??Freal16_T@@QEAAAEAV0@XZ  00000001800f66e0 f   half_type.obj
 0001:000f5730       ??Freal16_T@@QEAA?AV0@H@Z  00000001800f6730 f   half_type.obj
 0001:000f57a0       ??8real16_T@@QEBAEV0@@Z    00000001800f67a0 f   half_type.obj
 0001:000f5800       ??9real16_T@@QEBAEV0@@Z    00000001800f6800 f   half_type.obj
 0001:000f5860       ??Preal16_T@@QEBAEV0@@Z    00000001800f6860 f   half_type.obj
 0001:000f58b0       ??Oreal16_T@@QEBAEV0@@Z    00000001800f68b0 f   half_type.obj
 0001:000f5900       ??Nreal16_T@@QEBAEV0@@Z    00000001800f6900 f   half_type.obj
 0001:000f5950       ??Mreal16_T@@QEBAEV0@@Z    00000001800f6950 f   half_type.obj
 0001:000f59a0       ??4real16_T@@QEAAAEAV0@AEBV0@@Z 00000001800f69a0 f   half_type.obj
 0001:000f59d0       ??4real16_T@@QECAXAEDV0@@Z 00000001800f69d0 f   half_type.obj
 0001:000f5a00       ??4real16_T@@QECAXAEBV0@@Z 00000001800f6a00 f   half_type.obj
 0001:000f5a30       ??Yreal16_T@@QEAAAEAV0@V0@@Z 00000001800f6a30 f   half_type.obj
 0001:000f5a90       ??Zreal16_T@@QEAAAEAV0@V0@@Z 00000001800f6a90 f   half_type.obj
 0001:000f5af0       ??Xreal16_T@@QEAAAEAV0@V0@@Z 00000001800f6af0 f   half_type.obj
 0001:000f5b50       ??_0real16_T@@QEAAAEAV0@V0@@Z 00000001800f6b50 f   half_type.obj
 0001:000f5bb0       ?getBitfieldFromHalf@@YAGVreal16_T@@@Z 00000001800f6bb0 f   half_type.obj
 0001:000f5bd0       ?getHalfFromBitfield@@YA?AVreal16_T@@G@Z 00000001800f6bd0 f   half_type.obj
 0001:000f5c10       ?halfToFloat@@YAMVreal16_T@@@Z 00000001800f6c10 f   half_type.obj
 0001:000f5c30       ?halfToDouble@@YANVreal16_T@@@Z 00000001800f6c30 f   half_type.obj
 0001:000f5c50       ?floatToHalf@@YA?AVreal16_T@@M@Z 00000001800f6c50 f   half_type.obj
 0001:000f5c80       ?doubleToHalf@@YA?AVreal16_T@@N@Z 00000001800f6c80 f   half_type.obj
 0001:000f5cb0       ?getBitPattern@real16_T@@QEBAGXZ 00000001800f6cb0 f i half_type.obj
 0001:000f5cc0       ?setBitPattern@real16_T@@QEAAXG@Z 00000001800f6cc0 f i half_type.obj
 0001:000f5ce0       mexfilerequiredapiversion  00000001800f6ce0 f   c_mexapi_version.obj
 0001:000f5d10       constructDrawBaseObjectShape 00000001800f6d10 f   insertShapeUtilsCore.obj
 0001:000f5d50       getPositionDataPointer     00000001800f6d50 f   insertShapeUtilsCore.obj
 0001:000f5df0       deletePositionDataPointer  00000001800f6df0 f   insertShapeUtilsCore.obj
 0001:000f5e30       getPtsDWPointer            00000001800f6e30 f   insertShapeUtilsCore.obj
 0001:000f5ec0       deletePtsDWPointer         00000001800f6ec0 f   insertShapeUtilsCore.obj
 0001:000f5ee0       allocatePolygonEdgePointer 00000001800f6ee0 f   insertShapeUtilsCore.obj
 0001:000f5fe0       deallocatePolygonEdgePointer 00000001800f6fe0 f   insertShapeUtilsCore.obj
 0001:000f6010       getColorDataPointer_single 00000001800f7010 f   insertShapeUtilsCore.obj
 0001:000f60b0       deleteColorDataPointer_single 00000001800f70b0 f   insertShapeUtilsCore.obj
 0001:000f60f0       getColorDataPointer_double 00000001800f70f0 f   insertShapeUtilsCore.obj
 0001:000f6190       deleteColorDataPointer_double 00000001800f7190 f   insertShapeUtilsCore.obj
 0001:000f61d0       getColorDataPointer_uint8  00000001800f71d0 f   insertShapeUtilsCore.obj
 0001:000f6250       deleteColorDataPointer_uint8 00000001800f7250 f   insertShapeUtilsCore.obj
 0001:000f6290       getColorDataPointer_uint16 00000001800f7290 f   insertShapeUtilsCore.obj
 0001:000f6330       deleteColorDataPointer_uint16 00000001800f7330 f   insertShapeUtilsCore.obj
 0001:000f6370       getColorDataPointer_int16  00000001800f7370 f   insertShapeUtilsCore.obj
 0001:000f6410       deleteColorDataPointer_int16 00000001800f7410 f   insertShapeUtilsCore.obj
 0001:000f6450       initialiseDrawbaseShape    00000001800f7450 f   insertShapeUtilsCore.obj
 0001:000f64b0       instantiateDrawBaseShape_single 00000001800f74b0 f   insertShapeUtilsCore.obj
 0001:000f66a0       instantiateDrawBaseShape_double 00000001800f76a0 f   insertShapeUtilsCore.obj
 0001:000f6890       instantiateDrawBaseShape_uint8 00000001800f7890 f   insertShapeUtilsCore.obj
 0001:000f6a80       instantiateDrawBaseShape_uint16 00000001800f7a80 f   insertShapeUtilsCore.obj
 0001:000f6c70       instantiateDrawBaseShape_int16 00000001800f7c70 f   insertShapeUtilsCore.obj
 0001:000f6e60       mDrawShapes                00000001800f7e60 f   insertShapeUtilsCore.obj
 0001:000f6ed0       deallocateMemoryShape      00000001800f7ed0 f   insertShapeUtilsCore.obj
 0001:000f6fc0       ??$CheckAndGetNumShape@H@@YAEHHPEBHPEAH1@Z 00000001800f7fc0 f i insertShapeUtilsCore.obj
 0001:000f70f0       ??$CheckDataDimen@H@@YAEHPEBHHAEAH@Z 00000001800f80f0 f i insertShapeUtilsCore.obj
 0001:000f7180       ??$CheckDataDimenEven@H@@YAEHPEBHHAEAH1@Z 00000001800f8180 f i insertShapeUtilsCore.obj
 0001:000f7240       ??$FindLineInViewPort@HH@@YAEPEBH0PEAH@Z 00000001800f8240 f i insertShapeUtilsCore.obj
 0001:000f8140       ??$FindVisibleArea@HH@?$DrawCommon@EEHHMMEE@@IEAAXPEBHPEAH@Z 00000001800f9140 f i insertShapeUtilsCore.obj
 0001:000f82b0       ??$FindVisibleArea@HH@?$DrawCommon@EEHHMMEH@@IEAAXPEBHPEAH@Z 00000001800f92b0 f i insertShapeUtilsCore.obj
 0001:000f8420       ??$FindVisibleArea@HH@?$DrawCommon@FFHHMMEE@@IEAAXPEBHPEAH@Z 00000001800f9420 f i insertShapeUtilsCore.obj
 0001:000f8590       ??$FindVisibleArea@HH@?$DrawCommon@FFHHMMEH@@IEAAXPEBHPEAH@Z 00000001800f9590 f i insertShapeUtilsCore.obj
 0001:000f8700       ??$FindVisibleArea@HH@?$DrawCommon@GGHHMMEE@@IEAAXPEBHPEAH@Z 00000001800f9700 f i insertShapeUtilsCore.obj
 0001:000f8870       ??$FindVisibleArea@HH@?$DrawCommon@GGHHMMEH@@IEAAXPEBHPEAH@Z 00000001800f9870 f i insertShapeUtilsCore.obj
 0001:000f89e0       ??$FindVisibleArea@HH@?$DrawCommon@MMHHMMEE@@IEAAXPEBHPEAH@Z 00000001800f99e0 f i insertShapeUtilsCore.obj
 0001:000f8b50       ??$FindVisibleArea@HH@?$DrawCommon@MMHHMMEH@@IEAAXPEBHPEAH@Z 00000001800f9b50 f i insertShapeUtilsCore.obj
 0001:000f8cc0       ??$FindVisibleArea@HH@?$DrawCommon@NNHHNNEE@@IEAAXPEBHPEAH@Z 00000001800f9cc0 f i insertShapeUtilsCore.obj
 0001:000f8e30       ??$FindVisibleArea@HH@?$DrawCommon@NNHHNNEH@@IEAAXPEBHPEAH@Z 00000001800f9e30 f i insertShapeUtilsCore.obj
 0001:000f8fa0       ??$FindVisibleAreaKeepCoordinate@HH@?$DrawCommon@EEHHMMEH@@IEAAXPEBHPEAH@Z 00000001800f9fa0 f i insertShapeUtilsCore.obj
 0001:000f9110       ??$FindVisibleAreaKeepCoordinate@HH@?$DrawCommon@FFHHMMEH@@IEAAXPEBHPEAH@Z 00000001800fa110 f i insertShapeUtilsCore.obj
 0001:000f9280       ??$FindVisibleAreaKeepCoordinate@HH@?$DrawCommon@GGHHMMEH@@IEAAXPEBHPEAH@Z 00000001800fa280 f i insertShapeUtilsCore.obj
 0001:000f93f0       ??$FindVisibleAreaKeepCoordinate@HH@?$DrawCommon@MMHHMMEH@@IEAAXPEBHPEAH@Z 00000001800fa3f0 f i insertShapeUtilsCore.obj
 0001:000f9560       ??$FindVisibleAreaKeepCoordinate@HH@?$DrawCommon@NNHHNNEH@@IEAAXPEBHPEAH@Z 00000001800fa560 f i insertShapeUtilsCore.obj
 0001:000f96d0       ??$InstantiateShape@EEHHMM@@YAPEAVDrawBase@@PEAEPEAH0PEAM1HEHHHH1HEE011@Z 00000001800fa6d0 f i insertShapeUtilsCore.obj
 0001:000fae80       ??$InstantiateShape@FFHHMM@@YAPEAVDrawBase@@PEAFPEAH0PEAM1HEHHHH1HEEPEAE11@Z 00000001800fbe80 f i insertShapeUtilsCore.obj
 0001:000fc620       ??$InstantiateShape@GGHHMM@@YAPEAVDrawBase@@PEAGPEAH0PEAM1HEHHHH1HEEPEAE11@Z 00000001800fd620 f i insertShapeUtilsCore.obj
 0001:000fddc0       ??$InstantiateShape@MMHHMM@@YAPEAVDrawBase@@PEAMPEAH001HEHHHH1HEEPEAE11@Z 00000001800fedc0 f i insertShapeUtilsCore.obj
 0001:000ff560       ??$InstantiateShape@NNHHNN@@YAPEAVDrawBase@@PEANPEAH001HEHHHH1HEEPEAE11@Z 0000000180100560 f i insertShapeUtilsCore.obj
 0001:00100d00       ??$Max@H@?$DrawCommon@EEHHMMEE@@AEAAHHH@Z 0000000180101d00 f i insertShapeUtilsCore.obj
 0001:00100d40       ??$Max@H@?$DrawCommon@EEHHMMEH@@AEAAHHH@Z 0000000180101d40 f i insertShapeUtilsCore.obj
 0001:00100d80       ??$Max@H@?$DrawCommon@FFHHMMEE@@AEAAHHH@Z 0000000180101d80 f i insertShapeUtilsCore.obj
 0001:00100dc0       ??$Max@H@?$DrawCommon@FFHHMMEH@@AEAAHHH@Z 0000000180101dc0 f i insertShapeUtilsCore.obj
 0001:00100e00       ??$Max@H@?$DrawCommon@GGHHMMEE@@AEAAHHH@Z 0000000180101e00 f i insertShapeUtilsCore.obj
 0001:00100e40       ??$Max@H@?$DrawCommon@GGHHMMEH@@AEAAHHH@Z 0000000180101e40 f i insertShapeUtilsCore.obj
 0001:00100e80       ??$Max@H@?$DrawCommon@MMHHMMEE@@AEAAHHH@Z 0000000180101e80 f i insertShapeUtilsCore.obj
 0001:00100ec0       ??$Max@H@?$DrawCommon@MMHHMMEH@@AEAAHHH@Z 0000000180101ec0 f i insertShapeUtilsCore.obj
 0001:00100f00       ??$Max@H@?$DrawCommon@NNHHNNEE@@AEAAHHH@Z 0000000180101f00 f i insertShapeUtilsCore.obj
 0001:00100f40       ??$Max@H@?$DrawCommon@NNHHNNEH@@AEAAHHH@Z 0000000180101f40 f i insertShapeUtilsCore.obj
 0001:00100f80       ??$Min@H@?$DrawCommon@EEHHMMEE@@AEAAHHH@Z 0000000180101f80 f i insertShapeUtilsCore.obj
 0001:00100fc0       ??$Min@H@?$DrawCommon@EEHHMMEH@@AEAAHHH@Z 0000000180101fc0 f i insertShapeUtilsCore.obj
 0001:00101000       ??$Min@H@?$DrawCommon@FFHHMMEE@@AEAAHHH@Z 0000000180102000 f i insertShapeUtilsCore.obj
 0001:00101040       ??$Min@H@?$DrawCommon@FFHHMMEH@@AEAAHHH@Z 0000000180102040 f i insertShapeUtilsCore.obj
 0001:00101080       ??$Min@H@?$DrawCommon@GGHHMMEE@@AEAAHHH@Z 0000000180102080 f i insertShapeUtilsCore.obj
 0001:001010c0       ??$Min@H@?$DrawCommon@GGHHMMEH@@AEAAHHH@Z 00000001801020c0 f i insertShapeUtilsCore.obj
 0001:00101100       ??$Min@H@?$DrawCommon@MMHHMMEE@@AEAAHHH@Z 0000000180102100 f i insertShapeUtilsCore.obj
 0001:00101140       ??$Min@H@?$DrawCommon@MMHHMMEH@@AEAAHHH@Z 0000000180102140 f i insertShapeUtilsCore.obj
 0001:00101180       ??$Min@H@?$DrawCommon@NNHHNNEE@@AEAAHHH@Z 0000000180102180 f i insertShapeUtilsCore.obj
 0001:001011c0       ??$Min@H@?$DrawCommon@NNHHNNEH@@AEAAHHH@Z 00000001801021c0 f i insertShapeUtilsCore.obj
 0001:00101200       ??$ToIntCoordinate@H@@YAHH@Z 0000000180102200 f i insertShapeUtilsCore.obj
 0001:00101210       ??$getColDimen@H@@YAHHPEBH@Z 0000000180102210 f i insertShapeUtilsCore.obj
 0001:00101260       ??$getPoint@H@@YAXPEAHNNHHHHE@Z 0000000180102260 f i insertShapeUtilsCore.obj
 0001:00101990       ??$getRowDimen@H@@YAHHPEBH@Z 0000000180102990 f i insertShapeUtilsCore.obj
 0001:001019e0       ??$isInbound@H@@YAEHHHH@Z  00000001801029e0 f i insertShapeUtilsCore.obj
 0001:00101a20       ??$isPointOnLine@H@@YAEPEBNPEBHNN@Z 0000000180102a20 f i insertShapeUtilsCore.obj
 0001:00101c60       ??$isinf@N@@YA_NN@Z        0000000180102c60 f i insertShapeUtilsCore.obj
 0001:00101ca0       ??$max@H@std@@YAAEBHAEBH0@Z 0000000180102ca0 f i insertShapeUtilsCore.obj
 0001:00101cf0       ??$min@H@std@@YAAEBHAEBH0@Z 0000000180102cf0 f i insertShapeUtilsCore.obj
 0001:00101d40       ??$truncatePoint@H@@YAXPEAHHH@Z 0000000180102d40 f i insertShapeUtilsCore.obj
 0001:00101fa0       ??0?$DrawAnyLine@EEHHMMEE@@QEAA@PEAE00HHH0HPEAHHH1EEEPEAMH00211@Z 0000000180102fa0 f i insertShapeUtilsCore.obj
 0001:00102110       ??0?$DrawAnyLine@EEHHMMEH@@QEAA@PEAE00HHH0HPEAHHH1EEEPEAMH00211@Z 0000000180103110 f i insertShapeUtilsCore.obj
 0001:00102280       ??0?$DrawAnyLine@FFHHMMEE@@QEAA@PEAF00HHH0HPEAHHH1EEEPEAMHPEAE0211@Z 0000000180103280 f i insertShapeUtilsCore.obj
 0001:001023f0       ??0?$DrawAnyLine@FFHHMMEH@@QEAA@PEAF00HHH0HPEAHHH1EEEPEAMHPEAE0211@Z 00000001801033f0 f i insertShapeUtilsCore.obj
 0001:00102560       ??0?$DrawAnyLine@GGHHMMEE@@QEAA@PEAG00HHH0HPEAHHH1EEEPEAMHPEAE0211@Z 0000000180103560 f i insertShapeUtilsCore.obj
 0001:001026d0       ??0?$DrawAnyLine@GGHHMMEH@@QEAA@PEAG00HHH0HPEAHHH1EEEPEAMHPEAE0211@Z 00000001801036d0 f i insertShapeUtilsCore.obj
 0001:00102840       ??0?$DrawAnyLine@MMHHMMEE@@QEAA@PEAM00HHH0HPEAHHH1EEE0HPEAE0011@Z 0000000180103840 f i insertShapeUtilsCore.obj
 0001:001029b0       ??0?$DrawAnyLine@MMHHMMEH@@QEAA@PEAM00HHH0HPEAHHH1EEE0HPEAE0011@Z 00000001801039b0 f i insertShapeUtilsCore.obj
 0001:00102b20       ??0?$DrawAnyLine@NNHHNNEE@@QEAA@PEAN00HHH0HPEAHHH1EEE0HPEAE0011@Z 0000000180103b20 f i insertShapeUtilsCore.obj
 0001:00102c90       ??0?$DrawAnyLine@NNHHNNEH@@QEAA@PEAN00HHH0HPEAHHH1EEE0HPEAE0011@Z 0000000180103c90 f i insertShapeUtilsCore.obj
 0001:00102e00       ??0?$DrawCircle@EEHHMMEEE@@QEAA@PEAE00HHH0HPEAHHH1EEEPEAMH002@Z 0000000180103e00 f i insertShapeUtilsCore.obj
 0001:00102f40       ??0?$DrawCircle@EEHHMMEEH@@QEAA@PEAE00HHH0HPEAHHH1EEEPEAMH002@Z 0000000180103f40 f i insertShapeUtilsCore.obj
 0001:00103080       ??0?$DrawCircle@EEHHMMEHE@@QEAA@PEAE00HHH0HPEAHHH1EEEPEAMH002@Z 0000000180104080 f i insertShapeUtilsCore.obj
 0001:001031c0       ??0?$DrawCircle@EEHHMMEHH@@QEAA@PEAE00HHH0HPEAHHH1EEEPEAMH002@Z 00000001801041c0 f i insertShapeUtilsCore.obj
 0001:00103300       ??0?$DrawCircle@FFHHMMEEE@@QEAA@PEAF00HHH0HPEAHHH1EEEPEAMHPEAE02@Z 0000000180104300 f i insertShapeUtilsCore.obj
 0001:00103440       ??0?$DrawCircle@FFHHMMEEH@@QEAA@PEAF00HHH0HPEAHHH1EEEPEAMHPEAE02@Z 0000000180104440 f i insertShapeUtilsCore.obj
 0001:00103580       ??0?$DrawCircle@FFHHMMEHE@@QEAA@PEAF00HHH0HPEAHHH1EEEPEAMHPEAE02@Z 0000000180104580 f i insertShapeUtilsCore.obj
 0001:001036c0       ??0?$DrawCircle@FFHHMMEHH@@QEAA@PEAF00HHH0HPEAHHH1EEEPEAMHPEAE02@Z 00000001801046c0 f i insertShapeUtilsCore.obj
 0001:00103800       ??0?$DrawCircle@GGHHMMEEE@@QEAA@PEAG00HHH0HPEAHHH1EEEPEAMHPEAE02@Z 0000000180104800 f i insertShapeUtilsCore.obj
 0001:00103940       ??0?$DrawCircle@GGHHMMEEH@@QEAA@PEAG00HHH0HPEAHHH1EEEPEAMHPEAE02@Z 0000000180104940 f i insertShapeUtilsCore.obj
 0001:00103a80       ??0?$DrawCircle@GGHHMMEHE@@QEAA@PEAG00HHH0HPEAHHH1EEEPEAMHPEAE02@Z 0000000180104a80 f i insertShapeUtilsCore.obj
 0001:00103bc0       ??0?$DrawCircle@GGHHMMEHH@@QEAA@PEAG00HHH0HPEAHHH1EEEPEAMHPEAE02@Z 0000000180104bc0 f i insertShapeUtilsCore.obj
 0001:00103d00       ??0?$DrawCircle@MMHHMMEEE@@QEAA@PEAM00HHH0HPEAHHH1EEE0HPEAE00@Z 0000000180104d00 f i insertShapeUtilsCore.obj
 0001:00103e40       ??0?$DrawCircle@MMHHMMEEH@@QEAA@PEAM00HHH0HPEAHHH1EEE0HPEAE00@Z 0000000180104e40 f i insertShapeUtilsCore.obj
 0001:00103f80       ??0?$DrawCircle@MMHHMMEHE@@QEAA@PEAM00HHH0HPEAHHH1EEE0HPEAE00@Z 0000000180104f80 f i insertShapeUtilsCore.obj
 0001:001040c0       ??0?$DrawCircle@MMHHMMEHH@@QEAA@PEAM00HHH0HPEAHHH1EEE0HPEAE00@Z 00000001801050c0 f i insertShapeUtilsCore.obj
 0001:00104200       ??0?$DrawCircle@NNHHNNEEE@@QEAA@PEAN00HHH0HPEAHHH1EEE0HPEAE00@Z 0000000180105200 f i insertShapeUtilsCore.obj
 0001:00104340       ??0?$DrawCircle@NNHHNNEEH@@QEAA@PEAN00HHH0HPEAHHH1EEE0HPEAE00@Z 0000000180105340 f i insertShapeUtilsCore.obj
 0001:00104480       ??0?$DrawCircle@NNHHNNEHE@@QEAA@PEAN00HHH0HPEAHHH1EEE0HPEAE00@Z 0000000180105480 f i insertShapeUtilsCore.obj
 0001:001045c0       ??0?$DrawCircle@NNHHNNEHH@@QEAA@PEAN00HHH0HPEAHHH1EEE0HPEAE00@Z 00000001801055c0 f i insertShapeUtilsCore.obj
 0001:00104700       ??0?$DrawCircleAnySize@EEHHMMEEE@@QEAA@PEAE00HHH0HPEAHHH1EEEPEAMH0021@Z 0000000180105700 f i insertShapeUtilsCore.obj
 0001:00104860       ??0?$DrawCircleAnySize@EEHHMMEEH@@QEAA@PEAE00HHH0HPEAHHH1EEEPEAMH0021@Z 0000000180105860 f i insertShapeUtilsCore.obj
 0001:001049c0       ??0?$DrawCircleAnySize@EEHHMMEHE@@QEAA@PEAE00HHH0HPEAHHH1EEEPEAMH0021@Z 00000001801059c0 f i insertShapeUtilsCore.obj
 0001:00104b20       ??0?$DrawCircleAnySize@EEHHMMEHH@@QEAA@PEAE00HHH0HPEAHHH1EEEPEAMH0021@Z 0000000180105b20 f i insertShapeUtilsCore.obj
 0001:00104c80       ??0?$DrawCircleAnySize@FFHHMMEEE@@QEAA@PEAF00HHH0HPEAHHH1EEEPEAMHPEAE021@Z 0000000180105c80 f i insertShapeUtilsCore.obj
 0001:00104de0       ??0?$DrawCircleAnySize@FFHHMMEEH@@QEAA@PEAF00HHH0HPEAHHH1EEEPEAMHPEAE021@Z 0000000180105de0 f i insertShapeUtilsCore.obj
 0001:00104f40       ??0?$DrawCircleAnySize@FFHHMMEHE@@QEAA@PEAF00HHH0HPEAHHH1EEEPEAMHPEAE021@Z 0000000180105f40 f i insertShapeUtilsCore.obj
 0001:001050a0       ??0?$DrawCircleAnySize@FFHHMMEHH@@QEAA@PEAF00HHH0HPEAHHH1EEEPEAMHPEAE021@Z 00000001801060a0 f i insertShapeUtilsCore.obj
 0001:00105200       ??0?$DrawCircleAnySize@GGHHMMEEE@@QEAA@PEAG00HHH0HPEAHHH1EEEPEAMHPEAE021@Z 0000000180106200 f i insertShapeUtilsCore.obj
 0001:00105360       ??0?$DrawCircleAnySize@GGHHMMEEH@@QEAA@PEAG00HHH0HPEAHHH1EEEPEAMHPEAE021@Z 0000000180106360 f i insertShapeUtilsCore.obj
 0001:001054c0       ??0?$DrawCircleAnySize@GGHHMMEHE@@QEAA@PEAG00HHH0HPEAHHH1EEEPEAMHPEAE021@Z 00000001801064c0 f i insertShapeUtilsCore.obj
 0001:00105620       ??0?$DrawCircleAnySize@GGHHMMEHH@@QEAA@PEAG00HHH0HPEAHHH1EEEPEAMHPEAE021@Z 0000000180106620 f i insertShapeUtilsCore.obj
 0001:00105780       ??0?$DrawCircleAnySize@MMHHMMEEE@@QEAA@PEAM00HHH0HPEAHHH1EEE0HPEAE001@Z 0000000180106780 f i insertShapeUtilsCore.obj
 0001:001058e0       ??0?$DrawCircleAnySize@MMHHMMEEH@@QEAA@PEAM00HHH0HPEAHHH1EEE0HPEAE001@Z 00000001801068e0 f i insertShapeUtilsCore.obj
 0001:00105a40       ??0?$DrawCircleAnySize@MMHHMMEHE@@QEAA@PEAM00HHH0HPEAHHH1EEE0HPEAE001@Z 0000000180106a40 f i insertShapeUtilsCore.obj
 0001:00105ba0       ??0?$DrawCircleAnySize@MMHHMMEHH@@QEAA@PEAM00HHH0HPEAHHH1EEE0HPEAE001@Z 0000000180106ba0 f i insertShapeUtilsCore.obj
 0001:00105d00       ??0?$DrawCircleAnySize@NNHHNNEEE@@QEAA@PEAN00HHH0HPEAHHH1EEE0HPEAE001@Z 0000000180106d00 f i insertShapeUtilsCore.obj
 0001:00105e60       ??0?$DrawCircleAnySize@NNHHNNEEH@@QEAA@PEAN00HHH0HPEAHHH1EEE0HPEAE001@Z 0000000180106e60 f i insertShapeUtilsCore.obj
 0001:00105fc0       ??0?$DrawCircleAnySize@NNHHNNEHE@@QEAA@PEAN00HHH0HPEAHHH1EEE0HPEAE001@Z 0000000180106fc0 f i insertShapeUtilsCore.obj
 0001:00106120       ??0?$DrawCircleAnySize@NNHHNNEHH@@QEAA@PEAN00HHH0HPEAHHH1EEE0HPEAE001@Z 0000000180107120 f i insertShapeUtilsCore.obj
 0001:00106280       ??0?$DrawCommon@EEHHMMEE@@QEAA@PEAE00HHH0HPEAHHH1EEEPEAMH002@Z 0000000180107280 f i insertShapeUtilsCore.obj
 0001:00106420       ??0?$DrawCommon@EEHHMMEH@@QEAA@PEAE00HHH0HPEAHHH1EEEPEAMH002@Z 0000000180107420 f i insertShapeUtilsCore.obj
 0001:001065c0       ??0?$DrawCommon@FFHHMMEE@@QEAA@PEAF00HHH0HPEAHHH1EEEPEAMHPEAE02@Z 00000001801075c0 f i insertShapeUtilsCore.obj
 0001:00106760       ??0?$DrawCommon@FFHHMMEH@@QEAA@PEAF00HHH0HPEAHHH1EEEPEAMHPEAE02@Z 0000000180107760 f i insertShapeUtilsCore.obj
 0001:00106900       ??0?$DrawCommon@GGHHMMEE@@QEAA@PEAG00HHH0HPEAHHH1EEEPEAMHPEAE02@Z 0000000180107900 f i insertShapeUtilsCore.obj
 0001:00106aa0       ??0?$DrawCommon@GGHHMMEH@@QEAA@PEAG00HHH0HPEAHHH1EEEPEAMHPEAE02@Z 0000000180107aa0 f i insertShapeUtilsCore.obj
 0001:00106c40       ??0?$DrawCommon@MMHHMMEE@@QEAA@PEAM00HHH0HPEAHHH1EEE0HPEAE00@Z 0000000180107c40 f i insertShapeUtilsCore.obj
 0001:00106de0       ??0?$DrawCommon@MMHHMMEH@@QEAA@PEAM00HHH0HPEAHHH1EEE0HPEAE00@Z 0000000180107de0 f i insertShapeUtilsCore.obj
 0001:00106f80       ??0?$DrawCommon@NNHHNNEE@@QEAA@PEAN00HHH0HPEAHHH1EEE0HPEAE00@Z 0000000180107f80 f i insertShapeUtilsCore.obj
 0001:00107120       ??0?$DrawCommon@NNHHNNEH@@QEAA@PEAN00HHH0HPEAHHH1EEE0HPEAE00@Z 0000000180108120 f i insertShapeUtilsCore.obj
 0001:001072c0       ??0?$DrawFilledPolygon@EEHHMMEE@@QEAA@PEAE00HHH0HPEAHHH1EEEPEAMH002PEAV?$ScanLineBase@HHE@@11@Z 00000001801082c0 f i insertShapeUtilsCore.obj
 0001:00107450       ??0?$DrawFilledPolygon@EEHHMMEH@@QEAA@PEAE00HHH0HPEAHHH1EEEPEAMH002PEAV?$ScanLineBase@HHH@@11@Z 0000000180108450 f i insertShapeUtilsCore.obj
 0001:001075e0       ??0?$DrawFilledPolygon@FFHHMMEE@@QEAA@PEAF00HHH0HPEAHHH1EEEPEAMHPEAE02PEAV?$ScanLineBase@HHE@@11@Z 00000001801085e0 f i insertShapeUtilsCore.obj
 0001:00107770       ??0?$DrawFilledPolygon@FFHHMMEH@@QEAA@PEAF00HHH0HPEAHHH1EEEPEAMHPEAE02PEAV?$ScanLineBase@HHH@@11@Z 0000000180108770 f i insertShapeUtilsCore.obj
 0001:00107900       ??0?$DrawFilledPolygon@GGHHMMEE@@QEAA@PEAG00HHH0HPEAHHH1EEEPEAMHPEAE02PEAV?$ScanLineBase@HHE@@11@Z 0000000180108900 f i insertShapeUtilsCore.obj
 0001:00107a90       ??0?$DrawFilledPolygon@GGHHMMEH@@QEAA@PEAG00HHH0HPEAHHH1EEEPEAMHPEAE02PEAV?$ScanLineBase@HHH@@11@Z 0000000180108a90 f i insertShapeUtilsCore.obj
 0001:00107c20       ??0?$DrawFilledPolygon@MMHHMMEE@@QEAA@PEAM00HHH0HPEAHHH1EEE0HPEAE00PEAV?$ScanLineBase@HHE@@11@Z 0000000180108c20 f i insertShapeUtilsCore.obj
 0001:00107db0       ??0?$DrawFilledPolygon@MMHHMMEH@@QEAA@PEAM00HHH0HPEAHHH1EEE0HPEAE00PEAV?$ScanLineBase@HHH@@11@Z 0000000180108db0 f i insertShapeUtilsCore.obj
 0001:00107f40       ??0?$DrawFilledPolygon@NNHHNNEE@@QEAA@PEAN00HHH0HPEAHHH1EEE0HPEAE00PEAV?$ScanLineBase@HHE@@11@Z 0000000180108f40 f i insertShapeUtilsCore.obj
 0001:001080d0       ??0?$DrawFilledPolygon@NNHHNNEH@@QEAA@PEAN00HHH0HPEAHHH1EEE0HPEAE00PEAV?$ScanLineBase@HHH@@11@Z 00000001801090d0 f i insertShapeUtilsCore.obj
 0001:00108260       ??0?$DrawFilledRectangle@EEHHMME@@QEAA@PEAE00HHH0HPEAHHH1EEEPEAMH002@Z 0000000180109260 f i insertShapeUtilsCore.obj
 0001:001083a0       ??0?$DrawFilledRectangle@FFHHMME@@QEAA@PEAF00HHH0HPEAHHH1EEEPEAMHPEAE02@Z 00000001801093a0 f i insertShapeUtilsCore.obj
 0001:001084e0       ??0?$DrawFilledRectangle@GGHHMME@@QEAA@PEAG00HHH0HPEAHHH1EEEPEAMHPEAE02@Z 00000001801094e0 f i insertShapeUtilsCore.obj
 0001:00108620       ??0?$DrawFilledRectangle@MMHHMME@@QEAA@PEAM00HHH0HPEAHHH1EEE0HPEAE00@Z 0000000180109620 f i insertShapeUtilsCore.obj
 0001:00108760       ??0?$DrawFilledRectangle@NNHHNNE@@QEAA@PEAN00HHH0HPEAHHH1EEE0HPEAE00@Z 0000000180109760 f i insertShapeUtilsCore.obj
 0001:001088a0       ??0?$DrawFilledRectangleAnySize@EEHHMME@@QEAA@PEAE00HHH0HPEAHHH1EEEPEAMH002PEBH@Z 00000001801098a0 f i insertShapeUtilsCore.obj
 0001:00108a00       ??0?$DrawFilledRectangleAnySize@FFHHMME@@QEAA@PEAF00HHH0HPEAHHH1EEEPEAMHPEAE02PEBH@Z 0000000180109a00 f i insertShapeUtilsCore.obj
 0001:00108b60       ??0?$DrawFilledRectangleAnySize@GGHHMME@@QEAA@PEAG00HHH0HPEAHHH1EEEPEAMHPEAE02PEBH@Z 0000000180109b60 f i insertShapeUtilsCore.obj
 0001:00108cc0       ??0?$DrawFilledRectangleAnySize@MMHHMME@@QEAA@PEAM00HHH0HPEAHHH1EEE0HPEAE00PEBH@Z 0000000180109cc0 f i insertShapeUtilsCore.obj
 0001:00108e20       ??0?$DrawFilledRectangleAnySize@NNHHNNE@@QEAA@PEAN00HHH0HPEAHHH1EEE0HPEAE00PEBH@Z 0000000180109e20 f i insertShapeUtilsCore.obj
 0001:00108f80       ??0?$DrawLine@EEHHMMEE@@QEAA@PEAE00HHH0HPEAHHH1EEEPEAMH002@Z 0000000180109f80 f i insertShapeUtilsCore.obj
 0001:001090c0       ??0?$DrawLine@EEHHMMEH@@QEAA@PEAE00HHH0HPEAHHH1EEEPEAMH002@Z 000000018010a0c0 f i insertShapeUtilsCore.obj
 0001:00109200       ??0?$DrawLine@FFHHMMEE@@QEAA@PEAF00HHH0HPEAHHH1EEEPEAMHPEAE02@Z 000000018010a200 f i insertShapeUtilsCore.obj
 0001:00109340       ??0?$DrawLine@FFHHMMEH@@QEAA@PEAF00HHH0HPEAHHH1EEEPEAMHPEAE02@Z 000000018010a340 f i insertShapeUtilsCore.obj
 0001:00109480       ??0?$DrawLine@GGHHMMEE@@QEAA@PEAG00HHH0HPEAHHH1EEEPEAMHPEAE02@Z 000000018010a480 f i insertShapeUtilsCore.obj
 0001:001095c0       ??0?$DrawLine@GGHHMMEH@@QEAA@PEAG00HHH0HPEAHHH1EEEPEAMHPEAE02@Z 000000018010a5c0 f i insertShapeUtilsCore.obj
 0001:00109700       ??0?$DrawLine@MMHHMMEE@@QEAA@PEAM00HHH0HPEAHHH1EEE0HPEAE00@Z 000000018010a700 f i insertShapeUtilsCore.obj
 0001:00109840       ??0?$DrawLine@MMHHMMEH@@QEAA@PEAM00HHH0HPEAHHH1EEE0HPEAE00@Z 000000018010a840 f i insertShapeUtilsCore.obj
 0001:00109980       ??0?$DrawLine@NNHHNNEE@@QEAA@PEAN00HHH0HPEAHHH1EEE0HPEAE00@Z 000000018010a980 f i insertShapeUtilsCore.obj
 0001:00109ac0       ??0?$DrawLine@NNHHNNEH@@QEAA@PEAN00HHH0HPEAHHH1EEE0HPEAE00@Z 000000018010aac0 f i insertShapeUtilsCore.obj
 0001:00109c00       ??0?$DrawMarkerLine@EEHHMMEE@@QEAA@PEAE00HHH0HPEAHHH1EEEPEAMH002@Z 000000018010ac00 f i insertShapeUtilsCore.obj
 0001:00109d40       ??0?$DrawMarkerLine@FFHHMMEE@@QEAA@PEAF00HHH0HPEAHHH1EEEPEAMHPEAE02@Z 000000018010ad40 f i insertShapeUtilsCore.obj
 0001:00109e80       ??0?$DrawMarkerLine@GGHHMMEE@@QEAA@PEAG00HHH0HPEAHHH1EEEPEAMHPEAE02@Z 000000018010ae80 f i insertShapeUtilsCore.obj
 0001:00109fc0       ??0?$DrawMarkerLine@MMHHMMEE@@QEAA@PEAM00HHH0HPEAHHH1EEE0HPEAE00@Z 000000018010afc0 f i insertShapeUtilsCore.obj
 0001:0010a100       ??0?$DrawMarkerLine@NNHHNNEE@@QEAA@PEAN00HHH0HPEAHHH1EEE0HPEAE00@Z 000000018010b100 f i insertShapeUtilsCore.obj
 0001:0010a240       ??0?$DrawPolygon@EEHHMMEE@@QEAA@PEAE00HHH0HPEAHHH1EEEPEAMH00211@Z 000000018010b240 f i insertShapeUtilsCore.obj
 0001:0010a3b0       ??0?$DrawPolygon@EEHHMMEH@@QEAA@PEAE00HHH0HPEAHHH1EEEPEAMH00211@Z 000000018010b3b0 f i insertShapeUtilsCore.obj
 0001:0010a520       ??0?$DrawPolygon@FFHHMMEE@@QEAA@PEAF00HHH0HPEAHHH1EEEPEAMHPEAE0211@Z 000000018010b520 f i insertShapeUtilsCore.obj
 0001:0010a690       ??0?$DrawPolygon@FFHHMMEH@@QEAA@PEAF00HHH0HPEAHHH1EEEPEAMHPEAE0211@Z 000000018010b690 f i insertShapeUtilsCore.obj
 0001:0010a800       ??0?$DrawPolygon@GGHHMMEE@@QEAA@PEAG00HHH0HPEAHHH1EEEPEAMHPEAE0211@Z 000000018010b800 f i insertShapeUtilsCore.obj
 0001:0010a970       ??0?$DrawPolygon@GGHHMMEH@@QEAA@PEAG00HHH0HPEAHHH1EEEPEAMHPEAE0211@Z 000000018010b970 f i insertShapeUtilsCore.obj
 0001:0010aae0       ??0?$DrawPolygon@MMHHMMEE@@QEAA@PEAM00HHH0HPEAHHH1EEE0HPEAE0011@Z 000000018010bae0 f i insertShapeUtilsCore.obj
 0001:0010ac50       ??0?$DrawPolygon@MMHHMMEH@@QEAA@PEAM00HHH0HPEAHHH1EEE0HPEAE0011@Z 000000018010bc50 f i insertShapeUtilsCore.obj
 0001:0010adc0       ??0?$DrawPolygon@NNHHNNEE@@QEAA@PEAN00HHH0HPEAHHH1EEE0HPEAE0011@Z 000000018010bdc0 f i insertShapeUtilsCore.obj
 0001:0010af30       ??0?$DrawPolygon@NNHHNNEH@@QEAA@PEAN00HHH0HPEAHHH1EEE0HPEAE0011@Z 000000018010bf30 f i insertShapeUtilsCore.obj
 0001:0010b0a0       ??0?$DrawRectangleAnySize@EEHHMME@@QEAA@PEAE00HHH0HPEAHHH1EEEPEAMH0021@Z 000000018010c0a0 f i insertShapeUtilsCore.obj
 0001:0010b200       ??0?$DrawRectangleAnySize@FFHHMME@@QEAA@PEAF00HHH0HPEAHHH1EEEPEAMHPEAE021@Z 000000018010c200 f i insertShapeUtilsCore.obj
 0001:0010b360       ??0?$DrawRectangleAnySize@GGHHMME@@QEAA@PEAG00HHH0HPEAHHH1EEEPEAMHPEAE021@Z 000000018010c360 f i insertShapeUtilsCore.obj
 0001:0010b4c0       ??0?$DrawRectangleAnySize@MMHHMME@@QEAA@PEAM00HHH0HPEAHHH1EEE0HPEAE001@Z 000000018010c4c0 f i insertShapeUtilsCore.obj
 0001:0010b620       ??0?$DrawRectangleAnySize@NNHHNNE@@QEAA@PEAN00HHH0HPEAHHH1EEE0HPEAE001@Z 000000018010c620 f i insertShapeUtilsCore.obj
 0001:0010b780       ??0?$MidPointFullCircle@H@@QEAA@XZ 000000018010c780 f i insertShapeUtilsCore.obj
 0001:0010b790       ??0?$Polygon@HHE@@QEAA@PEBHPEAH11HHHEE@Z 000000018010c790 f i insertShapeUtilsCore.obj
 0001:0010b840       ??0?$Polygon@HHH@@QEAA@PEBHPEAH11HHHEE@Z 000000018010c840 f i insertShapeUtilsCore.obj
 0001:0010b8f0       ??0?$ScanLine@HHE@@QEAA@PEAV?$Polygon@HHE@@HHHH@Z 000000018010c8f0 f i insertShapeUtilsCore.obj
 0001:0010b980       ??0?$ScanLine@HHH@@QEAA@PEAV?$Polygon@HHH@@HHHH@Z 000000018010c980 f i insertShapeUtilsCore.obj
 0001:0010ba10       ??0?$ScanLineBase@HHE@@QEAA@PEAV?$Polygon@HHE@@HHHH@Z 000000018010ca10 f i insertShapeUtilsCore.obj
 0001:0010baa0       ??0?$ScanLineBase@HHH@@QEAA@PEAV?$Polygon@HHH@@HHHH@Z 000000018010caa0 f i insertShapeUtilsCore.obj
 0001:0010bb30       ??0DrawBase@@QEAA@XZ       000000018010cb30 f i insertShapeUtilsCore.obj
 0001:0010bb50       ??1?$DrawAnyLine@EEHHMMEE@@UEAA@XZ 000000018010cb50 f i insertShapeUtilsCore.obj
 0001:0010bb80       ??1?$DrawAnyLine@EEHHMMEH@@UEAA@XZ 000000018010cb80 f i insertShapeUtilsCore.obj
 0001:0010bbb0       ??1?$DrawAnyLine@FFHHMMEE@@UEAA@XZ 000000018010cbb0 f i insertShapeUtilsCore.obj
 0001:0010bbe0       ??1?$DrawAnyLine@FFHHMMEH@@UEAA@XZ 000000018010cbe0 f i insertShapeUtilsCore.obj
 0001:0010bc10       ??1?$DrawAnyLine@GGHHMMEE@@UEAA@XZ 000000018010cc10 f i insertShapeUtilsCore.obj
 0001:0010bc40       ??1?$DrawAnyLine@GGHHMMEH@@UEAA@XZ 000000018010cc40 f i insertShapeUtilsCore.obj
 0001:0010bc70       ??1?$DrawAnyLine@MMHHMMEE@@UEAA@XZ 000000018010cc70 f i insertShapeUtilsCore.obj
 0001:0010bca0       ??1?$DrawAnyLine@MMHHMMEH@@UEAA@XZ 000000018010cca0 f i insertShapeUtilsCore.obj
 0001:0010bcd0       ??1?$DrawAnyLine@NNHHNNEE@@UEAA@XZ 000000018010ccd0 f i insertShapeUtilsCore.obj
 0001:0010bd00       ??1?$DrawAnyLine@NNHHNNEH@@UEAA@XZ 000000018010cd00 f i insertShapeUtilsCore.obj
 0001:0010bd30       ??1?$DrawCircle@EEHHMMEEE@@UEAA@XZ 000000018010cd30 f i insertShapeUtilsCore.obj
 0001:0010bd50       ??1?$DrawCircle@EEHHMMEEH@@UEAA@XZ 000000018010cd50 f i insertShapeUtilsCore.obj
 0001:0010bd70       ??1?$DrawCircle@EEHHMMEHE@@UEAA@XZ 000000018010cd70 f i insertShapeUtilsCore.obj
 0001:0010bd90       ??1?$DrawCircle@EEHHMMEHH@@UEAA@XZ 000000018010cd90 f i insertShapeUtilsCore.obj
 0001:0010bdb0       ??1?$DrawCircle@FFHHMMEEE@@UEAA@XZ 000000018010cdb0 f i insertShapeUtilsCore.obj
 0001:0010bdd0       ??1?$DrawCircle@FFHHMMEEH@@UEAA@XZ 000000018010cdd0 f i insertShapeUtilsCore.obj
 0001:0010bdf0       ??1?$DrawCircle@FFHHMMEHE@@UEAA@XZ 000000018010cdf0 f i insertShapeUtilsCore.obj
 0001:0010be10       ??1?$DrawCircle@FFHHMMEHH@@UEAA@XZ 000000018010ce10 f i insertShapeUtilsCore.obj
 0001:0010be30       ??1?$DrawCircle@GGHHMMEEE@@UEAA@XZ 000000018010ce30 f i insertShapeUtilsCore.obj
 0001:0010be50       ??1?$DrawCircle@GGHHMMEEH@@UEAA@XZ 000000018010ce50 f i insertShapeUtilsCore.obj
 0001:0010be70       ??1?$DrawCircle@GGHHMMEHE@@UEAA@XZ 000000018010ce70 f i insertShapeUtilsCore.obj
 0001:0010be90       ??1?$DrawCircle@GGHHMMEHH@@UEAA@XZ 000000018010ce90 f i insertShapeUtilsCore.obj
 0001:0010beb0       ??1?$DrawCircle@MMHHMMEEE@@UEAA@XZ 000000018010ceb0 f i insertShapeUtilsCore.obj
 0001:0010bed0       ??1?$DrawCircle@MMHHMMEEH@@UEAA@XZ 000000018010ced0 f i insertShapeUtilsCore.obj
 0001:0010bef0       ??1?$DrawCircle@MMHHMMEHE@@UEAA@XZ 000000018010cef0 f i insertShapeUtilsCore.obj
 0001:0010bf10       ??1?$DrawCircle@MMHHMMEHH@@UEAA@XZ 000000018010cf10 f i insertShapeUtilsCore.obj
 0001:0010bf30       ??1?$DrawCircle@NNHHNNEEE@@UEAA@XZ 000000018010cf30 f i insertShapeUtilsCore.obj
 0001:0010bf50       ??1?$DrawCircle@NNHHNNEEH@@UEAA@XZ 000000018010cf50 f i insertShapeUtilsCore.obj
 0001:0010bf70       ??1?$DrawCircle@NNHHNNEHE@@UEAA@XZ 000000018010cf70 f i insertShapeUtilsCore.obj
 0001:0010bf90       ??1?$DrawCircle@NNHHNNEHH@@UEAA@XZ 000000018010cf90 f i insertShapeUtilsCore.obj
 0001:0010bfb0       ??1?$DrawCircleAnySize@EEHHMMEEE@@UEAA@XZ 000000018010cfb0 f i insertShapeUtilsCore.obj
 0001:0010bfe0       ??1?$DrawCircleAnySize@EEHHMMEEH@@UEAA@XZ 000000018010cfe0 f i insertShapeUtilsCore.obj
 0001:0010c010       ??1?$DrawCircleAnySize@EEHHMMEHE@@UEAA@XZ 000000018010d010 f i insertShapeUtilsCore.obj
 0001:0010c040       ??1?$DrawCircleAnySize@EEHHMMEHH@@UEAA@XZ 000000018010d040 f i insertShapeUtilsCore.obj
 0001:0010c070       ??1?$DrawCircleAnySize@FFHHMMEEE@@UEAA@XZ 000000018010d070 f i insertShapeUtilsCore.obj
 0001:0010c0a0       ??1?$DrawCircleAnySize@FFHHMMEEH@@UEAA@XZ 000000018010d0a0 f i insertShapeUtilsCore.obj
 0001:0010c0d0       ??1?$DrawCircleAnySize@FFHHMMEHE@@UEAA@XZ 000000018010d0d0 f i insertShapeUtilsCore.obj
 0001:0010c100       ??1?$DrawCircleAnySize@FFHHMMEHH@@UEAA@XZ 000000018010d100 f i insertShapeUtilsCore.obj
 0001:0010c130       ??1?$DrawCircleAnySize@GGHHMMEEE@@UEAA@XZ 000000018010d130 f i insertShapeUtilsCore.obj
 0001:0010c160       ??1?$DrawCircleAnySize@GGHHMMEEH@@UEAA@XZ 000000018010d160 f i insertShapeUtilsCore.obj
 0001:0010c190       ??1?$DrawCircleAnySize@GGHHMMEHE@@UEAA@XZ 000000018010d190 f i insertShapeUtilsCore.obj
 0001:0010c1c0       ??1?$DrawCircleAnySize@GGHHMMEHH@@UEAA@XZ 000000018010d1c0 f i insertShapeUtilsCore.obj
 0001:0010c1f0       ??1?$DrawCircleAnySize@MMHHMMEEE@@UEAA@XZ 000000018010d1f0 f i insertShapeUtilsCore.obj
 0001:0010c220       ??1?$DrawCircleAnySize@MMHHMMEEH@@UEAA@XZ 000000018010d220 f i insertShapeUtilsCore.obj
 0001:0010c250       ??1?$DrawCircleAnySize@MMHHMMEHE@@UEAA@XZ 000000018010d250 f i insertShapeUtilsCore.obj
 0001:0010c280       ??1?$DrawCircleAnySize@MMHHMMEHH@@UEAA@XZ 000000018010d280 f i insertShapeUtilsCore.obj
 0001:0010c2b0       ??1?$DrawCircleAnySize@NNHHNNEEE@@UEAA@XZ 000000018010d2b0 f i insertShapeUtilsCore.obj
 0001:0010c2e0       ??1?$DrawCircleAnySize@NNHHNNEEH@@UEAA@XZ 000000018010d2e0 f i insertShapeUtilsCore.obj
 0001:0010c310       ??1?$DrawCircleAnySize@NNHHNNEHE@@UEAA@XZ 000000018010d310 f i insertShapeUtilsCore.obj
 0001:0010c340       ??1?$DrawCircleAnySize@NNHHNNEHH@@UEAA@XZ 000000018010d340 f i insertShapeUtilsCore.obj
 0001:0010c370       ??1?$DrawCommon@EEHHMMEE@@UEAA@XZ 000000018010d370 f i insertShapeUtilsCore.obj
 0001:0010c3a0       ??1?$DrawCommon@EEHHMMEH@@UEAA@XZ 000000018010d3a0 f i insertShapeUtilsCore.obj
 0001:0010c3d0       ??1?$DrawCommon@FFHHMMEE@@UEAA@XZ 000000018010d3d0 f i insertShapeUtilsCore.obj
 0001:0010c400       ??1?$DrawCommon@FFHHMMEH@@UEAA@XZ 000000018010d400 f i insertShapeUtilsCore.obj
